In archive libIoShieldLib.a:

IoShield.o:     file format elf32-avr

Sections:
Idx Name          Size      VMA       LMA       File off  Algn
  0 .text         000004c2  00000000  00000000  00000034  2**0
                  CONTENTS, ALLOC, LOAD, RELOC, READONLY, CODE
  1 .data         00000000  00000000  00000000  000004f6  2**0
                  CONTENTS, ALLOC, LOAD, DATA
  2 .bss          00000002  00000000  00000000  000004f6  2**0
                  ALLOC
  3 .ctors        00000002  00000000  00000000  000004f6  2**0
                  CONTENTS, ALLOC, LOAD, RELOC, READONLY, DATA

Disassembly of section .text:

00000000 <_ZN8IoShield21toggle_address_enableEv>:
   0:	43 9a       	sbi	0x08, 3	; 8
   2:	00 00       	nop
   4:	00 00       	nop
   6:	00 00       	nop
   8:	43 98       	cbi	0x08, 3	; 8
   a:	08 95       	ret

0000000c <_ZN8IoShield18set_address_enableEh>:
   c:	61 30       	cpi	r22, 0x01	; 1
   e:	01 f4       	brne	.+0      	; 0x10 <_ZN8IoShield18set_address_enableEh+0x4>
  10:	43 9a       	sbi	0x08, 3	; 8
  12:	08 95       	ret
  14:	66 23       	and	r22, r22
  16:	01 f4       	brne	.+0      	; 0x18 <_ZN8IoShield18set_address_enableEh+0xc>
  18:	43 98       	cbi	0x08, 3	; 8
  1a:	08 95       	ret

0000001c <_ZN8IoShield13write_addressEh>:
  1c:	88 b1       	in	r24, 0x08	; 8
  1e:	67 70       	andi	r22, 0x07	; 7
  20:	88 7f       	andi	r24, 0xF8	; 248
  22:	86 2b       	or	r24, r22
  24:	88 b9       	out	0x08, r24	; 8
  26:	08 95       	ret

00000028 <_ZN8IoShield20set_direction_outputEv>:
  28:	2a b1       	in	r18, 0x0a	; 10
  2a:	2c 6f       	ori	r18, 0xFC	; 252
  2c:	2a b9       	out	0x0a, r18	; 10
  2e:	24 b1       	in	r18, 0x04	; 4
  30:	23 60       	ori	r18, 0x03	; 3
  32:	24 b9       	out	0x04, r18	; 4
  34:	2b b1       	in	r18, 0x0b	; 11
  36:	23 70       	andi	r18, 0x03	; 3
  38:	2b b9       	out	0x0b, r18	; 11
  3a:	25 b1       	in	r18, 0x05	; 5
  3c:	2c 7f       	andi	r18, 0xFC	; 252
  3e:	25 b9       	out	0x05, r18	; 5
  40:	21 e0       	ldi	r18, 0x01	; 1
  42:	fc 01       	movw	r30, r24
  44:	21 83       	std	Z+1, r18	; 0x01
  46:	08 95       	ret

00000048 <_ZN8IoShield19set_direction_inputEv>:
  48:	2a b1       	in	r18, 0x0a	; 10
  4a:	23 70       	andi	r18, 0x03	; 3
  4c:	2a b9       	out	0x0a, r18	; 10
  4e:	24 b1       	in	r18, 0x04	; 4
  50:	2c 7f       	andi	r18, 0xFC	; 252
  52:	24 b9       	out	0x04, r18	; 4
  54:	2b b1       	in	r18, 0x0b	; 11
  56:	2c 6f       	ori	r18, 0xFC	; 252
  58:	2b b9       	out	0x0b, r18	; 11
  5a:	25 b1       	in	r18, 0x05	; 5
  5c:	23 60       	ori	r18, 0x03	; 3
  5e:	25 b9       	out	0x05, r18	; 5
  60:	22 e0       	ldi	r18, 0x02	; 2
  62:	fc 01       	movw	r30, r24
  64:	21 83       	std	Z+1, r18	; 0x01
  66:	08 95       	ret

00000068 <_ZN8IoShield18set_port_directionEh>:
  68:	fc 01       	movw	r30, r24
  6a:	81 81       	ldd	r24, Z+1	; 0x01
  6c:	86 17       	cp	r24, r22
  6e:	01 f0       	breq	.+0      	; 0x70 <_ZN8IoShield18set_port_directionEh+0x8>
  70:	61 30       	cpi	r22, 0x01	; 1
  72:	01 f4       	brne	.+0      	; 0x74 <_ZN8IoShield18set_port_directionEh+0xc>
  74:	82 30       	cpi	r24, 0x02	; 2
  76:	01 f4       	brne	.+0      	; 0x78 <_ZN8IoShield18set_port_directionEh+0x10>
  78:	8b b1       	in	r24, 0x0b	; 11
  7a:	83 70       	andi	r24, 0x03	; 3
  7c:	8b b9       	out	0x0b, r24	; 11
  7e:	85 b1       	in	r24, 0x05	; 5
  80:	8c 7f       	andi	r24, 0xFC	; 252
  82:	85 b9       	out	0x05, r24	; 5
  84:	cf 01       	movw	r24, r30
  86:	0e 94 00 00 	call	0	; 0x0 <_ZN8IoShield21toggle_address_enableEv>
  8a:	08 95       	ret
  8c:	62 30       	cpi	r22, 0x02	; 2
  8e:	01 f4       	brne	.+0      	; 0x90 <_ZN8IoShield18set_port_directionEh+0x28>
  90:	81 30       	cpi	r24, 0x01	; 1
  92:	01 f4       	brne	.+0      	; 0x94 <_ZN8IoShield18set_port_directionEh+0x2c>
  94:	8b b1       	in	r24, 0x0b	; 11
  96:	83 70       	andi	r24, 0x03	; 3
  98:	8b b9       	out	0x0b, r24	; 11
  9a:	85 b1       	in	r24, 0x05	; 5
  9c:	8c 7f       	andi	r24, 0xFC	; 252
  9e:	85 b9       	out	0x05, r24	; 5
  a0:	cf 01       	movw	r24, r30
  a2:	0e 94 00 00 	call	0	; 0x0 <_ZN8IoShield21toggle_address_enableEv>
  a6:	08 95       	ret

000000a8 <_ZN8IoShield10read_valueEh>:
  a8:	ef 92       	push	r14
  aa:	ff 92       	push	r15
  ac:	1f 93       	push	r17
  ae:	7c 01       	movw	r14, r24
  b0:	16 2f       	mov	r17, r22
  b2:	62 e0       	ldi	r22, 0x02	; 2
  b4:	0e 94 00 00 	call	0	; 0x0 <_ZN8IoShield21toggle_address_enableEv>
  b8:	88 b1       	in	r24, 0x08	; 8
  ba:	17 70       	andi	r17, 0x07	; 7
  bc:	88 7f       	andi	r24, 0xF8	; 248
  be:	81 2b       	or	r24, r17
  c0:	88 b9       	out	0x08, r24	; 8
  c2:	c7 01       	movw	r24, r14
  c4:	61 e0       	ldi	r22, 0x01	; 1
  c6:	0e 94 00 00 	call	0	; 0x0 <_ZN8IoShield21toggle_address_enableEv>
  ca:	00 00       	nop
  cc:	00 00       	nop
  ce:	89 b1       	in	r24, 0x09	; 9
  d0:	13 b1       	in	r17, 0x03	; 3
  d2:	86 95       	lsr	r24
  d4:	86 95       	lsr	r24
  d6:	12 95       	swap	r17
  d8:	11 0f       	add	r17, r17
  da:	11 0f       	add	r17, r17
  dc:	10 7c       	andi	r17, 0xC0	; 192
  de:	18 2b       	or	r17, r24
  e0:	c7 01       	movw	r24, r14
  e2:	60 e0       	ldi	r22, 0x00	; 0
  e4:	0e 94 00 00 	call	0	; 0x0 <_ZN8IoShield21toggle_address_enableEv>
  e8:	81 2f       	mov	r24, r17
  ea:	1f 91       	pop	r17
  ec:	ff 90       	pop	r15
  ee:	ef 90       	pop	r14
  f0:	08 95       	ret

000000f2 <_ZN8IoShield11write_valueEhh>:
  f2:	0f 93       	push	r16
  f4:	1f 93       	push	r17
  f6:	16 2f       	mov	r17, r22
  f8:	04 2f       	mov	r16, r20
  fa:	61 e0       	ldi	r22, 0x01	; 1
  fc:	0e 94 00 00 	call	0	; 0x0 <_ZN8IoShield21toggle_address_enableEv>
 100:	88 b1       	in	r24, 0x08	; 8
 102:	17 70       	andi	r17, 0x07	; 7
 104:	88 7f       	andi	r24, 0xF8	; 248
 106:	81 2b       	or	r24, r17
 108:	88 b9       	out	0x08, r24	; 8
 10a:	8b b1       	in	r24, 0x0b	; 11
 10c:	90 2f       	mov	r25, r16
 10e:	99 0f       	add	r25, r25
 110:	99 0f       	add	r25, r25
 112:	83 70       	andi	r24, 0x03	; 3
 114:	98 2b       	or	r25, r24
 116:	9b b9       	out	0x0b, r25	; 11
 118:	85 b1       	in	r24, 0x05	; 5
 11a:	02 95       	swap	r16
 11c:	06 95       	lsr	r16
 11e:	06 95       	lsr	r16
 120:	03 70       	andi	r16, 0x03	; 3
 122:	8c 7f       	andi	r24, 0xFC	; 252
 124:	80 2b       	or	r24, r16
 126:	85 b9       	out	0x05, r24	; 5
 128:	43 9a       	sbi	0x08, 3	; 8
 12a:	00 00       	nop
 12c:	00 00       	nop
 12e:	00 00       	nop
 130:	43 98       	cbi	0x08, 3	; 8
 132:	1f 91       	pop	r17
 134:	0f 91       	pop	r16
 136:	08 95       	ret

00000138 <_ZN8IoShield16initialize_portsEv>:
 138:	10 92 7a 00 	sts	0x007A, r1
 13c:	18 b8       	out	0x08, r1	; 8
 13e:	2f e3       	ldi	r18, 0x3F	; 63
 140:	27 b9       	out	0x07, r18	; 7
 142:	0e 94 00 00 	call	0	; 0x0 <_ZN8IoShield21toggle_address_enableEv>
 146:	08 95       	ret

00000148 <_ZN8IoShield12shift_outputEhhhhhhi>:
 148:	5f 92       	push	r5
 14a:	6f 92       	push	r6
 14c:	7f 92       	push	r7
 14e:	8f 92       	push	r8
 150:	9f 92       	push	r9
 152:	af 92       	push	r10
 154:	bf 92       	push	r11
 156:	cf 92       	push	r12
 158:	df 92       	push	r13
 15a:	ef 92       	push	r14
 15c:	ff 92       	push	r15
 15e:	0f 93       	push	r16
 160:	1f 93       	push	r17
 162:	cf 93       	push	r28
 164:	df 93       	push	r29
 166:	ec 01       	movw	r28, r24
 168:	76 2e       	mov	r7, r22
 16a:	14 2f       	mov	r17, r20
 16c:	52 2e       	mov	r5, r18
 16e:	80 2e       	mov	r8, r16
 170:	9e 2c       	mov	r9, r14
 172:	6c 2c       	mov	r6, r12
 174:	00 e0       	ldi	r16, 0x00	; 0
 176:	65 01       	movw	r12, r10
 178:	ee 24       	eor	r14, r14
 17a:	d7 fc       	sbrc	r13, 7
 17c:	e0 94       	com	r14
 17e:	fe 2c       	mov	r15, r14
 180:	00 c0       	rjmp	.+0      	; 0x182 <_ZN8IoShield12shift_outputEhhhhhhi+0x3a>
 182:	ce 01       	movw	r24, r28
 184:	67 2d       	mov	r22, r7
 186:	41 2f       	mov	r20, r17
 188:	0e 94 00 00 	call	0	; 0x0 <_ZN8IoShield21toggle_address_enableEv>
 18c:	c7 01       	movw	r24, r14
 18e:	b6 01       	movw	r22, r12
 190:	0e 94 00 00 	call	0	; 0x0 <_ZN8IoShield21toggle_address_enableEv>
 194:	88 20       	and	r8, r8
 196:	01 f4       	brne	.+0      	; 0x198 <_ZN8IoShield12shift_outputEhhhhhhi+0x50>
 198:	81 2f       	mov	r24, r17
 19a:	90 e0       	ldi	r25, 0x00	; 0
 19c:	09 2c       	mov	r0, r9
 19e:	00 c0       	rjmp	.+0      	; 0x1a0 <_ZN8IoShield12shift_outputEhhhhhhi+0x58>
 1a0:	88 0f       	add	r24, r24
 1a2:	99 1f       	adc	r25, r25
 1a4:	0a 94       	dec	r0
 1a6:	02 f4       	brpl	.+0      	; 0x1a8 <_ZN8IoShield12shift_outputEhhhhhhi+0x60>
 1a8:	00 c0       	rjmp	.+0      	; 0x1aa <_ZN8IoShield12shift_outputEhhhhhhi+0x62>
 1aa:	81 e0       	ldi	r24, 0x01	; 1
 1ac:	88 16       	cp	r8, r24
 1ae:	01 f4       	brne	.+0      	; 0x1b0 <_ZN8IoShield12shift_outputEhhhhhhi+0x68>
 1b0:	81 2f       	mov	r24, r17
 1b2:	90 e0       	ldi	r25, 0x00	; 0
 1b4:	09 2c       	mov	r0, r9
 1b6:	00 c0       	rjmp	.+0      	; 0x1b8 <_ZN8IoShield12shift_outputEhhhhhhi+0x70>
 1b8:	95 95       	asr	r25
 1ba:	87 95       	ror	r24
 1bc:	0a 94       	dec	r0
 1be:	02 f4       	brpl	.+0      	; 0x1c0 <_ZN8IoShield12shift_outputEhhhhhhi+0x78>
 1c0:	18 2f       	mov	r17, r24
 1c2:	0f 5f       	subi	r16, 0xFF	; 255
 1c4:	06 15       	cp	r16, r6
 1c6:	00 f0       	brcs	.+0      	; 0x1c8 <_ZN8IoShield12shift_outputEhhhhhhi+0x80>
 1c8:	ce 01       	movw	r24, r28
 1ca:	67 2d       	mov	r22, r7
 1cc:	45 2d       	mov	r20, r5
 1ce:	0e 94 00 00 	call	0	; 0x0 <_ZN8IoShield21toggle_address_enableEv>
 1d2:	df 91       	pop	r29
 1d4:	cf 91       	pop	r28
 1d6:	1f 91       	pop	r17
 1d8:	0f 91       	pop	r16
 1da:	ff 90       	pop	r15
 1dc:	ef 90       	pop	r14
 1de:	df 90       	pop	r13
 1e0:	cf 90       	pop	r12
 1e2:	bf 90       	pop	r11
 1e4:	af 90       	pop	r10
 1e6:	9f 90       	pop	r9
 1e8:	8f 90       	pop	r8
 1ea:	7f 90       	pop	r7
 1ec:	6f 90       	pop	r6
 1ee:	5f 90       	pop	r5
 1f0:	08 95       	ret

000001f2 <_ZN8IoShield13bounce_outputEhhhi>:
 1f2:	4f 92       	push	r4
 1f4:	5f 92       	push	r5
 1f6:	6f 92       	push	r6
 1f8:	7f 92       	push	r7
 1fa:	8f 92       	push	r8
 1fc:	9f 92       	push	r9
 1fe:	af 92       	push	r10
 200:	bf 92       	push	r11
 202:	cf 92       	push	r12
 204:	df 92       	push	r13
 206:	ef 92       	push	r14
 208:	ff 92       	push	r15
 20a:	0f 93       	push	r16
 20c:	1f 93       	push	r17
 20e:	cf 93       	push	r28
 210:	df 93       	push	r29
 212:	ec 01       	movw	r28, r24
 214:	d6 2e       	mov	r13, r22
 216:	f4 2e       	mov	r15, r20
 218:	48 01       	movw	r8, r16
 21a:	66 24       	eor	r6, r6
 21c:	77 24       	eor	r7, r7
 21e:	42 2e       	mov	r4, r18
 220:	55 24       	eor	r5, r5
 222:	00 c0       	rjmp	.+0      	; 0x224 <_ZN8IoShield13bounce_outputEhhhi+0x32>
 224:	ff 20       	and	r15, r15
 226:	01 f4       	brne	.+0      	; 0x228 <_ZN8IoShield13bounce_outputEhhhi+0x36>
 228:	ce 01       	movw	r24, r28
 22a:	60 e0       	ldi	r22, 0x00	; 0
 22c:	41 e0       	ldi	r20, 0x01	; 1
 22e:	20 e0       	ldi	r18, 0x00	; 0
 230:	00 e0       	ldi	r16, 0x00	; 0
 232:	ee 24       	eor	r14, r14
 234:	e3 94       	inc	r14
 236:	57 e0       	ldi	r21, 0x07	; 7
 238:	c5 2e       	mov	r12, r21
 23a:	54 01       	movw	r10, r8
 23c:	0e 94 00 00 	call	0	; 0x0 <_ZN8IoShield21toggle_address_enableEv>
 240:	ce 01       	movw	r24, r28
 242:	60 e0       	ldi	r22, 0x00	; 0
 244:	40 e8       	ldi	r20, 0x80	; 128
 246:	20 e0       	ldi	r18, 0x00	; 0
 248:	01 e0       	ldi	r16, 0x01	; 1
 24a:	00 c0       	rjmp	.+0      	; 0x24c <_ZN8IoShield13bounce_outputEhhhi+0x5a>
 24c:	81 e0       	ldi	r24, 0x01	; 1
 24e:	f8 16       	cp	r15, r24
 250:	01 f4       	brne	.+0      	; 0x252 <_ZN8IoShield13bounce_outputEhhhi+0x60>
 252:	ce 01       	movw	r24, r28
 254:	60 e0       	ldi	r22, 0x00	; 0
 256:	40 e8       	ldi	r20, 0x80	; 128
 258:	20 e0       	ldi	r18, 0x00	; 0
 25a:	01 e0       	ldi	r16, 0x01	; 1
 25c:	ee 24       	eor	r14, r14
 25e:	e3 94       	inc	r14
 260:	37 e0       	ldi	r19, 0x07	; 7
 262:	c3 2e       	mov	r12, r19
 264:	54 01       	movw	r10, r8
 266:	0e 94 00 00 	call	0	; 0x0 <_ZN8IoShield21toggle_address_enableEv>
 26a:	ce 01       	movw	r24, r28
 26c:	60 e0       	ldi	r22, 0x00	; 0
 26e:	41 e0       	ldi	r20, 0x01	; 1
 270:	20 e0       	ldi	r18, 0x00	; 0
 272:	00 e0       	ldi	r16, 0x00	; 0
 274:	0e 94 00 00 	call	0	; 0x0 <_ZN8IoShield21toggle_address_enableEv>
 278:	08 94       	sec
 27a:	61 1c       	adc	r6, r1
 27c:	71 1c       	adc	r7, r1
 27e:	64 14       	cp	r6, r4
 280:	75 04       	cpc	r7, r5
 282:	04 f0       	brlt	.+0      	; 0x284 <_ZN8IoShield13bounce_outputEhhhi+0x92>
 284:	ff 20       	and	r15, r15
 286:	01 f4       	brne	.+0      	; 0x288 <_ZN8IoShield13bounce_outputEhhhi+0x96>
 288:	ce 01       	movw	r24, r28
 28a:	6d 2d       	mov	r22, r13
 28c:	41 e0       	ldi	r20, 0x01	; 1
 28e:	00 c0       	rjmp	.+0      	; 0x290 <_ZN8IoShield13bounce_outputEhhhi+0x9e>
 290:	81 e0       	ldi	r24, 0x01	; 1
 292:	f8 16       	cp	r15, r24
 294:	01 f4       	brne	.+0      	; 0x296 <_ZN8IoShield13bounce_outputEhhhi+0xa4>
 296:	ce 01       	movw	r24, r28
 298:	6d 2d       	mov	r22, r13
 29a:	40 e8       	ldi	r20, 0x80	; 128
 29c:	0e 94 00 00 	call	0	; 0x0 <_ZN8IoShield21toggle_address_enableEv>
 2a0:	b4 01       	movw	r22, r8
 2a2:	88 27       	eor	r24, r24
 2a4:	77 fd       	sbrc	r23, 7
 2a6:	80 95       	com	r24
 2a8:	98 2f       	mov	r25, r24
 2aa:	0e 94 00 00 	call	0	; 0x0 <_ZN8IoShield21toggle_address_enableEv>
 2ae:	ce 01       	movw	r24, r28
 2b0:	6d 2d       	mov	r22, r13
 2b2:	40 e0       	ldi	r20, 0x00	; 0
 2b4:	0e 94 00 00 	call	0	; 0x0 <_ZN8IoShield21toggle_address_enableEv>
 2b8:	df 91       	pop	r29
 2ba:	cf 91       	pop	r28
 2bc:	1f 91       	pop	r17
 2be:	0f 91       	pop	r16
 2c0:	ff 90       	pop	r15
 2c2:	ef 90       	pop	r14
 2c4:	df 90       	pop	r13
 2c6:	cf 90       	pop	r12
 2c8:	bf 90       	pop	r11
 2ca:	af 90       	pop	r10
 2cc:	9f 90       	pop	r9
 2ce:	8f 90       	pop	r8
 2d0:	7f 90       	pop	r7
 2d2:	6f 90       	pop	r6
 2d4:	5f 90       	pop	r5
 2d6:	4f 90       	pop	r4
 2d8:	08 95       	ret

000002da <_ZN8IoShield17test_output_portsEv>:
 2da:	af 92       	push	r10
 2dc:	bf 92       	push	r11
 2de:	cf 92       	push	r12
 2e0:	ef 92       	push	r14
 2e2:	0f 93       	push	r16
 2e4:	1f 93       	push	r17
 2e6:	cf 93       	push	r28
 2e8:	df 93       	push	r29
 2ea:	ec 01       	movw	r28, r24
 2ec:	88 81       	ld	r24, Y
 2ee:	61 e0       	ldi	r22, 0x01	; 1
 2f0:	0e 94 00 00 	call	0	; 0x0 <_ZN8IoShield21toggle_address_enableEv>
 2f4:	ce 01       	movw	r24, r28
 2f6:	60 e0       	ldi	r22, 0x00	; 0
 2f8:	40 e0       	ldi	r20, 0x00	; 0
 2fa:	0e 94 00 00 	call	0	; 0x0 <_ZN8IoShield21toggle_address_enableEv>
 2fe:	6a ef       	ldi	r22, 0xFA	; 250
 300:	70 e0       	ldi	r23, 0x00	; 0
 302:	80 e0       	ldi	r24, 0x00	; 0
 304:	90 e0       	ldi	r25, 0x00	; 0
 306:	0e 94 00 00 	call	0	; 0x0 <_ZN8IoShield21toggle_address_enableEv>
 30a:	88 81       	ld	r24, Y
 30c:	60 e0       	ldi	r22, 0x00	; 0
 30e:	0e 94 00 00 	call	0	; 0x0 <_ZN8IoShield21toggle_address_enableEv>
 312:	6a ef       	ldi	r22, 0xFA	; 250
 314:	70 e0       	ldi	r23, 0x00	; 0
 316:	80 e0       	ldi	r24, 0x00	; 0
 318:	90 e0       	ldi	r25, 0x00	; 0
 31a:	0e 94 00 00 	call	0	; 0x0 <_ZN8IoShield21toggle_address_enableEv>
 31e:	88 81       	ld	r24, Y
 320:	61 e0       	ldi	r22, 0x01	; 1
 322:	0e 94 00 00 	call	0	; 0x0 <_ZN8IoShield21toggle_address_enableEv>
 326:	ce 01       	movw	r24, r28
 328:	60 e0       	ldi	r22, 0x00	; 0
 32a:	4f ef       	ldi	r20, 0xFF	; 255
 32c:	0e 94 00 00 	call	0	; 0x0 <_ZN8IoShield21toggle_address_enableEv>
 330:	6a ef       	ldi	r22, 0xFA	; 250
 332:	70 e0       	ldi	r23, 0x00	; 0
 334:	80 e0       	ldi	r24, 0x00	; 0
 336:	90 e0       	ldi	r25, 0x00	; 0
 338:	0e 94 00 00 	call	0	; 0x0 <_ZN8IoShield21toggle_address_enableEv>
 33c:	88 81       	ld	r24, Y
 33e:	60 e0       	ldi	r22, 0x00	; 0
 340:	0e 94 00 00 	call	0	; 0x0 <_ZN8IoShield21toggle_address_enableEv>
 344:	6a ef       	ldi	r22, 0xFA	; 250
 346:	70 e0       	ldi	r23, 0x00	; 0
 348:	80 e0       	ldi	r24, 0x00	; 0
 34a:	90 e0       	ldi	r25, 0x00	; 0
 34c:	0e 94 00 00 	call	0	; 0x0 <_ZN8IoShield21toggle_address_enableEv>
 350:	88 81       	ld	r24, Y
 352:	61 e0       	ldi	r22, 0x01	; 1
 354:	0e 94 00 00 	call	0	; 0x0 <_ZN8IoShield21toggle_address_enableEv>
 358:	ce 01       	movw	r24, r28
 35a:	60 e0       	ldi	r22, 0x00	; 0
 35c:	45 e5       	ldi	r20, 0x55	; 85
 35e:	0e 94 00 00 	call	0	; 0x0 <_ZN8IoShield21toggle_address_enableEv>
 362:	6a ef       	ldi	r22, 0xFA	; 250
 364:	70 e0       	ldi	r23, 0x00	; 0
 366:	80 e0       	ldi	r24, 0x00	; 0
 368:	90 e0       	ldi	r25, 0x00	; 0
 36a:	0e 94 00 00 	call	0	; 0x0 <_ZN8IoShield21toggle_address_enableEv>
 36e:	88 81       	ld	r24, Y
 370:	60 e0       	ldi	r22, 0x00	; 0
 372:	0e 94 00 00 	call	0	; 0x0 <_ZN8IoShield21toggle_address_enableEv>
 376:	6a ef       	ldi	r22, 0xFA	; 250
 378:	70 e0       	ldi	r23, 0x00	; 0
 37a:	80 e0       	ldi	r24, 0x00	; 0
 37c:	90 e0       	ldi	r25, 0x00	; 0
 37e:	0e 94 00 00 	call	0	; 0x0 <_ZN8IoShield21toggle_address_enableEv>
 382:	88 81       	ld	r24, Y
 384:	61 e0       	ldi	r22, 0x01	; 1
 386:	0e 94 00 00 	call	0	; 0x0 <_ZN8IoShield21toggle_address_enableEv>
 38a:	ce 01       	movw	r24, r28
 38c:	60 e0       	ldi	r22, 0x00	; 0
 38e:	4a ea       	ldi	r20, 0xAA	; 170
 390:	0e 94 00 00 	call	0	; 0x0 <_ZN8IoShield21toggle_address_enableEv>
 394:	6a ef       	ldi	r22, 0xFA	; 250
 396:	70 e0       	ldi	r23, 0x00	; 0
 398:	80 e0       	ldi	r24, 0x00	; 0
 39a:	90 e0       	ldi	r25, 0x00	; 0
 39c:	0e 94 00 00 	call	0	; 0x0 <_ZN8IoShield21toggle_address_enableEv>
 3a0:	88 81       	ld	r24, Y
 3a2:	60 e0       	ldi	r22, 0x00	; 0
 3a4:	0e 94 00 00 	call	0	; 0x0 <_ZN8IoShield21toggle_address_enableEv>
 3a8:	6a ef       	ldi	r22, 0xFA	; 250
 3aa:	70 e0       	ldi	r23, 0x00	; 0
 3ac:	80 e0       	ldi	r24, 0x00	; 0
 3ae:	90 e0       	ldi	r25, 0x00	; 0
 3b0:	0e 94 00 00 	call	0	; 0x0 <_ZN8IoShield21toggle_address_enableEv>
 3b4:	ce 01       	movw	r24, r28
 3b6:	60 e0       	ldi	r22, 0x00	; 0
 3b8:	41 e0       	ldi	r20, 0x01	; 1
 3ba:	20 e0       	ldi	r18, 0x00	; 0
 3bc:	00 e0       	ldi	r16, 0x00	; 0
 3be:	ee 24       	eor	r14, r14
 3c0:	e3 94       	inc	r14
 3c2:	e9 e0       	ldi	r30, 0x09	; 9
 3c4:	ce 2e       	mov	r12, r30
 3c6:	72 e3       	ldi	r23, 0x32	; 50
 3c8:	a7 2e       	mov	r10, r23
 3ca:	b1 2c       	mov	r11, r1
 3cc:	0e 94 00 00 	call	0	; 0x0 <_ZN8IoShield21toggle_address_enableEv>
 3d0:	ce 01       	movw	r24, r28
 3d2:	60 e0       	ldi	r22, 0x00	; 0
 3d4:	40 e8       	ldi	r20, 0x80	; 128
 3d6:	20 e0       	ldi	r18, 0x00	; 0
 3d8:	01 e0       	ldi	r16, 0x01	; 1
 3da:	0e 94 00 00 	call	0	; 0x0 <_ZN8IoShield21toggle_address_enableEv>
 3de:	6a ef       	ldi	r22, 0xFA	; 250
 3e0:	70 e0       	ldi	r23, 0x00	; 0
 3e2:	80 e0       	ldi	r24, 0x00	; 0
 3e4:	90 e0       	ldi	r25, 0x00	; 0
 3e6:	0e 94 00 00 	call	0	; 0x0 <_ZN8IoShield21toggle_address_enableEv>
 3ea:	00 e0       	ldi	r16, 0x00	; 0
 3ec:	10 e0       	ldi	r17, 0x00	; 0
 3ee:	ce 01       	movw	r24, r28
 3f0:	60 e0       	ldi	r22, 0x00	; 0
 3f2:	4f ef       	ldi	r20, 0xFF	; 255
 3f4:	0e 94 00 00 	call	0	; 0x0 <_ZN8IoShield21toggle_address_enableEv>
 3f8:	64 e6       	ldi	r22, 0x64	; 100
 3fa:	70 e0       	ldi	r23, 0x00	; 0
 3fc:	80 e0       	ldi	r24, 0x00	; 0
 3fe:	90 e0       	ldi	r25, 0x00	; 0
 400:	0e 94 00 00 	call	0	; 0x0 <_ZN8IoShield21toggle_address_enableEv>
 404:	ce 01       	movw	r24, r28
 406:	60 e0       	ldi	r22, 0x00	; 0
 408:	40 e0       	ldi	r20, 0x00	; 0
 40a:	0e 94 00 00 	call	0	; 0x0 <_ZN8IoShield21toggle_address_enableEv>
 40e:	64 e6       	ldi	r22, 0x64	; 100
 410:	70 e0       	ldi	r23, 0x00	; 0
 412:	80 e0       	ldi	r24, 0x00	; 0
 414:	90 e0       	ldi	r25, 0x00	; 0
 416:	0e 94 00 00 	call	0	; 0x0 <_ZN8IoShield21toggle_address_enableEv>
 41a:	0f 5f       	subi	r16, 0xFF	; 255
 41c:	1f 4f       	sbci	r17, 0xFF	; 255
 41e:	04 30       	cpi	r16, 0x04	; 4
 420:	11 05       	cpc	r17, r1
 422:	01 f4       	brne	.+0      	; 0x424 <_ZN8IoShield17test_output_portsEv+0x14a>
 424:	64 ef       	ldi	r22, 0xF4	; 244
 426:	71 e0       	ldi	r23, 0x01	; 1
 428:	80 e0       	ldi	r24, 0x00	; 0
 42a:	90 e0       	ldi	r25, 0x00	; 0
 42c:	0e 94 00 00 	call	0	; 0x0 <_ZN8IoShield21toggle_address_enableEv>
 430:	df 91       	pop	r29
 432:	cf 91       	pop	r28
 434:	1f 91       	pop	r17
 436:	0f 91       	pop	r16
 438:	ef 90       	pop	r14
 43a:	cf 90       	pop	r12
 43c:	bf 90       	pop	r11
 43e:	af 90       	pop	r10
 440:	08 95       	ret

00000442 <_ZN8IoShield11togglePin13Ev>:
 442:	0f 93       	push	r16
 444:	1f 93       	push	r17
 446:	8c 01       	movw	r16, r24
 448:	fc 01       	movw	r30, r24
 44a:	80 81       	ld	r24, Z
 44c:	61 e0       	ldi	r22, 0x01	; 1
 44e:	0e 94 00 00 	call	0	; 0x0 <_ZN8IoShield21toggle_address_enableEv>
	...
 462:	f8 01       	movw	r30, r16
 464:	80 81       	ld	r24, Z
 466:	60 e0       	ldi	r22, 0x00	; 0
 468:	0e 94 00 00 	call	0	; 0x0 <_ZN8IoShield21toggle_address_enableEv>
 46c:	1f 91       	pop	r17
 46e:	0f 91       	pop	r16
 470:	08 95       	ret

00000472 <_ZN8IoShield8setPin13Eh>:
 472:	fc 01       	movw	r30, r24
 474:	80 81       	ld	r24, Z
 476:	0e 94 00 00 	call	0	; 0x0 <_ZN8IoShield21toggle_address_enableEv>
 47a:	08 95       	ret

0000047c <_ZN8IoShieldC1Ev>:
 47c:	0f 93       	push	r16
 47e:	1f 93       	push	r17
 480:	8c 01       	movw	r16, r24
 482:	8d e0       	ldi	r24, 0x0D	; 13
 484:	f8 01       	movw	r30, r16
 486:	80 83       	st	Z, r24
 488:	61 e0       	ldi	r22, 0x01	; 1
 48a:	0e 94 00 00 	call	0	; 0x0 <_ZN8IoShield21toggle_address_enableEv>
 48e:	82 e0       	ldi	r24, 0x02	; 2
 490:	f8 01       	movw	r30, r16
 492:	81 83       	std	Z+1, r24	; 0x01
 494:	1f 91       	pop	r17
 496:	0f 91       	pop	r16
 498:	08 95       	ret

0000049a <_GLOBAL__I_IoPort>:
 49a:	80 e0       	ldi	r24, 0x00	; 0
 49c:	90 e0       	ldi	r25, 0x00	; 0
 49e:	0e 94 00 00 	call	0	; 0x0 <_ZN8IoShield21toggle_address_enableEv>
 4a2:	08 95       	ret

000004a4 <_ZN8IoShieldC2Ev>:
 4a4:	0f 93       	push	r16
 4a6:	1f 93       	push	r17
 4a8:	8c 01       	movw	r16, r24
 4aa:	8d e0       	ldi	r24, 0x0D	; 13
 4ac:	f8 01       	movw	r30, r16
 4ae:	80 83       	st	Z, r24
 4b0:	61 e0       	ldi	r22, 0x01	; 1
 4b2:	0e 94 00 00 	call	0	; 0x0 <_ZN8IoShield21toggle_address_enableEv>
 4b6:	82 e0       	ldi	r24, 0x02	; 2
 4b8:	f8 01       	movw	r30, r16
 4ba:	81 83       	std	Z+1, r24	; 0x01
 4bc:	1f 91       	pop	r17
 4be:	0f 91       	pop	r16
 4c0:	08 95       	ret
