
AqMonitor.elf:     file format elf32-avr

Sections:
Idx Name          Size      VMA       LMA       File off  Algn
  0 .data         00000486  00800100  000057ac  00005840  2**0
                  CONTENTS, ALLOC, LOAD, DATA
  1 .text         000057ac  00000000  00000000  00000094  2**1
                  CONTENTS, ALLOC, LOAD, READONLY, CODE
  2 .bss          00000237  00800586  00800586  00005cc6  2**0
                  ALLOC

Disassembly of section .text:

00000000 <.text>:
       0:	0c 94 0e 01 	jmp	0x21c	;  0x21c
       4:	0c 94 f4 19 	jmp	0x33e8	;  0x33e8
       8:	0c 94 21 1a 	jmp	0x3442	;  0x3442
       c:	0c 94 0f 12 	jmp	0x241e	;  0x241e
      10:	0c 94 33 12 	jmp	0x2466	;  0x2466
      14:	0c 94 57 12 	jmp	0x24ae	;  0x24ae
      18:	0c 94 36 01 	jmp	0x26c	;  0x26c
      1c:	0c 94 36 01 	jmp	0x26c	;  0x26c
      20:	0c 94 36 01 	jmp	0x26c	;  0x26c
      24:	0c 94 36 01 	jmp	0x26c	;  0x26c
      28:	0c 94 36 01 	jmp	0x26c	;  0x26c
      2c:	0c 94 36 01 	jmp	0x26c	;  0x26c
      30:	0c 94 36 01 	jmp	0x26c	;  0x26c
      34:	0c 94 36 01 	jmp	0x26c	;  0x26c
      38:	0c 94 36 01 	jmp	0x26c	;  0x26c
      3c:	0c 94 36 01 	jmp	0x26c	;  0x26c
      40:	0c 94 5b 22 	jmp	0x44b6	;  0x44b6
      44:	0c 94 36 01 	jmp	0x26c	;  0x26c
      48:	0c 94 2f 15 	jmp	0x2a5e	;  0x2a5e
      4c:	0c 94 36 01 	jmp	0x26c	;  0x26c
      50:	0c 94 36 01 	jmp	0x26c	;  0x26c
      54:	0c 94 36 01 	jmp	0x26c	;  0x26c
      58:	0c 94 36 01 	jmp	0x26c	;  0x26c
      5c:	0c 94 36 01 	jmp	0x26c	;  0x26c
      60:	0c 94 ec 0f 	jmp	0x1fd8	;  0x1fd8
      64:	0c 94 36 01 	jmp	0x26c	;  0x26c
      68:	fc 0c       	add	r15, r12
      6a:	23 0d       	add	r18, r3
      6c:	d5 0c       	add	r13, r5
      6e:	23 0d       	add	r18, r3
      70:	23 0d       	add	r18, r3
      72:	84 0c       	add	r8, r4
      74:	23 0d       	add	r18, r3
      76:	23 0d       	add	r18, r3
      78:	36 0c       	add	r3, r6
      7a:	23 0d       	add	r18, r3
      7c:	23 0d       	add	r18, r3
      7e:	23 0d       	add	r18, r3
      80:	dc 0b       	sbc	r29, r28
      82:	ed 0b       	sbc	r30, r29
      84:	23 0d       	add	r18, r3
      86:	23 0d       	add	r18, r3
      88:	23 0d       	add	r18, r3
      8a:	25 0c       	add	r2, r5
      8c:	23 0d       	add	r18, r3
      8e:	23 0d       	add	r18, r3
      90:	97 0c       	add	r9, r7
      92:	b9 0c       	add	r11, r9
      94:	23 0d       	add	r18, r3
      96:	03 0c       	add	r0, r3
      98:	66 0c       	add	r6, r6
      9a:	23 0d       	add	r18, r3
      9c:	23 0d       	add	r18, r3
      9e:	47 0c       	add	r4, r7
      a0:	23 0d       	add	r18, r3
      a2:	14 0c       	add	r1, r4
      a4:	cc 0c       	add	r12, r12
      a6:	23 0d       	add	r18, r3
      a8:	23 0d       	add	r18, r3
      aa:	23 0d       	add	r18, r3
      ac:	23 0d       	add	r18, r3
      ae:	23 0d       	add	r18, r3
      b0:	23 0d       	add	r18, r3
      b2:	84 0c       	add	r8, r4
      b4:	23 0d       	add	r18, r3
      b6:	23 0d       	add	r18, r3
      b8:	36 0c       	add	r3, r6
      ba:	23 0d       	add	r18, r3
      bc:	23 0d       	add	r18, r3
      be:	23 0d       	add	r18, r3
      c0:	dc 0b       	sbc	r29, r28
      c2:	ed 0b       	sbc	r30, r29
      c4:	23 0d       	add	r18, r3
      c6:	23 0d       	add	r18, r3
      c8:	23 0d       	add	r18, r3
      ca:	25 0c       	add	r2, r5
      cc:	23 0d       	add	r18, r3
      ce:	23 0d       	add	r18, r3
      d0:	97 0c       	add	r9, r7
      d2:	af 0c       	add	r10, r15
      d4:	23 0d       	add	r18, r3
      d6:	03 0c       	add	r0, r3
      d8:	66 0c       	add	r6, r6
      da:	23 0d       	add	r18, r3
      dc:	23 0d       	add	r18, r3
      de:	55 0c       	add	r5, r5
      e0:	23 0d       	add	r18, r3
      e2:	14 0c       	add	r1, r4
      e4:	c3 0c       	add	r12, r3
      e6:	00 c2       	rjmp	.+1024   	;  0x4e8
      e8:	01 00       	.word	0x0001	; ????
      ea:	01 00       	.word	0x0001	; ????
      ec:	11 00       	.word	0x0011	; ????
      ee:	11 00       	.word	0x0011	; ????
      f0:	0c 00       	.word	0x000c	; ????
      f2:	00 e1       	ldi	r16, 0x10	; 16
      f4:	00 00       	nop
      f6:	0a 00       	.word	0x000a	; ????
      f8:	25 00       	.word	0x0025	; ????
      fa:	25 00       	.word	0x0025	; ????
      fc:	21 00       	.word	0x0021	; ????
      fe:	00 96       	adiw	r24, 0x00	; 0
     100:	00 00       	nop
     102:	19 00       	.word	0x0019	; ????
     104:	39 00       	.word	0x0039	; ????
     106:	39 00       	.word	0x0039	; ????
     108:	36 00       	.word	0x0036	; ????
     10a:	12 7a       	andi	r17, 0xA2	; 162
     10c:	00 00       	nop
     10e:	1f 00       	.word	0x001f	; ????
     110:	46 00       	.word	0x0046	; ????
     112:	46 00       	.word	0x0046	; ????
     114:	44 00       	.word	0x0044	; ????
     116:	80 70       	andi	r24, 0x00	; 0
     118:	00 00       	nop
     11a:	22 00       	.word	0x0022	; ????
     11c:	4d 00       	.word	0x004d	; ????
     11e:	4d 00       	.word	0x004d	; ????
     120:	4a 00       	.word	0x004a	; ????
     122:	00 4b       	sbci	r16, 0xB0	; 176
     124:	00 00       	nop
     126:	36 00       	.word	0x0036	; ????
     128:	75 00       	.word	0x0075	; ????
     12a:	75 00       	.word	0x0075	; ????
     12c:	72 00       	.word	0x0072	; ????
     12e:	40 38       	cpi	r20, 0x80	; 128
     130:	00 00       	nop
     132:	4a 00       	.word	0x004a	; ????
     134:	9c 00       	.word	0x009c	; ????
     136:	9c 00       	.word	0x009c	; ????
     138:	99 00       	.word	0x0099	; ????
     13a:	80 25       	eor	r24, r0
     13c:	00 00       	nop
     13e:	72 00       	.word	0x0072	; ????
     140:	ec 00       	.word	0x00ec	; ????
     142:	ec 00       	.word	0x00ec	; ????
     144:	e9 00       	.word	0x00e9	; ????
     146:	c0 12       	cpse	r12, r16
     148:	00 00       	nop
     14a:	e9 00       	.word	0x00e9	; ????
     14c:	da 01       	movw	r26, r20
     14e:	da 01       	movw	r26, r20
     150:	d7 01       	movw	r26, r14
     152:	60 09       	sbc	r22, r0
     154:	00 00       	nop
     156:	d7 01       	movw	r26, r14
     158:	b6 03       	fmuls	r19, r22
     15a:	b6 03       	fmuls	r19, r22
     15c:	b3 03       	fmuls	r19, r19
     15e:	b0 04       	cpc	r11, r0
     160:	00 00       	nop
     162:	b3 03       	fmuls	r19, r19
     164:	6e 07       	cpc	r22, r30
     166:	6e 07       	cpc	r22, r30
     168:	6b 07       	cpc	r22, r27
     16a:	2c 01       	movw	r4, r24
     16c:	00 00       	nop
     16e:	dc 0e       	add	r13, r28
     170:	c1 1d       	adc	r28, r1
     172:	c1 1d       	adc	r28, r1
     174:	be 1d       	adc	r27, r14
     176:	00 00       	nop
     178:	00 00       	nop
     17a:	24 00       	.word	0x0024	; ????
     17c:	27 00       	.word	0x0027	; ????
     17e:	2a 00       	.word	0x002a	; ????
     180:	00 00       	nop
     182:	00 00       	nop
     184:	25 00       	.word	0x0025	; ????
     186:	28 00       	.word	0x0028	; ????
     188:	2b 00       	.word	0x002b	; ????
     18a:	00 00       	nop
     18c:	00 00       	nop
     18e:	23 00       	.word	0x0023	; ????
     190:	26 00       	.word	0x0026	; ????
     192:	29 00       	.word	0x0029	; ????
     194:	04 04       	cpc	r0, r4
     196:	04 04       	cpc	r0, r4
     198:	04 04       	cpc	r0, r4
     19a:	04 04       	cpc	r0, r4
     19c:	02 02       	muls	r16, r18
     19e:	02 02       	muls	r16, r18
     1a0:	02 02       	muls	r16, r18
     1a2:	03 03       	mulsu	r16, r19
     1a4:	03 03       	mulsu	r16, r19
     1a6:	03 03       	mulsu	r16, r19
     1a8:	01 02       	muls	r16, r17
     1aa:	04 08       	sbc	r0, r4
     1ac:	10 20       	and	r1, r0
     1ae:	40 80       	ld	r4, Z
     1b0:	01 02       	muls	r16, r17
     1b2:	04 08       	sbc	r0, r4
     1b4:	10 20       	and	r1, r0
     1b6:	01 02       	muls	r16, r17
     1b8:	04 08       	sbc	r0, r4
     1ba:	10 20       	and	r1, r0
     1bc:	00 00       	nop
     1be:	00 07       	cpc	r16, r16
     1c0:	00 02       	muls	r16, r16
     1c2:	01 00       	.word	0x0001	; ????
     1c4:	00 03       	mulsu	r16, r16
     1c6:	04 06       	cpc	r0, r20
	...
     1d0:	49 4e       	sbci	r20, 0xE9	; 233
     1d2:	46 49       	sbci	r20, 0x96	; 150
     1d4:	4e 49       	sbci	r20, 0x9E	; 158
     1d6:	54 59       	subi	r21, 0x94	; 148
     1d8:	4e 41       	sbci	r20, 0x1E	; 30
     1da:	4e cd       	rjmp	.-1380   	;  0xfffffc78
     1dc:	cc cc       	rjmp	.-1640   	;  0xfffffb76
     1de:	3d 0a       	sbc	r3, r29
     1e0:	d7 23       	and	r29, r23
     1e2:	3c 17       	cp	r19, r28
     1e4:	b7 d1       	rcall	.+878    	;  0x554
     1e6:	38 77       	andi	r19, 0x78	; 120
     1e8:	cc 2b       	or	r28, r28
     1ea:	32 95       	swap	r19
     1ec:	95 e6       	ldi	r25, 0x65	; 101
     1ee:	24 1f       	adc	r18, r20
     1f0:	b1 4f       	sbci	r27, 0xF1	; 241
     1f2:	0a 00       	.word	0x000a	; ????
     1f4:	00 20       	and	r0, r0
     1f6:	41 00       	.word	0x0041	; ????
     1f8:	00 c8       	rjmp	.-4096   	;  0xfffff1fa
     1fa:	42 00       	.word	0x0042	; ????
     1fc:	40 1c       	adc	r4, r0
     1fe:	46 20       	and	r4, r6
     200:	bc be       	out	0x3c, r11	; 60
     202:	4c ca       	rjmp	.-2920   	;  0xfffff69c
     204:	1b 0e       	add	r1, r27
     206:	5a ae       	std	Y+58, r5	; 0x3a
     208:	c5 9d       	mul	r28, r5
     20a:	74 00       	.word	0x0074	; ????
     20c:	a9 03       	fmulsu	r18, r17
     20e:	04 06       	cpc	r0, r20
     210:	01 09       	sbc	r16, r1
     212:	ad 0a       	sbc	r10, r29
     214:	87 0e       	add	r8, r23
     216:	b1 16       	cp	r11, r17
     218:	a2 03       	fmuls	r18, r18
     21a:	fd 05       	cpc	r31, r13
     21c:	11 24       	eor	r1, r1
     21e:	1f be       	out	0x3f, r1	; 63
     220:	cf ef       	ldi	r28, 0xFF	; 255
     222:	d8 e0       	ldi	r29, 0x08	; 8
     224:	de bf       	out	0x3e, r29	; 62
     226:	cd bf       	out	0x3d, r28	; 61
     228:	15 e0       	ldi	r17, 0x05	; 5
     22a:	a0 e0       	ldi	r26, 0x00	; 0
     22c:	b1 e0       	ldi	r27, 0x01	; 1
     22e:	ec ea       	ldi	r30, 0xAC	; 172
     230:	f7 e5       	ldi	r31, 0x57	; 87
     232:	02 c0       	rjmp	.+4      	;  0x238
     234:	05 90       	lpm	r0, Z+
     236:	0d 92       	st	X+, r0
     238:	a6 38       	cpi	r26, 0x86	; 134
     23a:	b1 07       	cpc	r27, r17
     23c:	d9 f7       	brne	.-10     	;  0x234
     23e:	17 e0       	ldi	r17, 0x07	; 7
     240:	a6 e8       	ldi	r26, 0x86	; 134
     242:	b5 e0       	ldi	r27, 0x05	; 5
     244:	01 c0       	rjmp	.+2      	;  0x248
     246:	1d 92       	st	X+, r1
     248:	ad 3b       	cpi	r26, 0xBD	; 189
     24a:	b1 07       	cpc	r27, r17
     24c:	e1 f7       	brne	.-8      	;  0x246
     24e:	12 e0       	ldi	r17, 0x02	; 2
     250:	c8 e1       	ldi	r28, 0x18	; 24
     252:	d2 e0       	ldi	r29, 0x02	; 2
     254:	04 c0       	rjmp	.+8      	;  0x25e
     256:	22 97       	sbiw	r28, 0x02	; 2
     258:	fe 01       	movw	r30, r28
     25a:	0e 94 ed 26 	call	0x4dda	;  0x4dda
     25e:	cc 30       	cpi	r28, 0x0C	; 12
     260:	d1 07       	cpc	r29, r17
     262:	c9 f7       	brne	.-14     	;  0x256
     264:	0e 94 a1 0d 	call	0x1b42	;  0x1b42
     268:	0c 94 c9 2b 	jmp	0x5792	;  0x5792
     26c:	0c 94 00 00 	jmp	0	;  0x0
     270:	ff 92       	push	r15
     272:	0f 93       	push	r16
     274:	1f 93       	push	r17
     276:	18 2f       	mov	r17, r24
     278:	09 2f       	mov	r16, r25
     27a:	f6 2e       	mov	r15, r22
     27c:	6e ef       	ldi	r22, 0xFE	; 254
     27e:	70 e0       	ldi	r23, 0x00	; 0
     280:	40 e0       	ldi	r20, 0x00	; 0
     282:	50 e0       	ldi	r21, 0x00	; 0
     284:	0e 94 54 18 	call	0x30a8	;  0x30a8
     288:	81 2f       	mov	r24, r17
     28a:	90 2f       	mov	r25, r16
     28c:	6f 2d       	mov	r22, r15
     28e:	40 e0       	ldi	r20, 0x00	; 0
     290:	50 e0       	ldi	r21, 0x00	; 0
     292:	0e 94 0c 18 	call	0x3018	;  0x3018
     296:	1f 91       	pop	r17
     298:	0f 91       	pop	r16
     29a:	ff 90       	pop	r15
     29c:	08 95       	ret
     29e:	62 e7       	ldi	r22, 0x72	; 114
     2a0:	0e 94 38 01 	call	0x270	;  0x270
     2a4:	08 95       	ret
     2a6:	61 e7       	ldi	r22, 0x71	; 113
     2a8:	0e 94 38 01 	call	0x270	;  0x270
     2ac:	08 95       	ret
     2ae:	60 e7       	ldi	r22, 0x70	; 112
     2b0:	0e 94 38 01 	call	0x270	;  0x270
     2b4:	08 95       	ret
     2b6:	9c 01       	movw	r18, r24
     2b8:	86 2f       	mov	r24, r22
     2ba:	85 55       	subi	r24, 0x55	; 85
     2bc:	82 30       	cpi	r24, 0x02	; 2
     2be:	18 f4       	brcc	.+6      	;  0x2c6
     2c0:	c9 01       	movw	r24, r18
     2c2:	0e 94 38 01 	call	0x270	;  0x270
     2c6:	08 95       	ret
     2c8:	61 30       	cpi	r22, 0x01	; 1
     2ca:	11 f4       	brne	.+4      	;  0x2d0
     2cc:	6b e4       	ldi	r22, 0x4B	; 75
     2ce:	01 c0       	rjmp	.+2      	;  0x2d2
     2d0:	6c e4       	ldi	r22, 0x4C	; 76
     2d2:	0e 94 38 01 	call	0x270	;  0x270
     2d6:	08 95       	ret
     2d8:	61 30       	cpi	r22, 0x01	; 1
     2da:	11 f4       	brne	.+4      	;  0x2e0
     2dc:	67 e4       	ldi	r22, 0x47	; 71
     2de:	01 c0       	rjmp	.+2      	;  0x2e2
     2e0:	68 e4       	ldi	r22, 0x48	; 72
     2e2:	0e 94 38 01 	call	0x270	;  0x270
     2e6:	08 95       	ret
     2e8:	61 30       	cpi	r22, 0x01	; 1
     2ea:	11 f4       	brne	.+4      	;  0x2f0
     2ec:	61 e4       	ldi	r22, 0x41	; 65
     2ee:	01 c0       	rjmp	.+2      	;  0x2f2
     2f0:	62 e4       	ldi	r22, 0x42	; 66
     2f2:	0e 94 38 01 	call	0x270	;  0x270
     2f6:	08 95       	ret
     2f8:	9c 01       	movw	r18, r24
     2fa:	86 2f       	mov	r24, r22
     2fc:	89 54       	subi	r24, 0x49	; 73
     2fe:	82 30       	cpi	r24, 0x02	; 2
     300:	18 f4       	brcc	.+6      	;  0x308
     302:	c9 01       	movw	r24, r18
     304:	0e 94 38 01 	call	0x270	;  0x270
     308:	08 95       	ret
     30a:	61 e5       	ldi	r22, 0x51	; 81
     30c:	0e 94 38 01 	call	0x270	;  0x270
     310:	08 95       	ret
     312:	66 e4       	ldi	r22, 0x46	; 70
     314:	0e 94 38 01 	call	0x270	;  0x270
     318:	08 95       	ret
     31a:	ff 92       	push	r15
     31c:	0f 93       	push	r16
     31e:	1f 93       	push	r17
     320:	8c 01       	movw	r16, r24
     322:	f6 2e       	mov	r15, r22
     324:	62 e6       	ldi	r22, 0x62	; 98
     326:	0e 94 38 01 	call	0x270	;  0x270
     32a:	c8 01       	movw	r24, r16
     32c:	6f 2d       	mov	r22, r15
     32e:	40 e0       	ldi	r20, 0x00	; 0
     330:	50 e0       	ldi	r21, 0x00	; 0
     332:	0e 94 0c 18 	call	0x3018	;  0x3018
     336:	1f 91       	pop	r17
     338:	0f 91       	pop	r16
     33a:	ff 90       	pop	r15
     33c:	08 95       	ret
     33e:	ff 92       	push	r15
     340:	0f 93       	push	r16
     342:	1f 93       	push	r17
     344:	8c 01       	movw	r16, r24
     346:	f6 2e       	mov	r15, r22
     348:	61 e6       	ldi	r22, 0x61	; 97
     34a:	0e 94 38 01 	call	0x270	;  0x270
     34e:	c8 01       	movw	r24, r16
     350:	6f 2d       	mov	r22, r15
     352:	40 e0       	ldi	r20, 0x00	; 0
     354:	50 e0       	ldi	r21, 0x00	; 0
     356:	0e 94 0c 18 	call	0x3018	;  0x3018
     35a:	1f 91       	pop	r17
     35c:	0f 91       	pop	r16
     35e:	ff 90       	pop	r15
     360:	08 95       	ret
     362:	ff 92       	push	r15
     364:	0f 93       	push	r16
     366:	1f 93       	push	r17
     368:	8c 01       	movw	r16, r24
     36a:	f6 2e       	mov	r15, r22
     36c:	65 e4       	ldi	r22, 0x45	; 69
     36e:	0e 94 38 01 	call	0x270	;  0x270
     372:	c8 01       	movw	r24, r16
     374:	6f 2d       	mov	r22, r15
     376:	40 e0       	ldi	r20, 0x00	; 0
     378:	50 e0       	ldi	r21, 0x00	; 0
     37a:	0e 94 0c 18 	call	0x3018	;  0x3018
     37e:	1f 91       	pop	r17
     380:	0f 91       	pop	r16
     382:	ff 90       	pop	r15
     384:	08 95       	ret
     386:	ff 92       	push	r15
     388:	0f 93       	push	r16
     38a:	1f 93       	push	r17
     38c:	8c 01       	movw	r16, r24
     38e:	f6 2e       	mov	r15, r22
     390:	62 e5       	ldi	r22, 0x52	; 82
     392:	0e 94 38 01 	call	0x270	;  0x270
     396:	c8 01       	movw	r24, r16
     398:	6f 2d       	mov	r22, r15
     39a:	40 e0       	ldi	r20, 0x00	; 0
     39c:	50 e0       	ldi	r21, 0x00	; 0
     39e:	0e 94 0c 18 	call	0x3018	;  0x3018
     3a2:	1f 91       	pop	r17
     3a4:	0f 91       	pop	r16
     3a6:	ff 90       	pop	r15
     3a8:	08 95       	ret
     3aa:	ff 92       	push	r15
     3ac:	0f 93       	push	r16
     3ae:	1f 93       	push	r17
     3b0:	8c 01       	movw	r16, r24
     3b2:	f6 2e       	mov	r15, r22
     3b4:	63 e5       	ldi	r22, 0x53	; 83
     3b6:	0e 94 38 01 	call	0x270	;  0x270
     3ba:	c8 01       	movw	r24, r16
     3bc:	6f 2d       	mov	r22, r15
     3be:	40 e0       	ldi	r20, 0x00	; 0
     3c0:	50 e0       	ldi	r21, 0x00	; 0
     3c2:	0e 94 0c 18 	call	0x3018	;  0x3018
     3c6:	1f 91       	pop	r17
     3c8:	0f 91       	pop	r16
     3ca:	ff 90       	pop	r15
     3cc:	08 95       	ret
     3ce:	df 92       	push	r13
     3d0:	ef 92       	push	r14
     3d2:	ff 92       	push	r15
     3d4:	0f 93       	push	r16
     3d6:	1f 93       	push	r17
     3d8:	18 2f       	mov	r17, r24
     3da:	09 2f       	mov	r16, r25
     3dc:	f6 2e       	mov	r15, r22
     3de:	e4 2e       	mov	r14, r20
     3e0:	d2 2e       	mov	r13, r18
     3e2:	66 e0       	ldi	r22, 0x06	; 6
     3e4:	0e 94 b1 01 	call	0x362	;  0x362
     3e8:	89 e0       	ldi	r24, 0x09	; 9
     3ea:	8f 15       	cp	r24, r15
     3ec:	30 f0       	brcs	.+12     	;  0x3fa
     3ee:	81 2f       	mov	r24, r17
     3f0:	90 2f       	mov	r25, r16
     3f2:	60 e0       	ldi	r22, 0x00	; 0
     3f4:	71 e0       	ldi	r23, 0x01	; 1
     3f6:	0e 94 22 17 	call	0x2e44	;  0x2e44
     3fa:	81 2f       	mov	r24, r17
     3fc:	90 2f       	mov	r25, r16
     3fe:	6f 2d       	mov	r22, r15
     400:	4a e0       	ldi	r20, 0x0A	; 10
     402:	50 e0       	ldi	r21, 0x00	; 0
     404:	0e 94 0c 18 	call	0x3018	;  0x3018
     408:	81 2f       	mov	r24, r17
     40a:	90 2f       	mov	r25, r16
     40c:	62 e0       	ldi	r22, 0x02	; 2
     40e:	71 e0       	ldi	r23, 0x01	; 1
     410:	0e 94 22 17 	call	0x2e44	;  0x2e44
     414:	89 e0       	ldi	r24, 0x09	; 9
     416:	8e 15       	cp	r24, r14
     418:	30 f0       	brcs	.+12     	;  0x426
     41a:	81 2f       	mov	r24, r17
     41c:	90 2f       	mov	r25, r16
     41e:	60 e0       	ldi	r22, 0x00	; 0
     420:	71 e0       	ldi	r23, 0x01	; 1
     422:	0e 94 22 17 	call	0x2e44	;  0x2e44
     426:	81 2f       	mov	r24, r17
     428:	90 2f       	mov	r25, r16
     42a:	6e 2d       	mov	r22, r14
     42c:	4a e0       	ldi	r20, 0x0A	; 10
     42e:	50 e0       	ldi	r21, 0x00	; 0
     430:	0e 94 0c 18 	call	0x3018	;  0x3018
     434:	81 2f       	mov	r24, r17
     436:	90 2f       	mov	r25, r16
     438:	64 e0       	ldi	r22, 0x04	; 4
     43a:	71 e0       	ldi	r23, 0x01	; 1
     43c:	0e 94 22 17 	call	0x2e44	;  0x2e44
     440:	89 e0       	ldi	r24, 0x09	; 9
     442:	8d 15       	cp	r24, r13
     444:	30 f0       	brcs	.+12     	;  0x452
     446:	81 2f       	mov	r24, r17
     448:	90 2f       	mov	r25, r16
     44a:	60 e0       	ldi	r22, 0x00	; 0
     44c:	71 e0       	ldi	r23, 0x01	; 1
     44e:	0e 94 22 17 	call	0x2e44	;  0x2e44
     452:	81 2f       	mov	r24, r17
     454:	90 2f       	mov	r25, r16
     456:	6d 2d       	mov	r22, r13
     458:	4a e0       	ldi	r20, 0x0A	; 10
     45a:	50 e0       	ldi	r21, 0x00	; 0
     45c:	0e 94 0c 18 	call	0x3018	;  0x3018
     460:	1f 91       	pop	r17
     462:	0f 91       	pop	r16
     464:	ff 90       	pop	r15
     466:	ef 90       	pop	r14
     468:	df 90       	pop	r13
     46a:	08 95       	ret
     46c:	bf 92       	push	r11
     46e:	cf 92       	push	r12
     470:	df 92       	push	r13
     472:	ef 92       	push	r14
     474:	ff 92       	push	r15
     476:	0f 93       	push	r16
     478:	1f 93       	push	r17
     47a:	18 2f       	mov	r17, r24
     47c:	f9 2e       	mov	r15, r25
     47e:	d6 2e       	mov	r13, r22
     480:	c4 2e       	mov	r12, r20
     482:	b2 2e       	mov	r11, r18
     484:	66 e4       	ldi	r22, 0x46	; 70
     486:	0e 94 b1 01 	call	0x362	;  0x362
     48a:	89 e0       	ldi	r24, 0x09	; 9
     48c:	8d 15       	cp	r24, r13
     48e:	30 f0       	brcs	.+12     	;  0x49c
     490:	81 2f       	mov	r24, r17
     492:	9f 2d       	mov	r25, r15
     494:	60 e0       	ldi	r22, 0x00	; 0
     496:	71 e0       	ldi	r23, 0x01	; 1
     498:	0e 94 22 17 	call	0x2e44	;  0x2e44
     49c:	81 2f       	mov	r24, r17
     49e:	9f 2d       	mov	r25, r15
     4a0:	6d 2d       	mov	r22, r13
     4a2:	4a e0       	ldi	r20, 0x0A	; 10
     4a4:	50 e0       	ldi	r21, 0x00	; 0
     4a6:	0e 94 0c 18 	call	0x3018	;  0x3018
     4aa:	81 2f       	mov	r24, r17
     4ac:	9f 2d       	mov	r25, r15
     4ae:	68 e0       	ldi	r22, 0x08	; 8
     4b0:	71 e0       	ldi	r23, 0x01	; 1
     4b2:	0e 94 22 17 	call	0x2e44	;  0x2e44
     4b6:	89 e0       	ldi	r24, 0x09	; 9
     4b8:	8c 15       	cp	r24, r12
     4ba:	30 f0       	brcs	.+12     	;  0x4c8
     4bc:	81 2f       	mov	r24, r17
     4be:	9f 2d       	mov	r25, r15
     4c0:	60 e0       	ldi	r22, 0x00	; 0
     4c2:	71 e0       	ldi	r23, 0x01	; 1
     4c4:	0e 94 22 17 	call	0x2e44	;  0x2e44
     4c8:	81 2f       	mov	r24, r17
     4ca:	9f 2d       	mov	r25, r15
     4cc:	6c 2d       	mov	r22, r12
     4ce:	4a e0       	ldi	r20, 0x0A	; 10
     4d0:	50 e0       	ldi	r21, 0x00	; 0
     4d2:	0e 94 0c 18 	call	0x3018	;  0x3018
     4d6:	81 2f       	mov	r24, r17
     4d8:	9f 2d       	mov	r25, r15
     4da:	68 e0       	ldi	r22, 0x08	; 8
     4dc:	71 e0       	ldi	r23, 0x01	; 1
     4de:	0e 94 22 17 	call	0x2e44	;  0x2e44
     4e2:	89 e0       	ldi	r24, 0x09	; 9
     4e4:	8b 15       	cp	r24, r11
     4e6:	30 f0       	brcs	.+12     	;  0x4f4
     4e8:	81 2f       	mov	r24, r17
     4ea:	9f 2d       	mov	r25, r15
     4ec:	60 e0       	ldi	r22, 0x00	; 0
     4ee:	71 e0       	ldi	r23, 0x01	; 1
     4f0:	0e 94 22 17 	call	0x2e44	;  0x2e44
     4f4:	81 2f       	mov	r24, r17
     4f6:	9f 2d       	mov	r25, r15
     4f8:	6b 2d       	mov	r22, r11
     4fa:	4a e0       	ldi	r20, 0x0A	; 10
     4fc:	50 e0       	ldi	r21, 0x00	; 0
     4fe:	0e 94 0c 18 	call	0x3018	;  0x3018
     502:	00 23       	and	r16, r16
     504:	61 f0       	breq	.+24     	;  0x51e
     506:	ee 20       	and	r14, r14
     508:	29 f0       	breq	.+10     	;  0x514
     50a:	81 2f       	mov	r24, r17
     50c:	9f 2d       	mov	r25, r15
     50e:	6a e0       	ldi	r22, 0x0A	; 10
     510:	71 e0       	ldi	r23, 0x01	; 1
     512:	09 c0       	rjmp	.+18     	;  0x526
     514:	81 2f       	mov	r24, r17
     516:	9f 2d       	mov	r25, r15
     518:	6e e0       	ldi	r22, 0x0E	; 14
     51a:	71 e0       	ldi	r23, 0x01	; 1
     51c:	04 c0       	rjmp	.+8      	;  0x526
     51e:	81 2f       	mov	r24, r17
     520:	9f 2d       	mov	r25, r15
     522:	62 e1       	ldi	r22, 0x12	; 18
     524:	71 e0       	ldi	r23, 0x01	; 1
     526:	0e 94 22 17 	call	0x2e44	;  0x2e44
     52a:	1f 91       	pop	r17
     52c:	0f 91       	pop	r16
     52e:	ff 90       	pop	r15
     530:	ef 90       	pop	r14
     532:	df 90       	pop	r13
     534:	cf 90       	pop	r12
     536:	bf 90       	pop	r11
     538:	08 95       	ret
     53a:	cf 92       	push	r12
     53c:	df 92       	push	r13
     53e:	ef 92       	push	r14
     540:	ff 92       	push	r15
     542:	0f 93       	push	r16
     544:	1f 93       	push	r17
     546:	6c 01       	movw	r12, r24
     548:	7a 01       	movw	r14, r20
     54a:	8b 01       	movw	r16, r22
     54c:	6a e5       	ldi	r22, 0x5A	; 90
     54e:	0e 94 b1 01 	call	0x362	;  0x362
     552:	c6 01       	movw	r24, r12
     554:	b8 01       	movw	r22, r16
     556:	a7 01       	movw	r20, r14
     558:	21 e0       	ldi	r18, 0x01	; 1
     55a:	30 e0       	ldi	r19, 0x00	; 0
     55c:	0e 94 b0 19 	call	0x3360	;  0x3360
     560:	1f 91       	pop	r17
     562:	0f 91       	pop	r16
     564:	ff 90       	pop	r15
     566:	ef 90       	pop	r14
     568:	df 90       	pop	r13
     56a:	cf 90       	pop	r12
     56c:	08 95       	ret
     56e:	cf 92       	push	r12
     570:	df 92       	push	r13
     572:	ef 92       	push	r14
     574:	ff 92       	push	r15
     576:	0f 93       	push	r16
     578:	1f 93       	push	r17
     57a:	6c 01       	movw	r12, r24
     57c:	7a 01       	movw	r14, r20
     57e:	8b 01       	movw	r16, r22
     580:	6a e1       	ldi	r22, 0x1A	; 26
     582:	0e 94 b1 01 	call	0x362	;  0x362
     586:	c6 01       	movw	r24, r12
     588:	b8 01       	movw	r22, r16
     58a:	a7 01       	movw	r20, r14
     58c:	21 e0       	ldi	r18, 0x01	; 1
     58e:	30 e0       	ldi	r19, 0x00	; 0
     590:	0e 94 b0 19 	call	0x3360	;  0x3360
     594:	1f 91       	pop	r17
     596:	0f 91       	pop	r16
     598:	ff 90       	pop	r15
     59a:	ef 90       	pop	r14
     59c:	df 90       	pop	r13
     59e:	cf 90       	pop	r12
     5a0:	08 95       	ret
     5a2:	ef 92       	push	r14
     5a4:	ff 92       	push	r15
     5a6:	0f 93       	push	r16
     5a8:	1f 93       	push	r17
     5aa:	18 2f       	mov	r17, r24
     5ac:	09 2f       	mov	r16, r25
     5ae:	86 e9       	ldi	r24, 0x96	; 150
     5b0:	e8 2e       	mov	r14, r24
     5b2:	87 e0       	ldi	r24, 0x07	; 7
     5b4:	f8 2e       	mov	r15, r24
     5b6:	c7 01       	movw	r24, r14
     5b8:	66 e1       	ldi	r22, 0x16	; 22
     5ba:	71 e0       	ldi	r23, 0x01	; 1
     5bc:	0e 94 ce 18 	call	0x319c	;  0x319c
     5c0:	81 2f       	mov	r24, r17
     5c2:	90 2f       	mov	r25, r16
     5c4:	0e 94 67 11 	call	0x22ce	;  0x22ce
     5c8:	81 2f       	mov	r24, r17
     5ca:	90 2f       	mov	r25, r16
     5cc:	40 e8       	ldi	r20, 0x80	; 128
     5ce:	55 e2       	ldi	r21, 0x25	; 37
     5d0:	60 e0       	ldi	r22, 0x00	; 0
     5d2:	70 e0       	ldi	r23, 0x00	; 0
     5d4:	0e 94 87 12 	call	0x250e	;  0x250e
     5d8:	81 2f       	mov	r24, r17
     5da:	90 2f       	mov	r25, r16
     5dc:	60 e0       	ldi	r22, 0x00	; 0
     5de:	0e 94 74 01 	call	0x2e8	;  0x2e8
     5e2:	81 2f       	mov	r24, r17
     5e4:	90 2f       	mov	r25, r16
     5e6:	0e 94 85 01 	call	0x30a	;  0x30a
     5ea:	81 2f       	mov	r24, r17
     5ec:	90 2f       	mov	r25, r16
     5ee:	60 e0       	ldi	r22, 0x00	; 0
     5f0:	0e 94 6c 01 	call	0x2d8	;  0x2d8
     5f4:	81 2f       	mov	r24, r17
     5f6:	90 2f       	mov	r25, r16
     5f8:	60 e0       	ldi	r22, 0x00	; 0
     5fa:	0e 94 64 01 	call	0x2c8	;  0x2c8
     5fe:	81 2f       	mov	r24, r17
     600:	90 2f       	mov	r25, r16
     602:	60 e0       	ldi	r22, 0x00	; 0
     604:	0e 94 b1 01 	call	0x362	;  0x362
     608:	81 2f       	mov	r24, r17
     60a:	90 2f       	mov	r25, r16
     60c:	67 e2       	ldi	r22, 0x27	; 39
     60e:	71 e0       	ldi	r23, 0x01	; 1
     610:	0e 94 22 17 	call	0x2e44	;  0x2e44
     614:	81 2f       	mov	r24, r17
     616:	90 2f       	mov	r25, r16
     618:	60 e4       	ldi	r22, 0x40	; 64
     61a:	0e 94 b1 01 	call	0x362	;  0x362
     61e:	81 2f       	mov	r24, r17
     620:	90 2f       	mov	r25, r16
     622:	6d e2       	ldi	r22, 0x2D	; 45
     624:	71 e0       	ldi	r23, 0x01	; 1
     626:	0e 94 22 17 	call	0x2e44	;  0x2e44
     62a:	81 2f       	mov	r24, r17
     62c:	90 2f       	mov	r25, r16
     62e:	64 e1       	ldi	r22, 0x14	; 20
     630:	0e 94 b1 01 	call	0x362	;  0x362
     634:	81 2f       	mov	r24, r17
     636:	90 2f       	mov	r25, r16
     638:	63 e3       	ldi	r22, 0x33	; 51
     63a:	71 e0       	ldi	r23, 0x01	; 1
     63c:	0e 94 22 17 	call	0x2e44	;  0x2e44
     640:	81 2f       	mov	r24, r17
     642:	90 2f       	mov	r25, r16
     644:	64 e5       	ldi	r22, 0x54	; 84
     646:	0e 94 b1 01 	call	0x362	;  0x362
     64a:	81 2f       	mov	r24, r17
     64c:	90 2f       	mov	r25, r16
     64e:	69 e3       	ldi	r22, 0x39	; 57
     650:	71 e0       	ldi	r23, 0x01	; 1
     652:	0e 94 22 17 	call	0x2e44	;  0x2e44
     656:	81 2f       	mov	r24, r17
     658:	90 2f       	mov	r25, r16
     65a:	61 e0       	ldi	r22, 0x01	; 1
     65c:	0e 94 74 01 	call	0x2e8	;  0x2e8
     660:	c7 01       	movw	r24, r14
     662:	6f e3       	ldi	r22, 0x3F	; 63
     664:	71 e0       	ldi	r23, 0x01	; 1
     666:	0e 94 ce 18 	call	0x319c	;  0x319c
     66a:	1f 91       	pop	r17
     66c:	0f 91       	pop	r16
     66e:	ff 90       	pop	r15
     670:	ef 90       	pop	r14
     672:	08 95       	ret
     674:	ef 92       	push	r14
     676:	ff 92       	push	r15
     678:	0f 93       	push	r16
     67a:	1f 93       	push	r17
     67c:	df 93       	push	r29
     67e:	cf 93       	push	r28
     680:	cd b7       	in	r28, 0x3d	; 61
     682:	de b7       	in	r29, 0x3e	; 62
     684:	62 97       	sbiw	r28, 0x12	; 18
     686:	0f b6       	in	r0, 0x3f	; 63
     688:	f8 94       	cli
     68a:	de bf       	out	0x3e, r29	; 62
     68c:	0f be       	out	0x3f, r0	; 63
     68e:	cd bf       	out	0x3d, r28	; 61
     690:	8c 01       	movw	r16, r24
     692:	0e 94 81 12 	call	0x2502	;  0x2502
     696:	7e 01       	movw	r14, r28
     698:	08 94       	sec
     69a:	e1 1c       	adc	r14, r1
     69c:	f1 1c       	adc	r15, r1
     69e:	c7 01       	movw	r24, r14
     6a0:	63 e0       	ldi	r22, 0x03	; 3
     6a2:	44 e0       	ldi	r20, 0x04	; 4
     6a4:	20 e0       	ldi	r18, 0x00	; 0
     6a6:	0e 94 e7 14 	call	0x29ce	;  0x29ce
     6aa:	8b 81       	ldd	r24, Y+3	; 0x03
     6ac:	f8 01       	movw	r30, r16
     6ae:	82 83       	std	Z+2, r24	; 0x02
     6b0:	8c 81       	ldd	r24, Y+4	; 0x04
     6b2:	83 83       	std	Z+3, r24	; 0x03
     6b4:	8d 81       	ldd	r24, Y+5	; 0x05
     6b6:	9e 81       	ldd	r25, Y+6	; 0x06
     6b8:	95 83       	std	Z+5, r25	; 0x05
     6ba:	84 83       	std	Z+4, r24	; 0x04
     6bc:	8f 81       	ldd	r24, Y+7	; 0x07
     6be:	86 83       	std	Z+6, r24	; 0x06
     6c0:	88 85       	ldd	r24, Y+8	; 0x08
     6c2:	99 85       	ldd	r25, Y+9	; 0x09
     6c4:	90 87       	std	Z+8, r25	; 0x08
     6c6:	87 83       	std	Z+7, r24	; 0x07
     6c8:	8a 85       	ldd	r24, Y+10	; 0x0a
     6ca:	9b 85       	ldd	r25, Y+11	; 0x0b
     6cc:	92 87       	std	Z+10, r25	; 0x0a
     6ce:	81 87       	std	Z+9, r24	; 0x09
     6d0:	8c 85       	ldd	r24, Y+12	; 0x0c
     6d2:	9d 85       	ldd	r25, Y+13	; 0x0d
     6d4:	94 87       	std	Z+12, r25	; 0x0c
     6d6:	83 87       	std	Z+11, r24	; 0x0b
     6d8:	8e 85       	ldd	r24, Y+14	; 0x0e
     6da:	9f 85       	ldd	r25, Y+15	; 0x0f
     6dc:	96 87       	std	Z+14, r25	; 0x0e
     6de:	85 87       	std	Z+13, r24	; 0x0d
     6e0:	88 89       	ldd	r24, Y+16	; 0x10
     6e2:	99 89       	ldd	r25, Y+17	; 0x11
     6e4:	90 8b       	std	Z+16, r25	; 0x10
     6e6:	87 87       	std	Z+15, r24	; 0x0f
     6e8:	9a 89       	ldd	r25, Y+18	; 0x12
     6ea:	81 89       	ldd	r24, Z+17	; 0x11
     6ec:	8c 7f       	andi	r24, 0xFC	; 252
     6ee:	29 2f       	mov	r18, r25
     6f0:	22 70       	andi	r18, 0x02	; 2
     6f2:	91 70       	andi	r25, 0x01	; 1
     6f4:	89 2b       	or	r24, r25
     6f6:	82 2b       	or	r24, r18
     6f8:	81 8b       	std	Z+17, r24	; 0x11
     6fa:	c7 01       	movw	r24, r14
     6fc:	0e 94 65 13 	call	0x26ca	;  0x26ca
     700:	62 96       	adiw	r28, 0x12	; 18
     702:	0f b6       	in	r0, 0x3f	; 63
     704:	f8 94       	cli
     706:	de bf       	out	0x3e, r29	; 62
     708:	0f be       	out	0x3f, r0	; 63
     70a:	cd bf       	out	0x3d, r28	; 61
     70c:	cf 91       	pop	r28
     70e:	df 91       	pop	r29
     710:	1f 91       	pop	r17
     712:	0f 91       	pop	r16
     714:	ff 90       	pop	r15
     716:	ef 90       	pop	r14
     718:	08 95       	ret
     71a:	81 30       	cpi	r24, 0x01	; 1
     71c:	91 05       	cpc	r25, r1
     71e:	41 f4       	brne	.+16     	;  0x730
     720:	6f 5f       	subi	r22, 0xFF	; 255
     722:	7f 4f       	sbci	r23, 0xFF	; 255
     724:	71 f4       	brne	.+28     	;  0x742
     726:	86 e8       	ldi	r24, 0x86	; 134
     728:	95 e0       	ldi	r25, 0x05	; 5
     72a:	0e 94 3a 03 	call	0x674	;  0x674
     72e:	08 95       	ret
     730:	89 2b       	or	r24, r25
     732:	39 f4       	brne	.+14     	;  0x742
     734:	6f 5f       	subi	r22, 0xFF	; 255
     736:	7f 4f       	sbci	r23, 0xFF	; 255
     738:	21 f4       	brne	.+8      	;  0x742
     73a:	86 e8       	ldi	r24, 0x86	; 134
     73c:	95 e0       	ldi	r25, 0x05	; 5
     73e:	0e 94 65 13 	call	0x26ca	;  0x26ca
     742:	08 95       	ret
     744:	80 e0       	ldi	r24, 0x00	; 0
     746:	90 e0       	ldi	r25, 0x00	; 0
     748:	6f ef       	ldi	r22, 0xFF	; 255
     74a:	7f ef       	ldi	r23, 0xFF	; 255
     74c:	0e 94 8d 03 	call	0x71a	;  0x71a
     750:	08 95       	ret
     752:	81 e0       	ldi	r24, 0x01	; 1
     754:	90 e0       	ldi	r25, 0x00	; 0
     756:	6f ef       	ldi	r22, 0xFF	; 255
     758:	7f ef       	ldi	r23, 0xFF	; 255
     75a:	0e 94 8d 03 	call	0x71a	;  0x71a
     75e:	08 95       	ret
     760:	ef 92       	push	r14
     762:	ff 92       	push	r15
     764:	0f 93       	push	r16
     766:	1f 93       	push	r17
     768:	df 93       	push	r29
     76a:	cf 93       	push	r28
     76c:	cd b7       	in	r28, 0x3d	; 61
     76e:	de b7       	in	r29, 0x3e	; 62
     770:	62 97       	sbiw	r28, 0x12	; 18
     772:	0f b6       	in	r0, 0x3f	; 63
     774:	f8 94       	cli
     776:	de bf       	out	0x3e, r29	; 62
     778:	0f be       	out	0x3f, r0	; 63
     77a:	cd bf       	out	0x3d, r28	; 61
     77c:	8c 01       	movw	r16, r24
     77e:	0e 94 81 12 	call	0x2502	;  0x2502
     782:	7e 01       	movw	r14, r28
     784:	08 94       	sec
     786:	e1 1c       	adc	r14, r1
     788:	f1 1c       	adc	r15, r1
     78a:	c7 01       	movw	r24, r14
     78c:	63 e0       	ldi	r22, 0x03	; 3
     78e:	44 e0       	ldi	r20, 0x04	; 4
     790:	20 e0       	ldi	r18, 0x00	; 0
     792:	0e 94 e7 14 	call	0x29ce	;  0x29ce
     796:	8b 81       	ldd	r24, Y+3	; 0x03
     798:	f8 01       	movw	r30, r16
     79a:	82 83       	std	Z+2, r24	; 0x02
     79c:	8c 81       	ldd	r24, Y+4	; 0x04
     79e:	83 83       	std	Z+3, r24	; 0x03
     7a0:	8d 81       	ldd	r24, Y+5	; 0x05
     7a2:	9e 81       	ldd	r25, Y+6	; 0x06
     7a4:	95 83       	std	Z+5, r25	; 0x05
     7a6:	84 83       	std	Z+4, r24	; 0x04
     7a8:	8f 81       	ldd	r24, Y+7	; 0x07
     7aa:	86 83       	std	Z+6, r24	; 0x06
     7ac:	88 85       	ldd	r24, Y+8	; 0x08
     7ae:	99 85       	ldd	r25, Y+9	; 0x09
     7b0:	90 87       	std	Z+8, r25	; 0x08
     7b2:	87 83       	std	Z+7, r24	; 0x07
     7b4:	8a 85       	ldd	r24, Y+10	; 0x0a
     7b6:	9b 85       	ldd	r25, Y+11	; 0x0b
     7b8:	92 87       	std	Z+10, r25	; 0x0a
     7ba:	81 87       	std	Z+9, r24	; 0x09
     7bc:	8c 85       	ldd	r24, Y+12	; 0x0c
     7be:	9d 85       	ldd	r25, Y+13	; 0x0d
     7c0:	94 87       	std	Z+12, r25	; 0x0c
     7c2:	83 87       	std	Z+11, r24	; 0x0b
     7c4:	8e 85       	ldd	r24, Y+14	; 0x0e
     7c6:	9f 85       	ldd	r25, Y+15	; 0x0f
     7c8:	96 87       	std	Z+14, r25	; 0x0e
     7ca:	85 87       	std	Z+13, r24	; 0x0d
     7cc:	88 89       	ldd	r24, Y+16	; 0x10
     7ce:	99 89       	ldd	r25, Y+17	; 0x11
     7d0:	90 8b       	std	Z+16, r25	; 0x10
     7d2:	87 87       	std	Z+15, r24	; 0x0f
     7d4:	9a 89       	ldd	r25, Y+18	; 0x12
     7d6:	81 89       	ldd	r24, Z+17	; 0x11
     7d8:	8c 7f       	andi	r24, 0xFC	; 252
     7da:	29 2f       	mov	r18, r25
     7dc:	22 70       	andi	r18, 0x02	; 2
     7de:	91 70       	andi	r25, 0x01	; 1
     7e0:	89 2b       	or	r24, r25
     7e2:	82 2b       	or	r24, r18
     7e4:	81 8b       	std	Z+17, r24	; 0x11
     7e6:	c7 01       	movw	r24, r14
     7e8:	0e 94 65 13 	call	0x26ca	;  0x26ca
     7ec:	62 96       	adiw	r28, 0x12	; 18
     7ee:	0f b6       	in	r0, 0x3f	; 63
     7f0:	f8 94       	cli
     7f2:	de bf       	out	0x3e, r29	; 62
     7f4:	0f be       	out	0x3f, r0	; 63
     7f6:	cd bf       	out	0x3d, r28	; 61
     7f8:	cf 91       	pop	r28
     7fa:	df 91       	pop	r29
     7fc:	1f 91       	pop	r17
     7fe:	0f 91       	pop	r16
     800:	ff 90       	pop	r15
     802:	ef 90       	pop	r14
     804:	08 95       	ret
     806:	9c 01       	movw	r18, r24
     808:	2d 5e       	subi	r18, 0xED	; 237
     80a:	3f 4f       	sbci	r19, 0xFF	; 255
     80c:	c9 01       	movw	r24, r18
     80e:	08 95       	ret
     810:	fc 01       	movw	r30, r24
     812:	83 ad       	ldd	r24, Z+59	; 0x3b
     814:	94 ad       	ldd	r25, Z+60	; 0x3c
     816:	a5 ad       	ldd	r26, Z+61	; 0x3d
     818:	b6 ad       	ldd	r27, Z+62	; 0x3e
     81a:	bc 01       	movw	r22, r24
     81c:	cd 01       	movw	r24, r26
     81e:	08 95       	ret
     820:	fc 01       	movw	r30, r24
     822:	ff 96       	adiw	r30, 0x3f	; 63
     824:	80 81       	ld	r24, Z
     826:	91 81       	ldd	r25, Z+1	; 0x01
     828:	a2 81       	ldd	r26, Z+2	; 0x02
     82a:	b3 81       	ldd	r27, Z+3	; 0x03
     82c:	bc 01       	movw	r22, r24
     82e:	cd 01       	movw	r24, r26
     830:	08 95       	ret
     832:	cf 92       	push	r12
     834:	df 92       	push	r13
     836:	ef 92       	push	r14
     838:	ff 92       	push	r15
     83a:	0f 93       	push	r16
     83c:	1f 93       	push	r17
     83e:	cf 93       	push	r28
     840:	df 93       	push	r29
     842:	ec 01       	movw	r28, r24
     844:	7a 01       	movw	r14, r20
     846:	8b 01       	movw	r16, r22
     848:	6c 01       	movw	r12, r24
     84a:	08 94       	sec
     84c:	c1 1c       	adc	r12, r1
     84e:	d1 1c       	adc	r13, r1
     850:	c6 01       	movw	r24, r12
     852:	0e 94 67 11 	call	0x22ce	;  0x22ce
     856:	c6 01       	movw	r24, r12
     858:	b8 01       	movw	r22, r16
     85a:	a7 01       	movw	r20, r14
     85c:	22 e0       	ldi	r18, 0x02	; 2
     85e:	30 e0       	ldi	r19, 0x00	; 0
     860:	0e 94 b0 19 	call	0x3360	;  0x3360
     864:	c6 01       	movw	r24, r12
     866:	6c e5       	ldi	r22, 0x5C	; 92
     868:	71 e0       	ldi	r23, 0x01	; 1
     86a:	0e 94 22 17 	call	0x2e44	;  0x2e44
     86e:	c6 01       	movw	r24, r12
     870:	6e e5       	ldi	r22, 0x5E	; 94
     872:	71 e0       	ldi	r23, 0x01	; 1
     874:	0e 94 22 17 	call	0x2e44	;  0x2e44
     878:	8a a1       	ldd	r24, Y+34	; 0x22
     87a:	9b a1       	ldd	r25, Y+35	; 0x23
     87c:	01 96       	adiw	r24, 0x01	; 1
     87e:	9b a3       	std	Y+35, r25	; 0x23
     880:	8a a3       	std	Y+34, r24	; 0x22
     882:	64 ef       	ldi	r22, 0xF4	; 244
     884:	71 e0       	ldi	r23, 0x01	; 1
     886:	80 e0       	ldi	r24, 0x00	; 0
     888:	90 e0       	ldi	r25, 0x00	; 0
     88a:	0e 94 d7 22 	call	0x45ae	;  0x45ae
     88e:	c6 01       	movw	r24, r12
     890:	0e 94 98 13 	call	0x2730	;  0x2730
     894:	04 97       	sbiw	r24, 0x04	; 4
     896:	0c f4       	brge	.+2      	;  0x89a
     898:	bf c0       	rjmp	.+382    	;  0xa18
     89a:	c6 01       	movw	r24, r12
     89c:	0e 94 98 13 	call	0x2730	;  0x2730
     8a0:	e8 2e       	mov	r14, r24
     8a2:	fc 2e       	mov	r15, r28
     8a4:	8e 01       	movw	r16, r28
     8a6:	0a c0       	rjmp	.+20     	;  0x8bc
     8a8:	c6 01       	movw	r24, r12
     8aa:	0e 94 77 13 	call	0x26ee	;  0x26ee
     8ae:	f8 01       	movw	r30, r16
     8b0:	83 8b       	std	Z+19, r24	; 0x13
     8b2:	8d 30       	cpi	r24, 0x0D	; 13
     8b4:	09 f4       	brne	.+2      	;  0x8b8
     8b6:	13 8a       	std	Z+19, r1	; 0x13
     8b8:	0f 5f       	subi	r16, 0xFF	; 255
     8ba:	1f 4f       	sbci	r17, 0xFF	; 255
     8bc:	80 2f       	mov	r24, r16
     8be:	8f 19       	sub	r24, r15
     8c0:	8e 15       	cp	r24, r14
     8c2:	90 f3       	brcs	.-28     	;  0x8a8
     8c4:	ce 01       	movw	r24, r28
     8c6:	43 96       	adiw	r24, 0x13	; 19
     8c8:	0e 94 c4 28 	call	0x5188	;  0x5188
     8cc:	6b af       	std	Y+59, r22	; 0x3b
     8ce:	7c af       	std	Y+60, r23	; 0x3c
     8d0:	8d af       	std	Y+61, r24	; 0x3d
     8d2:	9e af       	std	Y+62, r25	; 0x3e
     8d4:	6b ad       	ldd	r22, Y+59	; 0x3b
     8d6:	7c ad       	ldd	r23, Y+60	; 0x3c
     8d8:	8d ad       	ldd	r24, Y+61	; 0x3d
     8da:	9e ad       	ldd	r25, Y+62	; 0x3e
     8dc:	2a e9       	ldi	r18, 0x9A	; 154
     8de:	39 e9       	ldi	r19, 0x99	; 153
     8e0:	49 e3       	ldi	r20, 0x39	; 57
     8e2:	50 e4       	ldi	r21, 0x40	; 64
     8e4:	0e 94 80 24 	call	0x4900	;  0x4900
     8e8:	6b af       	std	Y+59, r22	; 0x3b
     8ea:	7c af       	std	Y+60, r23	; 0x3c
     8ec:	8d af       	std	Y+61, r24	; 0x3d
     8ee:	9e af       	std	Y+62, r25	; 0x3e
     8f0:	2e a1       	ldd	r18, Y+38	; 0x26
     8f2:	e2 2f       	mov	r30, r18
     8f4:	f0 e0       	ldi	r31, 0x00	; 0
     8f6:	8b ad       	ldd	r24, Y+59	; 0x3b
     8f8:	9c ad       	ldd	r25, Y+60	; 0x3c
     8fa:	ad ad       	ldd	r26, Y+61	; 0x3d
     8fc:	be ad       	ldd	r27, Y+62	; 0x3e
     8fe:	ee 0f       	add	r30, r30
     900:	ff 1f       	adc	r31, r31
     902:	ee 0f       	add	r30, r30
     904:	ff 1f       	adc	r31, r31
     906:	ec 0f       	add	r30, r28
     908:	fd 1f       	adc	r31, r29
     90a:	87 a3       	std	Z+39, r24	; 0x27
     90c:	90 a7       	std	Z+40, r25	; 0x28
     90e:	a1 a7       	std	Z+41, r26	; 0x29
     910:	b2 a7       	std	Z+42, r27	; 0x2a
     912:	2f 5f       	subi	r18, 0xFF	; 255
     914:	2e a3       	std	Y+38, r18	; 0x26
     916:	4f e3       	ldi	r20, 0x3F	; 63
     918:	c4 2e       	mov	r12, r20
     91a:	d1 2c       	mov	r13, r1
     91c:	cc 0e       	add	r12, r28
     91e:	dd 1e       	adc	r13, r29
     920:	80 e0       	ldi	r24, 0x00	; 0
     922:	90 e0       	ldi	r25, 0x00	; 0
     924:	a0 e0       	ldi	r26, 0x00	; 0
     926:	b0 e0       	ldi	r27, 0x00	; 0
     928:	f6 01       	movw	r30, r12
     92a:	80 83       	st	Z, r24
     92c:	91 83       	std	Z+1, r25	; 0x01
     92e:	a2 83       	std	Z+2, r26	; 0x02
     930:	b3 83       	std	Z+3, r27	; 0x03
     932:	cd 5b       	subi	r28, 0xBD	; 189
     934:	df 4f       	sbci	r29, 0xFF	; 255
     936:	88 81       	ld	r24, Y
     938:	c3 54       	subi	r28, 0x43	; 67
     93a:	d0 40       	sbci	r29, 0x00	; 0
     93c:	88 23       	and	r24, r24
     93e:	21 f4       	brne	.+8      	;  0x948
     940:	00 e0       	ldi	r16, 0x00	; 0
     942:	10 e0       	ldi	r17, 0x00	; 0
     944:	76 01       	movw	r14, r12
     946:	42 c0       	rjmp	.+132    	;  0x9cc
     948:	00 e0       	ldi	r16, 0x00	; 0
     94a:	10 e0       	ldi	r17, 0x00	; 0
     94c:	76 01       	movw	r14, r12
     94e:	f7 01       	movw	r30, r14
     950:	60 81       	ld	r22, Z
     952:	71 81       	ldd	r23, Z+1	; 0x01
     954:	82 81       	ldd	r24, Z+2	; 0x02
     956:	93 81       	ldd	r25, Z+3	; 0x03
     958:	f8 01       	movw	r30, r16
     95a:	ee 0f       	add	r30, r30
     95c:	ff 1f       	adc	r31, r31
     95e:	ee 0f       	add	r30, r30
     960:	ff 1f       	adc	r31, r31
     962:	ec 0f       	add	r30, r28
     964:	fd 1f       	adc	r31, r29
     966:	27 a1       	ldd	r18, Z+39	; 0x27
     968:	30 a5       	ldd	r19, Z+40	; 0x28
     96a:	41 a5       	ldd	r20, Z+41	; 0x29
     96c:	52 a5       	ldd	r21, Z+42	; 0x2a
     96e:	0e 94 80 24 	call	0x4900	;  0x4900
     972:	f7 01       	movw	r30, r14
     974:	60 83       	st	Z, r22
     976:	71 83       	std	Z+1, r23	; 0x01
     978:	82 83       	std	Z+2, r24	; 0x02
     97a:	93 83       	std	Z+3, r25	; 0x03
     97c:	0f 5f       	subi	r16, 0xFF	; 255
     97e:	1f 4f       	sbci	r17, 0xFF	; 255
     980:	05 30       	cpi	r16, 0x05	; 5
     982:	11 05       	cpc	r17, r1
     984:	21 f7       	brne	.-56     	;  0x94e
     986:	f6 01       	movw	r30, r12
     988:	60 81       	ld	r22, Z
     98a:	71 81       	ldd	r23, Z+1	; 0x01
     98c:	82 81       	ldd	r24, Z+2	; 0x02
     98e:	93 81       	ldd	r25, Z+3	; 0x03
     990:	20 e0       	ldi	r18, 0x00	; 0
     992:	30 e0       	ldi	r19, 0x00	; 0
     994:	40 ea       	ldi	r20, 0xA0	; 160
     996:	50 e4       	ldi	r21, 0x40	; 64
     998:	2f c0       	rjmp	.+94     	;  0x9f8
     99a:	f7 01       	movw	r30, r14
     99c:	60 81       	ld	r22, Z
     99e:	71 81       	ldd	r23, Z+1	; 0x01
     9a0:	82 81       	ldd	r24, Z+2	; 0x02
     9a2:	93 81       	ldd	r25, Z+3	; 0x03
     9a4:	f8 01       	movw	r30, r16
     9a6:	ee 0f       	add	r30, r30
     9a8:	ff 1f       	adc	r31, r31
     9aa:	ee 0f       	add	r30, r30
     9ac:	ff 1f       	adc	r31, r31
     9ae:	ec 0f       	add	r30, r28
     9b0:	fd 1f       	adc	r31, r29
     9b2:	27 a1       	ldd	r18, Z+39	; 0x27
     9b4:	30 a5       	ldd	r19, Z+40	; 0x28
     9b6:	41 a5       	ldd	r20, Z+41	; 0x29
     9b8:	52 a5       	ldd	r21, Z+42	; 0x2a
     9ba:	0e 94 80 24 	call	0x4900	;  0x4900
     9be:	f7 01       	movw	r30, r14
     9c0:	60 83       	st	Z, r22
     9c2:	71 83       	std	Z+1, r23	; 0x01
     9c4:	82 83       	std	Z+2, r24	; 0x02
     9c6:	93 83       	std	Z+3, r25	; 0x03
     9c8:	0f 5f       	subi	r16, 0xFF	; 255
     9ca:	1f 4f       	sbci	r17, 0xFF	; 255
     9cc:	8e a1       	ldd	r24, Y+38	; 0x26
     9ce:	90 e0       	ldi	r25, 0x00	; 0
     9d0:	08 17       	cp	r16, r24
     9d2:	19 07       	cpc	r17, r25
     9d4:	14 f3       	brlt	.-60     	;  0x99a
     9d6:	f6 01       	movw	r30, r12
     9d8:	e0 80       	ld	r14, Z
     9da:	f1 80       	ldd	r15, Z+1	; 0x01
     9dc:	02 81       	ldd	r16, Z+2	; 0x02
     9de:	13 81       	ldd	r17, Z+3	; 0x03
     9e0:	6e a1       	ldd	r22, Y+38	; 0x26
     9e2:	70 e0       	ldi	r23, 0x00	; 0
     9e4:	88 27       	eor	r24, r24
     9e6:	77 fd       	sbrc	r23, 7
     9e8:	80 95       	com	r24
     9ea:	98 2f       	mov	r25, r24
     9ec:	0e 94 83 25 	call	0x4b06	;  0x4b06
     9f0:	9b 01       	movw	r18, r22
     9f2:	ac 01       	movw	r20, r24
     9f4:	c8 01       	movw	r24, r16
     9f6:	b7 01       	movw	r22, r14
     9f8:	0e 94 e8 24 	call	0x49d0	;  0x49d0
     9fc:	f6 01       	movw	r30, r12
     9fe:	60 83       	st	Z, r22
     a00:	71 83       	std	Z+1, r23	; 0x01
     a02:	82 83       	std	Z+2, r24	; 0x02
     a04:	93 83       	std	Z+3, r25	; 0x03
     a06:	8e a1       	ldd	r24, Y+38	; 0x26
     a08:	85 30       	cpi	r24, 0x05	; 5
     a0a:	b9 f5       	brne	.+110    	;  0xa7a
     a0c:	1e a2       	std	Y+38, r1	; 0x26
     a0e:	cd 5b       	subi	r28, 0xBD	; 189
     a10:	df 4f       	sbci	r29, 0xFF	; 255
     a12:	81 e0       	ldi	r24, 0x01	; 1
     a14:	88 83       	st	Y, r24
     a16:	31 c0       	rjmp	.+98     	;  0xa7a
     a18:	8c a1       	ldd	r24, Y+36	; 0x24
     a1a:	9d a1       	ldd	r25, Y+37	; 0x25
     a1c:	01 96       	adiw	r24, 0x01	; 1
     a1e:	9d a3       	std	Y+37, r25	; 0x25
     a20:	8c a3       	std	Y+36, r24	; 0x24
     a22:	86 e9       	ldi	r24, 0x96	; 150
     a24:	97 e0       	ldi	r25, 0x07	; 7
     a26:	61 e6       	ldi	r22, 0x61	; 97
     a28:	71 e0       	ldi	r23, 0x01	; 1
     a2a:	0e 94 22 17 	call	0x2e44	;  0x2e44
     a2e:	6a a1       	ldd	r22, Y+34	; 0x22
     a30:	7b a1       	ldd	r23, Y+35	; 0x23
     a32:	86 e9       	ldi	r24, 0x96	; 150
     a34:	97 e0       	ldi	r25, 0x07	; 7
     a36:	4a e0       	ldi	r20, 0x0A	; 10
     a38:	50 e0       	ldi	r21, 0x00	; 0
     a3a:	0e 94 fb 17 	call	0x2ff6	;  0x2ff6
     a3e:	86 e9       	ldi	r24, 0x96	; 150
     a40:	97 e0       	ldi	r25, 0x07	; 7
     a42:	65 e7       	ldi	r22, 0x75	; 117
     a44:	71 e0       	ldi	r23, 0x01	; 1
     a46:	0e 94 22 17 	call	0x2e44	;  0x2e44
     a4a:	6c a1       	ldd	r22, Y+36	; 0x24
     a4c:	7d a1       	ldd	r23, Y+37	; 0x25
     a4e:	86 e9       	ldi	r24, 0x96	; 150
     a50:	97 e0       	ldi	r25, 0x07	; 7
     a52:	4a e0       	ldi	r20, 0x0A	; 10
     a54:	50 e0       	ldi	r21, 0x00	; 0
     a56:	0e 94 fb 17 	call	0x2ff6	;  0x2ff6
     a5a:	86 e9       	ldi	r24, 0x96	; 150
     a5c:	97 e0       	ldi	r25, 0x07	; 7
     a5e:	6e e7       	ldi	r22, 0x7E	; 126
     a60:	71 e0       	ldi	r23, 0x01	; 1
     a62:	0e 94 22 17 	call	0x2e44	;  0x2e44
     a66:	c6 01       	movw	r24, r12
     a68:	0e 94 98 13 	call	0x2730	;  0x2730
     a6c:	bc 01       	movw	r22, r24
     a6e:	86 e9       	ldi	r24, 0x96	; 150
     a70:	97 e0       	ldi	r25, 0x07	; 7
     a72:	4a e0       	ldi	r20, 0x0A	; 10
     a74:	50 e0       	ldi	r21, 0x00	; 0
     a76:	0e 94 ef 18 	call	0x31de	;  0x31de
     a7a:	df 91       	pop	r29
     a7c:	cf 91       	pop	r28
     a7e:	1f 91       	pop	r17
     a80:	0f 91       	pop	r16
     a82:	ff 90       	pop	r15
     a84:	ef 90       	pop	r14
     a86:	df 90       	pop	r13
     a88:	cf 90       	pop	r12
     a8a:	08 95       	ret
     a8c:	ef 92       	push	r14
     a8e:	ff 92       	push	r15
     a90:	0f 93       	push	r16
     a92:	1f 93       	push	r17
     a94:	8c 01       	movw	r16, r24
     a96:	66 e9       	ldi	r22, 0x96	; 150
     a98:	e6 2e       	mov	r14, r22
     a9a:	67 e0       	ldi	r22, 0x07	; 7
     a9c:	f6 2e       	mov	r15, r22
     a9e:	c7 01       	movw	r24, r14
     aa0:	63 e9       	ldi	r22, 0x93	; 147
     aa2:	71 e0       	ldi	r23, 0x01	; 1
     aa4:	0e 94 ce 18 	call	0x319c	;  0x319c
     aa8:	0f 5f       	subi	r16, 0xFF	; 255
     aaa:	1f 4f       	sbci	r17, 0xFF	; 255
     aac:	c8 01       	movw	r24, r16
     aae:	0e 94 67 11 	call	0x22ce	;  0x22ce
     ab2:	c8 01       	movw	r24, r16
     ab4:	40 e0       	ldi	r20, 0x00	; 0
     ab6:	56 e9       	ldi	r21, 0x96	; 150
     ab8:	60 e0       	ldi	r22, 0x00	; 0
     aba:	70 e0       	ldi	r23, 0x00	; 0
     abc:	0e 94 87 12 	call	0x250e	;  0x250e
     ac0:	c8 01       	movw	r24, r16
     ac2:	6d ea       	ldi	r22, 0xAD	; 173
     ac4:	71 e0       	ldi	r23, 0x01	; 1
     ac6:	0e 94 22 17 	call	0x2e44	;  0x2e44
     aca:	68 ee       	ldi	r22, 0xE8	; 232
     acc:	73 e0       	ldi	r23, 0x03	; 3
     ace:	80 e0       	ldi	r24, 0x00	; 0
     ad0:	90 e0       	ldi	r25, 0x00	; 0
     ad2:	0e 94 d7 22 	call	0x45ae	;  0x45ae
     ad6:	c7 01       	movw	r24, r14
     ad8:	61 eb       	ldi	r22, 0xB1	; 177
     ada:	71 e0       	ldi	r23, 0x01	; 1
     adc:	0e 94 ce 18 	call	0x319c	;  0x319c
     ae0:	1f 91       	pop	r17
     ae2:	0f 91       	pop	r16
     ae4:	ff 90       	pop	r15
     ae6:	ef 90       	pop	r14
     ae8:	08 95       	ret
     aea:	ef 92       	push	r14
     aec:	ff 92       	push	r15
     aee:	0f 93       	push	r16
     af0:	1f 93       	push	r17
     af2:	df 93       	push	r29
     af4:	cf 93       	push	r28
     af6:	cd b7       	in	r28, 0x3d	; 61
     af8:	de b7       	in	r29, 0x3e	; 62
     afa:	62 97       	sbiw	r28, 0x12	; 18
     afc:	0f b6       	in	r0, 0x3f	; 63
     afe:	f8 94       	cli
     b00:	de bf       	out	0x3e, r29	; 62
     b02:	0f be       	out	0x3f, r0	; 63
     b04:	cd bf       	out	0x3d, r28	; 61
     b06:	8c 01       	movw	r16, r24
     b08:	0e 94 20 0e 	call	0x1c40	;  0x1c40
     b0c:	c8 01       	movw	r24, r16
     b0e:	01 96       	adiw	r24, 0x01	; 1
     b10:	0e 94 81 12 	call	0x2502	;  0x2502
     b14:	7e 01       	movw	r14, r28
     b16:	08 94       	sec
     b18:	e1 1c       	adc	r14, r1
     b1a:	f1 1c       	adc	r15, r1
     b1c:	c7 01       	movw	r24, r14
     b1e:	66 e0       	ldi	r22, 0x06	; 6
     b20:	47 e0       	ldi	r20, 0x07	; 7
     b22:	20 e0       	ldi	r18, 0x00	; 0
     b24:	0e 94 e7 14 	call	0x29ce	;  0x29ce
     b28:	8b 81       	ldd	r24, Y+3	; 0x03
     b2a:	f8 01       	movw	r30, r16
     b2c:	83 83       	std	Z+3, r24	; 0x03
     b2e:	8c 81       	ldd	r24, Y+4	; 0x04
     b30:	84 83       	std	Z+4, r24	; 0x04
     b32:	8d 81       	ldd	r24, Y+5	; 0x05
     b34:	9e 81       	ldd	r25, Y+6	; 0x06
     b36:	96 83       	std	Z+6, r25	; 0x06
     b38:	85 83       	std	Z+5, r24	; 0x05
     b3a:	8f 81       	ldd	r24, Y+7	; 0x07
     b3c:	87 83       	std	Z+7, r24	; 0x07
     b3e:	88 85       	ldd	r24, Y+8	; 0x08
     b40:	99 85       	ldd	r25, Y+9	; 0x09
     b42:	91 87       	std	Z+9, r25	; 0x09
     b44:	80 87       	std	Z+8, r24	; 0x08
     b46:	8a 85       	ldd	r24, Y+10	; 0x0a
     b48:	9b 85       	ldd	r25, Y+11	; 0x0b
     b4a:	93 87       	std	Z+11, r25	; 0x0b
     b4c:	82 87       	std	Z+10, r24	; 0x0a
     b4e:	8c 85       	ldd	r24, Y+12	; 0x0c
     b50:	9d 85       	ldd	r25, Y+13	; 0x0d
     b52:	95 87       	std	Z+13, r25	; 0x0d
     b54:	84 87       	std	Z+12, r24	; 0x0c
     b56:	8e 85       	ldd	r24, Y+14	; 0x0e
     b58:	9f 85       	ldd	r25, Y+15	; 0x0f
     b5a:	97 87       	std	Z+15, r25	; 0x0f
     b5c:	86 87       	std	Z+14, r24	; 0x0e
     b5e:	88 89       	ldd	r24, Y+16	; 0x10
     b60:	99 89       	ldd	r25, Y+17	; 0x11
     b62:	91 8b       	std	Z+17, r25	; 0x11
     b64:	80 8b       	std	Z+16, r24	; 0x10
     b66:	9a 89       	ldd	r25, Y+18	; 0x12
     b68:	82 89       	ldd	r24, Z+18	; 0x12
     b6a:	8c 7f       	andi	r24, 0xFC	; 252
     b6c:	29 2f       	mov	r18, r25
     b6e:	22 70       	andi	r18, 0x02	; 2
     b70:	91 70       	andi	r25, 0x01	; 1
     b72:	89 2b       	or	r24, r25
     b74:	82 2b       	or	r24, r18
     b76:	82 8b       	std	Z+18, r24	; 0x12
     b78:	c7 01       	movw	r24, r14
     b7a:	0e 94 65 13 	call	0x26ca	;  0x26ca
     b7e:	f8 01       	movw	r30, r16
     b80:	13 a2       	std	Z+35, r1	; 0x23
     b82:	12 a2       	std	Z+34, r1	; 0x22
     b84:	15 a2       	std	Z+37, r1	; 0x25
     b86:	14 a2       	std	Z+36, r1	; 0x24
     b88:	16 a2       	std	Z+38, r1	; 0x26
     b8a:	01 5c       	subi	r16, 0xC1	; 193
     b8c:	1f 4f       	sbci	r17, 0xFF	; 255
     b8e:	80 e0       	ldi	r24, 0x00	; 0
     b90:	90 e0       	ldi	r25, 0x00	; 0
     b92:	a0 e0       	ldi	r26, 0x00	; 0
     b94:	b0 e0       	ldi	r27, 0x00	; 0
     b96:	f8 01       	movw	r30, r16
     b98:	80 83       	st	Z, r24
     b9a:	91 83       	std	Z+1, r25	; 0x01
     b9c:	a2 83       	std	Z+2, r26	; 0x02
     b9e:	b3 83       	std	Z+3, r27	; 0x03
     ba0:	0f 53       	subi	r16, 0x3F	; 63
     ba2:	10 40       	sbci	r17, 0x00	; 0
     ba4:	f8 01       	movw	r30, r16
     ba6:	83 af       	std	Z+59, r24	; 0x3b
     ba8:	94 af       	std	Z+60, r25	; 0x3c
     baa:	a5 af       	std	Z+61, r26	; 0x3d
     bac:	b6 af       	std	Z+62, r27	; 0x3e
     bae:	0d 5b       	subi	r16, 0xBD	; 189
     bb0:	1f 4f       	sbci	r17, 0xFF	; 255
     bb2:	f8 01       	movw	r30, r16
     bb4:	10 82       	st	Z, r1
     bb6:	62 96       	adiw	r28, 0x12	; 18
     bb8:	0f b6       	in	r0, 0x3f	; 63
     bba:	f8 94       	cli
     bbc:	de bf       	out	0x3e, r29	; 62
     bbe:	0f be       	out	0x3f, r0	; 63
     bc0:	cd bf       	out	0x3d, r28	; 61
     bc2:	cf 91       	pop	r28
     bc4:	df 91       	pop	r29
     bc6:	1f 91       	pop	r17
     bc8:	0f 91       	pop	r16
     bca:	ff 90       	pop	r15
     bcc:	ef 90       	pop	r14
     bce:	08 95       	ret
     bd0:	81 30       	cpi	r24, 0x01	; 1
     bd2:	91 05       	cpc	r25, r1
     bd4:	41 f4       	brne	.+16     	;  0xbe6
     bd6:	6f 5f       	subi	r22, 0xFF	; 255
     bd8:	7f 4f       	sbci	r23, 0xFF	; 255
     bda:	71 f4       	brne	.+28     	;  0xbf8
     bdc:	88 e9       	ldi	r24, 0x98	; 152
     bde:	95 e0       	ldi	r25, 0x05	; 5
     be0:	0e 94 75 05 	call	0xaea	;  0xaea
     be4:	08 95       	ret
     be6:	89 2b       	or	r24, r25
     be8:	39 f4       	brne	.+14     	;  0xbf8
     bea:	6f 5f       	subi	r22, 0xFF	; 255
     bec:	7f 4f       	sbci	r23, 0xFF	; 255
     bee:	21 f4       	brne	.+8      	;  0xbf8
     bf0:	89 e9       	ldi	r24, 0x99	; 153
     bf2:	95 e0       	ldi	r25, 0x05	; 5
     bf4:	0e 94 65 13 	call	0x26ca	;  0x26ca
     bf8:	08 95       	ret
     bfa:	80 e0       	ldi	r24, 0x00	; 0
     bfc:	90 e0       	ldi	r25, 0x00	; 0
     bfe:	6f ef       	ldi	r22, 0xFF	; 255
     c00:	7f ef       	ldi	r23, 0xFF	; 255
     c02:	0e 94 e8 05 	call	0xbd0	;  0xbd0
     c06:	08 95       	ret
     c08:	81 e0       	ldi	r24, 0x01	; 1
     c0a:	90 e0       	ldi	r25, 0x00	; 0
     c0c:	6f ef       	ldi	r22, 0xFF	; 255
     c0e:	7f ef       	ldi	r23, 0xFF	; 255
     c10:	0e 94 e8 05 	call	0xbd0	;  0xbd0
     c14:	08 95       	ret
     c16:	ef 92       	push	r14
     c18:	ff 92       	push	r15
     c1a:	0f 93       	push	r16
     c1c:	1f 93       	push	r17
     c1e:	df 93       	push	r29
     c20:	cf 93       	push	r28
     c22:	cd b7       	in	r28, 0x3d	; 61
     c24:	de b7       	in	r29, 0x3e	; 62
     c26:	62 97       	sbiw	r28, 0x12	; 18
     c28:	0f b6       	in	r0, 0x3f	; 63
     c2a:	f8 94       	cli
     c2c:	de bf       	out	0x3e, r29	; 62
     c2e:	0f be       	out	0x3f, r0	; 63
     c30:	cd bf       	out	0x3d, r28	; 61
     c32:	8c 01       	movw	r16, r24
     c34:	0e 94 20 0e 	call	0x1c40	;  0x1c40
     c38:	c8 01       	movw	r24, r16
     c3a:	01 96       	adiw	r24, 0x01	; 1
     c3c:	0e 94 81 12 	call	0x2502	;  0x2502
     c40:	7e 01       	movw	r14, r28
     c42:	08 94       	sec
     c44:	e1 1c       	adc	r14, r1
     c46:	f1 1c       	adc	r15, r1
     c48:	c7 01       	movw	r24, r14
     c4a:	66 e0       	ldi	r22, 0x06	; 6
     c4c:	47 e0       	ldi	r20, 0x07	; 7
     c4e:	20 e0       	ldi	r18, 0x00	; 0
     c50:	0e 94 e7 14 	call	0x29ce	;  0x29ce
     c54:	8b 81       	ldd	r24, Y+3	; 0x03
     c56:	f8 01       	movw	r30, r16
     c58:	83 83       	std	Z+3, r24	; 0x03
     c5a:	8c 81       	ldd	r24, Y+4	; 0x04
     c5c:	84 83       	std	Z+4, r24	; 0x04
     c5e:	8d 81       	ldd	r24, Y+5	; 0x05
     c60:	9e 81       	ldd	r25, Y+6	; 0x06
     c62:	96 83       	std	Z+6, r25	; 0x06
     c64:	85 83       	std	Z+5, r24	; 0x05
     c66:	8f 81       	ldd	r24, Y+7	; 0x07
     c68:	87 83       	std	Z+7, r24	; 0x07
     c6a:	88 85       	ldd	r24, Y+8	; 0x08
     c6c:	99 85       	ldd	r25, Y+9	; 0x09
     c6e:	91 87       	std	Z+9, r25	; 0x09
     c70:	80 87       	std	Z+8, r24	; 0x08
     c72:	8a 85       	ldd	r24, Y+10	; 0x0a
     c74:	9b 85       	ldd	r25, Y+11	; 0x0b
     c76:	93 87       	std	Z+11, r25	; 0x0b
     c78:	82 87       	std	Z+10, r24	; 0x0a
     c7a:	8c 85       	ldd	r24, Y+12	; 0x0c
     c7c:	9d 85       	ldd	r25, Y+13	; 0x0d
     c7e:	95 87       	std	Z+13, r25	; 0x0d
     c80:	84 87       	std	Z+12, r24	; 0x0c
     c82:	8e 85       	ldd	r24, Y+14	; 0x0e
     c84:	9f 85       	ldd	r25, Y+15	; 0x0f
     c86:	97 87       	std	Z+15, r25	; 0x0f
     c88:	86 87       	std	Z+14, r24	; 0x0e
     c8a:	88 89       	ldd	r24, Y+16	; 0x10
     c8c:	99 89       	ldd	r25, Y+17	; 0x11
     c8e:	91 8b       	std	Z+17, r25	; 0x11
     c90:	80 8b       	std	Z+16, r24	; 0x10
     c92:	9a 89       	ldd	r25, Y+18	; 0x12
     c94:	82 89       	ldd	r24, Z+18	; 0x12
     c96:	8c 7f       	andi	r24, 0xFC	; 252
     c98:	29 2f       	mov	r18, r25
     c9a:	22 70       	andi	r18, 0x02	; 2
     c9c:	91 70       	andi	r25, 0x01	; 1
     c9e:	89 2b       	or	r24, r25
     ca0:	82 2b       	or	r24, r18
     ca2:	82 8b       	std	Z+18, r24	; 0x12
     ca4:	c7 01       	movw	r24, r14
     ca6:	0e 94 65 13 	call	0x26ca	;  0x26ca
     caa:	f8 01       	movw	r30, r16
     cac:	13 a2       	std	Z+35, r1	; 0x23
     cae:	12 a2       	std	Z+34, r1	; 0x22
     cb0:	15 a2       	std	Z+37, r1	; 0x25
     cb2:	14 a2       	std	Z+36, r1	; 0x24
     cb4:	16 a2       	std	Z+38, r1	; 0x26
     cb6:	01 5c       	subi	r16, 0xC1	; 193
     cb8:	1f 4f       	sbci	r17, 0xFF	; 255
     cba:	80 e0       	ldi	r24, 0x00	; 0
     cbc:	90 e0       	ldi	r25, 0x00	; 0
     cbe:	a0 e0       	ldi	r26, 0x00	; 0
     cc0:	b0 e0       	ldi	r27, 0x00	; 0
     cc2:	f8 01       	movw	r30, r16
     cc4:	80 83       	st	Z, r24
     cc6:	91 83       	std	Z+1, r25	; 0x01
     cc8:	a2 83       	std	Z+2, r26	; 0x02
     cca:	b3 83       	std	Z+3, r27	; 0x03
     ccc:	0f 53       	subi	r16, 0x3F	; 63
     cce:	10 40       	sbci	r17, 0x00	; 0
     cd0:	f8 01       	movw	r30, r16
     cd2:	83 af       	std	Z+59, r24	; 0x3b
     cd4:	94 af       	std	Z+60, r25	; 0x3c
     cd6:	a5 af       	std	Z+61, r26	; 0x3d
     cd8:	b6 af       	std	Z+62, r27	; 0x3e
     cda:	0d 5b       	subi	r16, 0xBD	; 189
     cdc:	1f 4f       	sbci	r17, 0xFF	; 255
     cde:	f8 01       	movw	r30, r16
     ce0:	10 82       	st	Z, r1
     ce2:	62 96       	adiw	r28, 0x12	; 18
     ce4:	0f b6       	in	r0, 0x3f	; 63
     ce6:	f8 94       	cli
     ce8:	de bf       	out	0x3e, r29	; 62
     cea:	0f be       	out	0x3f, r0	; 63
     cec:	cd bf       	out	0x3d, r28	; 61
     cee:	cf 91       	pop	r28
     cf0:	df 91       	pop	r29
     cf2:	1f 91       	pop	r17
     cf4:	0f 91       	pop	r16
     cf6:	ff 90       	pop	r15
     cf8:	ef 90       	pop	r14
     cfa:	08 95       	ret
     cfc:	08 95       	ret
     cfe:	08 95       	ret
     d00:	fc 01       	movw	r30, r24
     d02:	82 81       	ldd	r24, Z+2	; 0x02
     d04:	90 e0       	ldi	r25, 0x00	; 0
     d06:	26 e0       	ldi	r18, 0x06	; 6
     d08:	96 95       	lsr	r25
     d0a:	87 95       	ror	r24
     d0c:	2a 95       	dec	r18
     d0e:	e1 f7       	brne	.-8      	;  0xd08
     d10:	81 70       	andi	r24, 0x01	; 1
     d12:	08 95       	ret
     d14:	fc 01       	movw	r30, r24
     d16:	90 e0       	ldi	r25, 0x00	; 0
     d18:	80 81       	ld	r24, Z
     d1a:	87 fd       	sbrc	r24, 7
     d1c:	91 e0       	ldi	r25, 0x01	; 1
     d1e:	89 2f       	mov	r24, r25
     d20:	08 95       	ret
     d22:	fc 01       	movw	r30, r24
     d24:	82 81       	ldd	r24, Z+2	; 0x02
     d26:	48 2f       	mov	r20, r24
     d28:	4f 70       	andi	r20, 0x0F	; 15
     d2a:	86 ff       	sbrs	r24, 6
     d2c:	02 c0       	rjmp	.+4      	;  0xd32
     d2e:	8f 71       	andi	r24, 0x1F	; 31
     d30:	01 c0       	rjmp	.+2      	;  0xd34
     d32:	8f 73       	andi	r24, 0x3F	; 63
     d34:	90 e0       	ldi	r25, 0x00	; 0
     d36:	74 e0       	ldi	r23, 0x04	; 4
     d38:	95 95       	asr	r25
     d3a:	87 95       	ror	r24
     d3c:	7a 95       	dec	r23
     d3e:	e1 f7       	brne	.-8      	;  0xd38
     d40:	9c 01       	movw	r18, r24
     d42:	63 e0       	ldi	r22, 0x03	; 3
     d44:	22 0f       	add	r18, r18
     d46:	33 1f       	adc	r19, r19
     d48:	6a 95       	dec	r22
     d4a:	e1 f7       	brne	.-8      	;  0xd44
     d4c:	88 0f       	add	r24, r24
     d4e:	99 1f       	adc	r25, r25
     d50:	28 0f       	add	r18, r24
     d52:	39 1f       	adc	r19, r25
     d54:	84 2f       	mov	r24, r20
     d56:	82 0f       	add	r24, r18
     d58:	90 e0       	ldi	r25, 0x00	; 0
     d5a:	08 95       	ret
     d5c:	fc 01       	movw	r30, r24
     d5e:	82 81       	ldd	r24, Z+2	; 0x02
     d60:	90 e0       	ldi	r25, 0x00	; 0
     d62:	86 ff       	sbrs	r24, 6
     d64:	08 c0       	rjmp	.+16     	;  0xd76
     d66:	e5 e0       	ldi	r30, 0x05	; 5
     d68:	96 95       	lsr	r25
     d6a:	87 95       	ror	r24
     d6c:	ea 95       	dec	r30
     d6e:	e1 f7       	brne	.-8      	;  0xd68
     d70:	28 2f       	mov	r18, r24
     d72:	21 70       	andi	r18, 0x01	; 1
     d74:	07 c0       	rjmp	.+14     	;  0xd84
     d76:	cf 01       	movw	r24, r30
     d78:	0e 94 91 06 	call	0xd22	;  0xd22
     d7c:	20 e0       	ldi	r18, 0x00	; 0
     d7e:	0c 97       	sbiw	r24, 0x0c	; 12
     d80:	0c f0       	brlt	.+2      	;  0xd84
     d82:	21 e0       	ldi	r18, 0x01	; 1
     d84:	82 2f       	mov	r24, r18
     d86:	08 95       	ret
     d88:	fc 01       	movw	r30, r24
     d8a:	81 81       	ldd	r24, Z+1	; 0x01
     d8c:	28 2f       	mov	r18, r24
     d8e:	30 e0       	ldi	r19, 0x00	; 0
     d90:	b4 e0       	ldi	r27, 0x04	; 4
     d92:	35 95       	asr	r19
     d94:	27 95       	ror	r18
     d96:	ba 95       	dec	r27
     d98:	e1 f7       	brne	.-8      	;  0xd92
     d9a:	a9 01       	movw	r20, r18
     d9c:	a3 e0       	ldi	r26, 0x03	; 3
     d9e:	44 0f       	add	r20, r20
     da0:	55 1f       	adc	r21, r21
     da2:	aa 95       	dec	r26
     da4:	e1 f7       	brne	.-8      	;  0xd9e
     da6:	22 0f       	add	r18, r18
     da8:	33 1f       	adc	r19, r19
     daa:	42 0f       	add	r20, r18
     dac:	53 1f       	adc	r21, r19
     dae:	8f 70       	andi	r24, 0x0F	; 15
     db0:	84 0f       	add	r24, r20
     db2:	90 e0       	ldi	r25, 0x00	; 0
     db4:	08 95       	ret
     db6:	fc 01       	movw	r30, r24
     db8:	80 81       	ld	r24, Z
     dba:	28 2f       	mov	r18, r24
     dbc:	2f 77       	andi	r18, 0x7F	; 127
     dbe:	30 e0       	ldi	r19, 0x00	; 0
     dc0:	74 e0       	ldi	r23, 0x04	; 4
     dc2:	35 95       	asr	r19
     dc4:	27 95       	ror	r18
     dc6:	7a 95       	dec	r23
     dc8:	e1 f7       	brne	.-8      	;  0xdc2
     dca:	a9 01       	movw	r20, r18
     dcc:	63 e0       	ldi	r22, 0x03	; 3
     dce:	44 0f       	add	r20, r20
     dd0:	55 1f       	adc	r21, r21
     dd2:	6a 95       	dec	r22
     dd4:	e1 f7       	brne	.-8      	;  0xdce
     dd6:	22 0f       	add	r18, r18
     dd8:	33 1f       	adc	r19, r19
     dda:	42 0f       	add	r20, r18
     ddc:	53 1f       	adc	r21, r19
     dde:	8f 70       	andi	r24, 0x0F	; 15
     de0:	84 0f       	add	r24, r20
     de2:	90 e0       	ldi	r25, 0x00	; 0
     de4:	08 95       	ret
     de6:	fc 01       	movw	r30, r24
     de8:	86 81       	ldd	r24, Z+6	; 0x06
     dea:	28 2f       	mov	r18, r24
     dec:	30 e0       	ldi	r19, 0x00	; 0
     dee:	a4 e0       	ldi	r26, 0x04	; 4
     df0:	35 95       	asr	r19
     df2:	27 95       	ror	r18
     df4:	aa 95       	dec	r26
     df6:	e1 f7       	brne	.-8      	;  0xdf0
     df8:	a9 01       	movw	r20, r18
     dfa:	f3 e0       	ldi	r31, 0x03	; 3
     dfc:	44 0f       	add	r20, r20
     dfe:	55 1f       	adc	r21, r21
     e00:	fa 95       	dec	r31
     e02:	e1 f7       	brne	.-8      	;  0xdfc
     e04:	22 0f       	add	r18, r18
     e06:	33 1f       	adc	r19, r19
     e08:	42 0f       	add	r20, r18
     e0a:	53 1f       	adc	r21, r19
     e0c:	8f 70       	andi	r24, 0x0F	; 15
     e0e:	84 0f       	add	r24, r20
     e10:	90 e0       	ldi	r25, 0x00	; 0
     e12:	08 95       	ret
     e14:	fc 01       	movw	r30, r24
     e16:	85 81       	ldd	r24, Z+5	; 0x05
     e18:	28 2f       	mov	r18, r24
     e1a:	30 e0       	ldi	r19, 0x00	; 0
     e1c:	44 e0       	ldi	r20, 0x04	; 4
     e1e:	35 95       	asr	r19
     e20:	27 95       	ror	r18
     e22:	4a 95       	dec	r20
     e24:	e1 f7       	brne	.-8      	;  0xe1e
     e26:	a9 01       	movw	r20, r18
     e28:	93 e0       	ldi	r25, 0x03	; 3
     e2a:	44 0f       	add	r20, r20
     e2c:	55 1f       	adc	r21, r21
     e2e:	9a 95       	dec	r25
     e30:	e1 f7       	brne	.-8      	;  0xe2a
     e32:	22 0f       	add	r18, r18
     e34:	33 1f       	adc	r19, r19
     e36:	42 0f       	add	r20, r18
     e38:	53 1f       	adc	r21, r19
     e3a:	8f 70       	andi	r24, 0x0F	; 15
     e3c:	84 0f       	add	r24, r20
     e3e:	90 e0       	ldi	r25, 0x00	; 0
     e40:	08 95       	ret
     e42:	fc 01       	movw	r30, r24
     e44:	84 81       	ldd	r24, Z+4	; 0x04
     e46:	28 2f       	mov	r18, r24
     e48:	30 e0       	ldi	r19, 0x00	; 0
     e4a:	e4 e0       	ldi	r30, 0x04	; 4
     e4c:	35 95       	asr	r19
     e4e:	27 95       	ror	r18
     e50:	ea 95       	dec	r30
     e52:	e1 f7       	brne	.-8      	;  0xe4c
     e54:	a9 01       	movw	r20, r18
     e56:	73 e0       	ldi	r23, 0x03	; 3
     e58:	44 0f       	add	r20, r20
     e5a:	55 1f       	adc	r21, r21
     e5c:	7a 95       	dec	r23
     e5e:	e1 f7       	brne	.-8      	;  0xe58
     e60:	22 0f       	add	r18, r18
     e62:	33 1f       	adc	r19, r19
     e64:	42 0f       	add	r20, r18
     e66:	53 1f       	adc	r21, r19
     e68:	8f 70       	andi	r24, 0x0F	; 15
     e6a:	84 0f       	add	r24, r20
     e6c:	90 e0       	ldi	r25, 0x00	; 0
     e6e:	08 95       	ret
     e70:	fc 01       	movw	r30, r24
     e72:	83 81       	ldd	r24, Z+3	; 0x03
     e74:	28 2f       	mov	r18, r24
     e76:	30 e0       	ldi	r19, 0x00	; 0
     e78:	b4 e0       	ldi	r27, 0x04	; 4
     e7a:	35 95       	asr	r19
     e7c:	27 95       	ror	r18
     e7e:	ba 95       	dec	r27
     e80:	e1 f7       	brne	.-8      	;  0xe7a
     e82:	a9 01       	movw	r20, r18
     e84:	a3 e0       	ldi	r26, 0x03	; 3
     e86:	44 0f       	add	r20, r20
     e88:	55 1f       	adc	r21, r21
     e8a:	aa 95       	dec	r26
     e8c:	e1 f7       	brne	.-8      	;  0xe86
     e8e:	22 0f       	add	r18, r18
     e90:	33 1f       	adc	r19, r19
     e92:	42 0f       	add	r20, r18
     e94:	53 1f       	adc	r21, r19
     e96:	8f 70       	andi	r24, 0x0F	; 15
     e98:	84 0f       	add	r24, r20
     e9a:	90 e0       	ldi	r25, 0x00	; 0
     e9c:	08 95       	ret
     e9e:	cf 93       	push	r28
     ea0:	df 93       	push	r29
     ea2:	fc 01       	movw	r30, r24
     ea4:	eb 01       	movw	r28, r22
     ea6:	85 81       	ldd	r24, Z+5	; 0x05
     ea8:	8f 71       	andi	r24, 0x1F	; 31
     eaa:	90 e0       	ldi	r25, 0x00	; 0
     eac:	a4 e0       	ldi	r26, 0x04	; 4
     eae:	95 95       	asr	r25
     eb0:	87 95       	ror	r24
     eb2:	aa 95       	dec	r26
     eb4:	e1 f7       	brne	.-8      	;  0xeae
     eb6:	8f 70       	andi	r24, 0x0F	; 15
     eb8:	80 5d       	subi	r24, 0xD0	; 208
     eba:	88 83       	st	Y, r24
     ebc:	85 81       	ldd	r24, Z+5	; 0x05
     ebe:	8f 70       	andi	r24, 0x0F	; 15
     ec0:	8a 30       	cpi	r24, 0x0A	; 10
     ec2:	10 f4       	brcc	.+4      	;  0xec8
     ec4:	80 5d       	subi	r24, 0xD0	; 208
     ec6:	01 c0       	rjmp	.+2      	;  0xeca
     ec8:	89 5c       	subi	r24, 0xC9	; 201
     eca:	89 83       	std	Y+1, r24	; 0x01
     ecc:	8d e2       	ldi	r24, 0x2D	; 45
     ece:	8a 83       	std	Y+2, r24	; 0x02
     ed0:	84 81       	ldd	r24, Z+4	; 0x04
     ed2:	8f 73       	andi	r24, 0x3F	; 63
     ed4:	90 e0       	ldi	r25, 0x00	; 0
     ed6:	74 e0       	ldi	r23, 0x04	; 4
     ed8:	95 95       	asr	r25
     eda:	87 95       	ror	r24
     edc:	7a 95       	dec	r23
     ede:	e1 f7       	brne	.-8      	;  0xed8
     ee0:	8f 70       	andi	r24, 0x0F	; 15
     ee2:	8a 30       	cpi	r24, 0x0A	; 10
     ee4:	10 f4       	brcc	.+4      	;  0xeea
     ee6:	80 5d       	subi	r24, 0xD0	; 208
     ee8:	01 c0       	rjmp	.+2      	;  0xeec
     eea:	89 5c       	subi	r24, 0xC9	; 201
     eec:	8b 83       	std	Y+3, r24	; 0x03
     eee:	84 81       	ldd	r24, Z+4	; 0x04
     ef0:	8f 70       	andi	r24, 0x0F	; 15
     ef2:	8a 30       	cpi	r24, 0x0A	; 10
     ef4:	10 f4       	brcc	.+4      	;  0xefa
     ef6:	80 5d       	subi	r24, 0xD0	; 208
     ef8:	01 c0       	rjmp	.+2      	;  0xefc
     efa:	89 5c       	subi	r24, 0xC9	; 201
     efc:	8c 83       	std	Y+4, r24	; 0x04
     efe:	8d e2       	ldi	r24, 0x2D	; 45
     f00:	8d 83       	std	Y+5, r24	; 0x05
     f02:	86 81       	ldd	r24, Z+6	; 0x06
     f04:	90 e0       	ldi	r25, 0x00	; 0
     f06:	64 e0       	ldi	r22, 0x04	; 4
     f08:	95 95       	asr	r25
     f0a:	87 95       	ror	r24
     f0c:	6a 95       	dec	r22
     f0e:	e1 f7       	brne	.-8      	;  0xf08
     f10:	8f 70       	andi	r24, 0x0F	; 15
     f12:	8a 30       	cpi	r24, 0x0A	; 10
     f14:	10 f4       	brcc	.+4      	;  0xf1a
     f16:	80 5d       	subi	r24, 0xD0	; 208
     f18:	01 c0       	rjmp	.+2      	;  0xf1c
     f1a:	89 5c       	subi	r24, 0xC9	; 201
     f1c:	8e 83       	std	Y+6, r24	; 0x06
     f1e:	86 81       	ldd	r24, Z+6	; 0x06
     f20:	8f 70       	andi	r24, 0x0F	; 15
     f22:	8a 30       	cpi	r24, 0x0A	; 10
     f24:	10 f4       	brcc	.+4      	;  0xf2a
     f26:	80 5d       	subi	r24, 0xD0	; 208
     f28:	01 c0       	rjmp	.+2      	;  0xf2c
     f2a:	89 5c       	subi	r24, 0xC9	; 201
     f2c:	8f 83       	std	Y+7, r24	; 0x07
     f2e:	80 e2       	ldi	r24, 0x20	; 32
     f30:	88 87       	std	Y+8, r24	; 0x08
     f32:	82 81       	ldd	r24, Z+2	; 0x02
     f34:	86 ff       	sbrs	r24, 6
     f36:	09 c0       	rjmp	.+18     	;  0xf4a
     f38:	8f 71       	andi	r24, 0x1F	; 31
     f3a:	90 e0       	ldi	r25, 0x00	; 0
     f3c:	54 e0       	ldi	r21, 0x04	; 4
     f3e:	95 95       	asr	r25
     f40:	87 95       	ror	r24
     f42:	5a 95       	dec	r21
     f44:	e1 f7       	brne	.-8      	;  0xf3e
     f46:	8f 70       	andi	r24, 0x0F	; 15
     f48:	0a c0       	rjmp	.+20     	;  0xf5e
     f4a:	8f 73       	andi	r24, 0x3F	; 63
     f4c:	90 e0       	ldi	r25, 0x00	; 0
     f4e:	44 e0       	ldi	r20, 0x04	; 4
     f50:	95 95       	asr	r25
     f52:	87 95       	ror	r24
     f54:	4a 95       	dec	r20
     f56:	e1 f7       	brne	.-8      	;  0xf50
     f58:	8f 70       	andi	r24, 0x0F	; 15
     f5a:	8a 30       	cpi	r24, 0x0A	; 10
     f5c:	10 f4       	brcc	.+4      	;  0xf62
     f5e:	80 5d       	subi	r24, 0xD0	; 208
     f60:	01 c0       	rjmp	.+2      	;  0xf64
     f62:	89 5c       	subi	r24, 0xC9	; 201
     f64:	89 87       	std	Y+9, r24	; 0x09
     f66:	82 81       	ldd	r24, Z+2	; 0x02
     f68:	8f 70       	andi	r24, 0x0F	; 15
     f6a:	8a 30       	cpi	r24, 0x0A	; 10
     f6c:	10 f4       	brcc	.+4      	;  0xf72
     f6e:	80 5d       	subi	r24, 0xD0	; 208
     f70:	01 c0       	rjmp	.+2      	;  0xf74
     f72:	89 5c       	subi	r24, 0xC9	; 201
     f74:	8a 87       	std	Y+10, r24	; 0x0a
     f76:	8a e3       	ldi	r24, 0x3A	; 58
     f78:	8b 87       	std	Y+11, r24	; 0x0b
     f7a:	81 81       	ldd	r24, Z+1	; 0x01
     f7c:	8f 77       	andi	r24, 0x7F	; 127
     f7e:	90 e0       	ldi	r25, 0x00	; 0
     f80:	34 e0       	ldi	r19, 0x04	; 4
     f82:	95 95       	asr	r25
     f84:	87 95       	ror	r24
     f86:	3a 95       	dec	r19
     f88:	e1 f7       	brne	.-8      	;  0xf82
     f8a:	8f 70       	andi	r24, 0x0F	; 15
     f8c:	8a 30       	cpi	r24, 0x0A	; 10
     f8e:	10 f4       	brcc	.+4      	;  0xf94
     f90:	80 5d       	subi	r24, 0xD0	; 208
     f92:	01 c0       	rjmp	.+2      	;  0xf96
     f94:	89 5c       	subi	r24, 0xC9	; 201
     f96:	8c 87       	std	Y+12, r24	; 0x0c
     f98:	81 81       	ldd	r24, Z+1	; 0x01
     f9a:	8f 70       	andi	r24, 0x0F	; 15
     f9c:	8a 30       	cpi	r24, 0x0A	; 10
     f9e:	10 f4       	brcc	.+4      	;  0xfa4
     fa0:	80 5d       	subi	r24, 0xD0	; 208
     fa2:	01 c0       	rjmp	.+2      	;  0xfa6
     fa4:	89 5c       	subi	r24, 0xC9	; 201
     fa6:	8d 87       	std	Y+13, r24	; 0x0d
     fa8:	8a e3       	ldi	r24, 0x3A	; 58
     faa:	8e 87       	std	Y+14, r24	; 0x0e
     fac:	80 81       	ld	r24, Z
     fae:	8f 77       	andi	r24, 0x7F	; 127
     fb0:	90 e0       	ldi	r25, 0x00	; 0
     fb2:	24 e0       	ldi	r18, 0x04	; 4
     fb4:	95 95       	asr	r25
     fb6:	87 95       	ror	r24
     fb8:	2a 95       	dec	r18
     fba:	e1 f7       	brne	.-8      	;  0xfb4
     fbc:	8f 70       	andi	r24, 0x0F	; 15
     fbe:	8a 30       	cpi	r24, 0x0A	; 10
     fc0:	10 f4       	brcc	.+4      	;  0xfc6
     fc2:	80 5d       	subi	r24, 0xD0	; 208
     fc4:	01 c0       	rjmp	.+2      	;  0xfc8
     fc6:	89 5c       	subi	r24, 0xC9	; 201
     fc8:	8f 87       	std	Y+15, r24	; 0x0f
     fca:	80 81       	ld	r24, Z
     fcc:	8f 70       	andi	r24, 0x0F	; 15
     fce:	8a 30       	cpi	r24, 0x0A	; 10
     fd0:	10 f4       	brcc	.+4      	;  0xfd6
     fd2:	80 5d       	subi	r24, 0xD0	; 208
     fd4:	01 c0       	rjmp	.+2      	;  0xfd8
     fd6:	89 5c       	subi	r24, 0xC9	; 201
     fd8:	88 8b       	std	Y+16, r24	; 0x10
     fda:	82 81       	ldd	r24, Z+2	; 0x02
     fdc:	86 fd       	sbrc	r24, 6
     fde:	03 c0       	rjmp	.+6      	;  0xfe6
     fe0:	e1 e1       	ldi	r30, 0x11	; 17
     fe2:	f0 e0       	ldi	r31, 0x00	; 0
     fe4:	0b c0       	rjmp	.+22     	;  0xffc
     fe6:	cf 01       	movw	r24, r30
     fe8:	0e 94 ae 06 	call	0xd5c	;  0xd5c
     fec:	88 23       	and	r24, r24
     fee:	11 f0       	breq	.+4      	;  0xff4
     ff0:	80 e5       	ldi	r24, 0x50	; 80
     ff2:	01 c0       	rjmp	.+2      	;  0xff6
     ff4:	81 e4       	ldi	r24, 0x41	; 65
     ff6:	89 8b       	std	Y+17, r24	; 0x11
     ff8:	e2 e1       	ldi	r30, 0x12	; 18
     ffa:	f0 e0       	ldi	r31, 0x00	; 0
     ffc:	ec 0f       	add	r30, r28
     ffe:	fd 1f       	adc	r31, r29
    1000:	10 82       	st	Z, r1
    1002:	df 91       	pop	r29
    1004:	cf 91       	pop	r28
    1006:	08 95       	ret
    1008:	fc 01       	movw	r30, r24
    100a:	82 81       	ldd	r24, Z+2	; 0x02
    100c:	8f 7b       	andi	r24, 0xBF	; 191
    100e:	82 83       	std	Z+2, r24	; 0x02
    1010:	08 95       	ret
    1012:	fc 01       	movw	r30, r24
    1014:	82 81       	ldd	r24, Z+2	; 0x02
    1016:	8f 79       	andi	r24, 0x9F	; 159
    1018:	80 64       	ori	r24, 0x40	; 64
    101a:	82 83       	std	Z+2, r24	; 0x02
    101c:	08 95       	ret
    101e:	fc 01       	movw	r30, r24
    1020:	82 81       	ldd	r24, Z+2	; 0x02
    1022:	80 66       	ori	r24, 0x60	; 96
    1024:	82 83       	std	Z+2, r24	; 0x02
    1026:	08 95       	ret
    1028:	26 2f       	mov	r18, r22
    102a:	86 2f       	mov	r24, r22
    102c:	6a e0       	ldi	r22, 0x0A	; 10
    102e:	0e 94 96 26 	call	0x4d2c	;  0x4d2c
    1032:	38 2f       	mov	r19, r24
    1034:	32 95       	swap	r19
    1036:	30 7f       	andi	r19, 0xF0	; 240
    1038:	82 2f       	mov	r24, r18
    103a:	0e 94 96 26 	call	0x4d2c	;  0x4d2c
    103e:	83 2f       	mov	r24, r19
    1040:	89 0f       	add	r24, r25
    1042:	08 95       	ret
    1044:	cf 93       	push	r28
    1046:	df 93       	push	r29
    1048:	ec 01       	movw	r28, r24
    104a:	64 36       	cpi	r22, 0x64	; 100
    104c:	71 05       	cpc	r23, r1
    104e:	18 f4       	brcc	.+6      	;  0x1056
    1050:	0e 94 14 08 	call	0x1028	;  0x1028
    1054:	8e 83       	std	Y+6, r24	; 0x06
    1056:	df 91       	pop	r29
    1058:	cf 91       	pop	r28
    105a:	08 95       	ret
    105c:	cf 93       	push	r28
    105e:	df 93       	push	r29
    1060:	ec 01       	movw	r28, r24
    1062:	cb 01       	movw	r24, r22
    1064:	01 97       	sbiw	r24, 0x01	; 1
    1066:	0c 97       	sbiw	r24, 0x0c	; 12
    1068:	20 f4       	brcc	.+8      	;  0x1072
    106a:	ce 01       	movw	r24, r28
    106c:	0e 94 14 08 	call	0x1028	;  0x1028
    1070:	8d 83       	std	Y+5, r24	; 0x05
    1072:	df 91       	pop	r29
    1074:	cf 91       	pop	r28
    1076:	08 95       	ret
    1078:	cf 93       	push	r28
    107a:	df 93       	push	r29
    107c:	ec 01       	movw	r28, r24
    107e:	cb 01       	movw	r24, r22
    1080:	01 97       	sbiw	r24, 0x01	; 1
    1082:	4f 97       	sbiw	r24, 0x1f	; 31
    1084:	20 f4       	brcc	.+8      	;  0x108e
    1086:	ce 01       	movw	r24, r28
    1088:	0e 94 14 08 	call	0x1028	;  0x1028
    108c:	8c 83       	std	Y+4, r24	; 0x04
    108e:	df 91       	pop	r29
    1090:	cf 91       	pop	r28
    1092:	08 95       	ret
    1094:	cf 93       	push	r28
    1096:	df 93       	push	r29
    1098:	ec 01       	movw	r28, r24
    109a:	cb 01       	movw	r24, r22
    109c:	01 97       	sbiw	r24, 0x01	; 1
    109e:	07 97       	sbiw	r24, 0x07	; 7
    10a0:	20 f4       	brcc	.+8      	;  0x10aa
    10a2:	ce 01       	movw	r24, r28
    10a4:	0e 94 14 08 	call	0x1028	;  0x1028
    10a8:	8b 83       	std	Y+3, r24	; 0x03
    10aa:	df 91       	pop	r29
    10ac:	cf 91       	pop	r28
    10ae:	08 95       	ret
    10b0:	1f 93       	push	r17
    10b2:	cf 93       	push	r28
    10b4:	df 93       	push	r29
    10b6:	ec 01       	movw	r28, r24
    10b8:	1a 81       	ldd	r17, Y+2	; 0x02
    10ba:	16 ff       	sbrs	r17, 6
    10bc:	09 c0       	rjmp	.+18     	;  0x10d0
    10be:	cb 01       	movw	r24, r22
    10c0:	01 97       	sbiw	r24, 0x01	; 1
    10c2:	0c 97       	sbiw	r24, 0x0c	; 12
    10c4:	68 f4       	brcc	.+26     	;  0x10e0
    10c6:	ce 01       	movw	r24, r28
    10c8:	0e 94 14 08 	call	0x1028	;  0x1028
    10cc:	10 76       	andi	r17, 0x60	; 96
    10ce:	06 c0       	rjmp	.+12     	;  0x10dc
    10d0:	69 31       	cpi	r22, 0x19	; 25
    10d2:	71 05       	cpc	r23, r1
    10d4:	28 f4       	brcc	.+10     	;  0x10e0
    10d6:	0e 94 14 08 	call	0x1028	;  0x1028
    10da:	10 74       	andi	r17, 0x40	; 64
    10dc:	18 2b       	or	r17, r24
    10de:	1a 83       	std	Y+2, r17	; 0x02
    10e0:	df 91       	pop	r29
    10e2:	cf 91       	pop	r28
    10e4:	1f 91       	pop	r17
    10e6:	08 95       	ret
    10e8:	1f 93       	push	r17
    10ea:	cf 93       	push	r28
    10ec:	df 93       	push	r29
    10ee:	ec 01       	movw	r28, r24
    10f0:	1a 81       	ldd	r17, Y+2	; 0x02
    10f2:	16 fd       	sbrc	r17, 6
    10f4:	15 c0       	rjmp	.+42     	;  0x1120
    10f6:	0e 94 91 06 	call	0xd22	;  0xd22
    10fa:	bc 01       	movw	r22, r24
    10fc:	8c 30       	cpi	r24, 0x0C	; 12
    10fe:	91 05       	cpc	r25, r1
    1100:	1c f4       	brge	.+6      	;  0x1108
    1102:	1f 79       	andi	r17, 0x9F	; 159
    1104:	10 64       	ori	r17, 0x40	; 64
    1106:	03 c0       	rjmp	.+6      	;  0x110e
    1108:	6c 50       	subi	r22, 0x0C	; 12
    110a:	70 40       	sbci	r23, 0x00	; 0
    110c:	10 66       	ori	r17, 0x60	; 96
    110e:	1a 83       	std	Y+2, r17	; 0x02
    1110:	61 15       	cp	r22, r1
    1112:	71 05       	cpc	r23, r1
    1114:	11 f4       	brne	.+4      	;  0x111a
    1116:	6c e0       	ldi	r22, 0x0C	; 12
    1118:	70 e0       	ldi	r23, 0x00	; 0
    111a:	ce 01       	movw	r24, r28
    111c:	0e 94 58 08 	call	0x10b0	;  0x10b0
    1120:	df 91       	pop	r29
    1122:	cf 91       	pop	r28
    1124:	1f 91       	pop	r17
    1126:	08 95       	ret
    1128:	ff 92       	push	r15
    112a:	0f 93       	push	r16
    112c:	1f 93       	push	r17
    112e:	cf 93       	push	r28
    1130:	df 93       	push	r29
    1132:	8c 01       	movw	r16, r24
    1134:	fc 01       	movw	r30, r24
    1136:	f2 80       	ldd	r15, Z+2	; 0x02
    1138:	f6 fe       	sbrs	r15, 6
    113a:	15 c0       	rjmp	.+42     	;  0x1166
    113c:	0e 94 91 06 	call	0xd22	;  0xd22
    1140:	ec 01       	movw	r28, r24
    1142:	8c 30       	cpi	r24, 0x0C	; 12
    1144:	91 05       	cpc	r25, r1
    1146:	11 f4       	brne	.+4      	;  0x114c
    1148:	c0 e0       	ldi	r28, 0x00	; 0
    114a:	d0 e0       	ldi	r29, 0x00	; 0
    114c:	c8 01       	movw	r24, r16
    114e:	0e 94 ae 06 	call	0xd5c	;  0xd5c
    1152:	81 11       	cpse	r24, r1
    1154:	2c 96       	adiw	r28, 0x0c	; 12
    1156:	ff eb       	ldi	r31, 0xBF	; 191
    1158:	ff 22       	and	r15, r31
    115a:	f8 01       	movw	r30, r16
    115c:	f2 82       	std	Z+2, r15	; 0x02
    115e:	c8 01       	movw	r24, r16
    1160:	be 01       	movw	r22, r28
    1162:	0e 94 58 08 	call	0x10b0	;  0x10b0
    1166:	df 91       	pop	r29
    1168:	cf 91       	pop	r28
    116a:	1f 91       	pop	r17
    116c:	0f 91       	pop	r16
    116e:	ff 90       	pop	r15
    1170:	08 95       	ret
    1172:	cf 93       	push	r28
    1174:	df 93       	push	r29
    1176:	ec 01       	movw	r28, r24
    1178:	6c 33       	cpi	r22, 0x3C	; 60
    117a:	71 05       	cpc	r23, r1
    117c:	18 f4       	brcc	.+6      	;  0x1184
    117e:	0e 94 14 08 	call	0x1028	;  0x1028
    1182:	89 83       	std	Y+1, r24	; 0x01
    1184:	df 91       	pop	r29
    1186:	cf 91       	pop	r28
    1188:	08 95       	ret
    118a:	cf 93       	push	r28
    118c:	df 93       	push	r29
    118e:	ec 01       	movw	r28, r24
    1190:	6c 33       	cpi	r22, 0x3C	; 60
    1192:	71 05       	cpc	r23, r1
    1194:	30 f4       	brcc	.+12     	;  0x11a2
    1196:	0e 94 14 08 	call	0x1028	;  0x1028
    119a:	98 81       	ld	r25, Y
    119c:	90 78       	andi	r25, 0x80	; 128
    119e:	98 2b       	or	r25, r24
    11a0:	98 83       	st	Y, r25
    11a2:	df 91       	pop	r29
    11a4:	cf 91       	pop	r28
    11a6:	08 95       	ret
    11a8:	86 2f       	mov	r24, r22
    11aa:	26 2f       	mov	r18, r22
    11ac:	30 e0       	ldi	r19, 0x00	; 0
    11ae:	44 e0       	ldi	r20, 0x04	; 4
    11b0:	35 95       	asr	r19
    11b2:	27 95       	ror	r18
    11b4:	4a 95       	dec	r20
    11b6:	e1 f7       	brne	.-8      	;  0x11b0
    11b8:	a9 01       	movw	r20, r18
    11ba:	93 e0       	ldi	r25, 0x03	; 3
    11bc:	44 0f       	add	r20, r20
    11be:	55 1f       	adc	r21, r21
    11c0:	9a 95       	dec	r25
    11c2:	e1 f7       	brne	.-8      	;  0x11bc
    11c4:	22 0f       	add	r18, r18
    11c6:	33 1f       	adc	r19, r19
    11c8:	42 0f       	add	r20, r18
    11ca:	53 1f       	adc	r21, r19
    11cc:	8f 70       	andi	r24, 0x0F	; 15
    11ce:	84 0f       	add	r24, r20
    11d0:	08 95       	ret
    11d2:	6f 70       	andi	r22, 0x0F	; 15
    11d4:	6a 30       	cpi	r22, 0x0A	; 10
    11d6:	18 f4       	brcc	.+6      	;  0x11de
    11d8:	86 2f       	mov	r24, r22
    11da:	80 5d       	subi	r24, 0xD0	; 208
    11dc:	08 95       	ret
    11de:	86 2f       	mov	r24, r22
    11e0:	89 5c       	subi	r24, 0xC9	; 201
    11e2:	08 95       	ret
    11e4:	70 e0       	ldi	r23, 0x00	; 0
    11e6:	54 e0       	ldi	r21, 0x04	; 4
    11e8:	75 95       	asr	r23
    11ea:	67 95       	ror	r22
    11ec:	5a 95       	dec	r21
    11ee:	e1 f7       	brne	.-8      	;  0x11e8
    11f0:	6f 70       	andi	r22, 0x0F	; 15
    11f2:	6a 30       	cpi	r22, 0x0A	; 10
    11f4:	18 f4       	brcc	.+6      	;  0x11fc
    11f6:	86 2f       	mov	r24, r22
    11f8:	80 5d       	subi	r24, 0xD0	; 208
    11fa:	08 95       	ret
    11fc:	86 2f       	mov	r24, r22
    11fe:	89 5c       	subi	r24, 0xC9	; 201
    1200:	08 95       	ret
    1202:	08 95       	ret
    1204:	0f 93       	push	r16
    1206:	1f 93       	push	r17
    1208:	16 2f       	mov	r17, r22
    120a:	04 2f       	mov	r16, r20
    120c:	60 34       	cpi	r22, 0x40	; 64
    120e:	a0 f4       	brcc	.+40     	;  0x1238
    1210:	81 e6       	ldi	r24, 0x61	; 97
    1212:	96 e0       	ldi	r25, 0x06	; 6
    1214:	68 e6       	ldi	r22, 0x68	; 104
    1216:	70 e0       	ldi	r23, 0x00	; 0
    1218:	0e 94 2b 0e 	call	0x1c56	;  0x1c56
    121c:	81 e6       	ldi	r24, 0x61	; 97
    121e:	96 e0       	ldi	r25, 0x06	; 6
    1220:	61 2f       	mov	r22, r17
    1222:	0e 94 88 0e 	call	0x1d10	;  0x1d10
    1226:	81 e6       	ldi	r24, 0x61	; 97
    1228:	96 e0       	ldi	r25, 0x06	; 6
    122a:	60 2f       	mov	r22, r16
    122c:	0e 94 88 0e 	call	0x1d10	;  0x1d10
    1230:	81 e6       	ldi	r24, 0x61	; 97
    1232:	96 e0       	ldi	r25, 0x06	; 6
    1234:	0e 94 dc 0e 	call	0x1db8	;  0x1db8
    1238:	1f 91       	pop	r17
    123a:	0f 91       	pop	r16
    123c:	08 95       	ret
    123e:	fc 01       	movw	r30, r24
    1240:	46 2f       	mov	r20, r22
    1242:	47 95       	ror	r20
    1244:	44 27       	eor	r20, r20
    1246:	47 95       	ror	r20
    1248:	87 81       	ldd	r24, Z+7	; 0x07
    124a:	8f 76       	andi	r24, 0x6F	; 111
    124c:	48 2b       	or	r20, r24
    124e:	47 83       	std	Z+7, r20	; 0x07
    1250:	cf 01       	movw	r24, r30
    1252:	67 e0       	ldi	r22, 0x07	; 7
    1254:	0e 94 02 09 	call	0x1204	;  0x1204
    1258:	08 95       	ret
    125a:	fc 01       	movw	r30, r24
    125c:	64 30       	cpi	r22, 0x04	; 4
    125e:	40 f4       	brcc	.+16     	;  0x1270
    1260:	47 81       	ldd	r20, Z+7	; 0x07
    1262:	40 78       	andi	r20, 0x80	; 128
    1264:	40 61       	ori	r20, 0x10	; 16
    1266:	46 2b       	or	r20, r22
    1268:	47 83       	std	Z+7, r20	; 0x07
    126a:	67 e0       	ldi	r22, 0x07	; 7
    126c:	0e 94 02 09 	call	0x1204	;  0x1204
    1270:	08 95       	ret
    1272:	fc 01       	movw	r30, r24
    1274:	40 81       	ld	r20, Z
    1276:	4f 77       	andi	r20, 0x7F	; 127
    1278:	40 83       	st	Z, r20
    127a:	60 e0       	ldi	r22, 0x00	; 0
    127c:	0e 94 02 09 	call	0x1204	;  0x1204
    1280:	08 95       	ret
    1282:	fc 01       	movw	r30, r24
    1284:	40 81       	ld	r20, Z
    1286:	40 68       	ori	r20, 0x80	; 128
    1288:	40 83       	st	Z, r20
    128a:	60 e0       	ldi	r22, 0x00	; 0
    128c:	0e 94 02 09 	call	0x1204	;  0x1204
    1290:	08 95       	ret
    1292:	cf 92       	push	r12
    1294:	df 92       	push	r13
    1296:	ff 92       	push	r15
    1298:	0f 93       	push	r16
    129a:	1f 93       	push	r17
    129c:	cf 93       	push	r28
    129e:	df 93       	push	r29
    12a0:	f6 2e       	mov	r15, r22
    12a2:	6a 01       	movw	r12, r20
    12a4:	89 01       	movw	r16, r18
    12a6:	8f e3       	ldi	r24, 0x3F	; 63
    12a8:	86 17       	cp	r24, r22
    12aa:	40 f1       	brcs	.+80     	;  0x12fc
    12ac:	20 34       	cpi	r18, 0x40	; 64
    12ae:	31 05       	cpc	r19, r1
    12b0:	2c f5       	brge	.+74     	;  0x12fc
    12b2:	81 e6       	ldi	r24, 0x61	; 97
    12b4:	96 e0       	ldi	r25, 0x06	; 6
    12b6:	68 e6       	ldi	r22, 0x68	; 104
    12b8:	70 e0       	ldi	r23, 0x00	; 0
    12ba:	0e 94 2b 0e 	call	0x1c56	;  0x1c56
    12be:	81 e6       	ldi	r24, 0x61	; 97
    12c0:	96 e0       	ldi	r25, 0x06	; 6
    12c2:	6f 2d       	mov	r22, r15
    12c4:	0e 94 88 0e 	call	0x1d10	;  0x1d10
    12c8:	81 e6       	ldi	r24, 0x61	; 97
    12ca:	96 e0       	ldi	r25, 0x06	; 6
    12cc:	0e 94 dc 0e 	call	0x1db8	;  0x1db8
    12d0:	81 e6       	ldi	r24, 0x61	; 97
    12d2:	96 e0       	ldi	r25, 0x06	; 6
    12d4:	68 e6       	ldi	r22, 0x68	; 104
    12d6:	70 e0       	ldi	r23, 0x00	; 0
    12d8:	a8 01       	movw	r20, r16
    12da:	0e 94 f9 0e 	call	0x1df2	;  0x1df2
    12de:	c0 e0       	ldi	r28, 0x00	; 0
    12e0:	d0 e0       	ldi	r29, 0x00	; 0
    12e2:	09 c0       	rjmp	.+18     	;  0x12f6
    12e4:	81 e6       	ldi	r24, 0x61	; 97
    12e6:	96 e0       	ldi	r25, 0x06	; 6
    12e8:	0e 94 3b 0e 	call	0x1c76	;  0x1c76
    12ec:	f6 01       	movw	r30, r12
    12ee:	ec 0f       	add	r30, r28
    12f0:	fd 1f       	adc	r31, r29
    12f2:	80 83       	st	Z, r24
    12f4:	21 96       	adiw	r28, 0x01	; 1
    12f6:	c0 17       	cp	r28, r16
    12f8:	d1 07       	cpc	r29, r17
    12fa:	a4 f3       	brlt	.-24     	;  0x12e4
    12fc:	df 91       	pop	r29
    12fe:	cf 91       	pop	r28
    1300:	1f 91       	pop	r17
    1302:	0f 91       	pop	r16
    1304:	ff 90       	pop	r15
    1306:	df 90       	pop	r13
    1308:	cf 90       	pop	r12
    130a:	08 95       	ret
    130c:	1f 93       	push	r17
    130e:	16 2f       	mov	r17, r22
    1310:	60 34       	cpi	r22, 0x40	; 64
    1312:	10 f0       	brcs	.+4      	;  0x1318
    1314:	8f ef       	ldi	r24, 0xFF	; 255
    1316:	1b c0       	rjmp	.+54     	;  0x134e
    1318:	81 e6       	ldi	r24, 0x61	; 97
    131a:	96 e0       	ldi	r25, 0x06	; 6
    131c:	68 e6       	ldi	r22, 0x68	; 104
    131e:	70 e0       	ldi	r23, 0x00	; 0
    1320:	0e 94 2b 0e 	call	0x1c56	;  0x1c56
    1324:	81 e6       	ldi	r24, 0x61	; 97
    1326:	96 e0       	ldi	r25, 0x06	; 6
    1328:	61 2f       	mov	r22, r17
    132a:	0e 94 88 0e 	call	0x1d10	;  0x1d10
    132e:	81 e6       	ldi	r24, 0x61	; 97
    1330:	96 e0       	ldi	r25, 0x06	; 6
    1332:	0e 94 dc 0e 	call	0x1db8	;  0x1db8
    1336:	81 e6       	ldi	r24, 0x61	; 97
    1338:	96 e0       	ldi	r25, 0x06	; 6
    133a:	68 e6       	ldi	r22, 0x68	; 104
    133c:	70 e0       	ldi	r23, 0x00	; 0
    133e:	41 e0       	ldi	r20, 0x01	; 1
    1340:	50 e0       	ldi	r21, 0x00	; 0
    1342:	0e 94 f9 0e 	call	0x1df2	;  0x1df2
    1346:	81 e6       	ldi	r24, 0x61	; 97
    1348:	96 e0       	ldi	r25, 0x06	; 6
    134a:	0e 94 3b 0e 	call	0x1c76	;  0x1c76
    134e:	1f 91       	pop	r17
    1350:	08 95       	ret
    1352:	cf 92       	push	r12
    1354:	df 92       	push	r13
    1356:	ff 92       	push	r15
    1358:	0f 93       	push	r16
    135a:	1f 93       	push	r17
    135c:	cf 93       	push	r28
    135e:	df 93       	push	r29
    1360:	f6 2e       	mov	r15, r22
    1362:	6a 01       	movw	r12, r20
    1364:	89 01       	movw	r16, r18
    1366:	8f e3       	ldi	r24, 0x3F	; 63
    1368:	86 17       	cp	r24, r22
    136a:	10 f1       	brcs	.+68     	;  0x13b0
    136c:	20 34       	cpi	r18, 0x40	; 64
    136e:	31 05       	cpc	r19, r1
    1370:	fc f4       	brge	.+62     	;  0x13b0
    1372:	81 e6       	ldi	r24, 0x61	; 97
    1374:	96 e0       	ldi	r25, 0x06	; 6
    1376:	68 e6       	ldi	r22, 0x68	; 104
    1378:	70 e0       	ldi	r23, 0x00	; 0
    137a:	0e 94 2b 0e 	call	0x1c56	;  0x1c56
    137e:	81 e6       	ldi	r24, 0x61	; 97
    1380:	96 e0       	ldi	r25, 0x06	; 6
    1382:	6f 2d       	mov	r22, r15
    1384:	0e 94 88 0e 	call	0x1d10	;  0x1d10
    1388:	c0 e0       	ldi	r28, 0x00	; 0
    138a:	d0 e0       	ldi	r29, 0x00	; 0
    138c:	0a c0       	rjmp	.+20     	;  0x13a2
    138e:	f6 01       	movw	r30, r12
    1390:	ec 0f       	add	r30, r28
    1392:	fd 1f       	adc	r31, r29
    1394:	60 81       	ld	r22, Z
    1396:	81 e6       	ldi	r24, 0x61	; 97
    1398:	96 e0       	ldi	r25, 0x06	; 6
    139a:	70 e0       	ldi	r23, 0x00	; 0
    139c:	0e 94 ac 0e 	call	0x1d58	;  0x1d58
    13a0:	21 96       	adiw	r28, 0x01	; 1
    13a2:	c0 17       	cp	r28, r16
    13a4:	d1 07       	cpc	r29, r17
    13a6:	9c f3       	brlt	.-26     	;  0x138e
    13a8:	81 e6       	ldi	r24, 0x61	; 97
    13aa:	96 e0       	ldi	r25, 0x06	; 6
    13ac:	0e 94 dc 0e 	call	0x1db8	;  0x1db8
    13b0:	df 91       	pop	r29
    13b2:	cf 91       	pop	r28
    13b4:	1f 91       	pop	r17
    13b6:	0f 91       	pop	r16
    13b8:	ff 90       	pop	r15
    13ba:	df 90       	pop	r13
    13bc:	cf 90       	pop	r12
    13be:	08 95       	ret
    13c0:	ef 92       	push	r14
    13c2:	ff 92       	push	r15
    13c4:	0f 93       	push	r16
    13c6:	1f 93       	push	r17
    13c8:	7c 01       	movw	r14, r24
    13ca:	60 e0       	ldi	r22, 0x00	; 0
    13cc:	40 e8       	ldi	r20, 0x80	; 128
    13ce:	0e 94 02 09 	call	0x1204	;  0x1204
    13d2:	01 e6       	ldi	r16, 0x61	; 97
    13d4:	16 e0       	ldi	r17, 0x06	; 6
    13d6:	c8 01       	movw	r24, r16
    13d8:	68 e6       	ldi	r22, 0x68	; 104
    13da:	70 e0       	ldi	r23, 0x00	; 0
    13dc:	0e 94 2b 0e 	call	0x1c56	;  0x1c56
    13e0:	c8 01       	movw	r24, r16
    13e2:	61 e0       	ldi	r22, 0x01	; 1
    13e4:	70 e0       	ldi	r23, 0x00	; 0
    13e6:	0e 94 ac 0e 	call	0x1d58	;  0x1d58
    13ea:	c8 01       	movw	r24, r16
    13ec:	f7 01       	movw	r30, r14
    13ee:	61 81       	ldd	r22, Z+1	; 0x01
    13f0:	0e 94 88 0e 	call	0x1d10	;  0x1d10
    13f4:	c8 01       	movw	r24, r16
    13f6:	f7 01       	movw	r30, r14
    13f8:	62 81       	ldd	r22, Z+2	; 0x02
    13fa:	0e 94 88 0e 	call	0x1d10	;  0x1d10
    13fe:	c8 01       	movw	r24, r16
    1400:	f7 01       	movw	r30, r14
    1402:	63 81       	ldd	r22, Z+3	; 0x03
    1404:	0e 94 88 0e 	call	0x1d10	;  0x1d10
    1408:	c8 01       	movw	r24, r16
    140a:	f7 01       	movw	r30, r14
    140c:	64 81       	ldd	r22, Z+4	; 0x04
    140e:	0e 94 88 0e 	call	0x1d10	;  0x1d10
    1412:	c8 01       	movw	r24, r16
    1414:	f7 01       	movw	r30, r14
    1416:	65 81       	ldd	r22, Z+5	; 0x05
    1418:	0e 94 88 0e 	call	0x1d10	;  0x1d10
    141c:	c8 01       	movw	r24, r16
    141e:	f7 01       	movw	r30, r14
    1420:	66 81       	ldd	r22, Z+6	; 0x06
    1422:	0e 94 88 0e 	call	0x1d10	;  0x1d10
    1426:	c8 01       	movw	r24, r16
    1428:	0e 94 dc 0e 	call	0x1db8	;  0x1db8
    142c:	c7 01       	movw	r24, r14
    142e:	60 e0       	ldi	r22, 0x00	; 0
    1430:	f7 01       	movw	r30, r14
    1432:	40 81       	ld	r20, Z
    1434:	0e 94 02 09 	call	0x1204	;  0x1204
    1438:	1f 91       	pop	r17
    143a:	0f 91       	pop	r16
    143c:	ff 90       	pop	r15
    143e:	ef 90       	pop	r14
    1440:	08 95       	ret
    1442:	ef 92       	push	r14
    1444:	ff 92       	push	r15
    1446:	0f 93       	push	r16
    1448:	1f 93       	push	r17
    144a:	7c 01       	movw	r14, r24
    144c:	01 e6       	ldi	r16, 0x61	; 97
    144e:	16 e0       	ldi	r17, 0x06	; 6
    1450:	c8 01       	movw	r24, r16
    1452:	68 e6       	ldi	r22, 0x68	; 104
    1454:	70 e0       	ldi	r23, 0x00	; 0
    1456:	0e 94 2b 0e 	call	0x1c56	;  0x1c56
    145a:	c8 01       	movw	r24, r16
    145c:	60 e0       	ldi	r22, 0x00	; 0
    145e:	70 e0       	ldi	r23, 0x00	; 0
    1460:	0e 94 ac 0e 	call	0x1d58	;  0x1d58
    1464:	c8 01       	movw	r24, r16
    1466:	0e 94 dc 0e 	call	0x1db8	;  0x1db8
    146a:	c8 01       	movw	r24, r16
    146c:	68 e6       	ldi	r22, 0x68	; 104
    146e:	70 e0       	ldi	r23, 0x00	; 0
    1470:	48 e0       	ldi	r20, 0x08	; 8
    1472:	50 e0       	ldi	r21, 0x00	; 0
    1474:	0e 94 f9 0e 	call	0x1df2	;  0x1df2
    1478:	c8 01       	movw	r24, r16
    147a:	0e 94 3b 0e 	call	0x1c76	;  0x1c76
    147e:	f7 01       	movw	r30, r14
    1480:	80 83       	st	Z, r24
    1482:	c8 01       	movw	r24, r16
    1484:	0e 94 3b 0e 	call	0x1c76	;  0x1c76
    1488:	f7 01       	movw	r30, r14
    148a:	81 83       	std	Z+1, r24	; 0x01
    148c:	c8 01       	movw	r24, r16
    148e:	0e 94 3b 0e 	call	0x1c76	;  0x1c76
    1492:	f7 01       	movw	r30, r14
    1494:	82 83       	std	Z+2, r24	; 0x02
    1496:	c8 01       	movw	r24, r16
    1498:	0e 94 3b 0e 	call	0x1c76	;  0x1c76
    149c:	f7 01       	movw	r30, r14
    149e:	83 83       	std	Z+3, r24	; 0x03
    14a0:	c8 01       	movw	r24, r16
    14a2:	0e 94 3b 0e 	call	0x1c76	;  0x1c76
    14a6:	f7 01       	movw	r30, r14
    14a8:	84 83       	std	Z+4, r24	; 0x04
    14aa:	c8 01       	movw	r24, r16
    14ac:	0e 94 3b 0e 	call	0x1c76	;  0x1c76
    14b0:	f7 01       	movw	r30, r14
    14b2:	85 83       	std	Z+5, r24	; 0x05
    14b4:	c8 01       	movw	r24, r16
    14b6:	0e 94 3b 0e 	call	0x1c76	;  0x1c76
    14ba:	f7 01       	movw	r30, r14
    14bc:	86 83       	std	Z+6, r24	; 0x06
    14be:	c8 01       	movw	r24, r16
    14c0:	0e 94 3b 0e 	call	0x1c76	;  0x1c76
    14c4:	f7 01       	movw	r30, r14
    14c6:	87 83       	std	Z+7, r24	; 0x07
    14c8:	1f 91       	pop	r17
    14ca:	0f 91       	pop	r16
    14cc:	ff 90       	pop	r15
    14ce:	ef 90       	pop	r14
    14d0:	08 95       	ret
    14d2:	cf 93       	push	r28
    14d4:	df 93       	push	r29
    14d6:	ec 01       	movw	r28, r24
    14d8:	81 e6       	ldi	r24, 0x61	; 97
    14da:	96 e0       	ldi	r25, 0x06	; 6
    14dc:	0e 94 fc 0e 	call	0x1df8	;  0x1df8
    14e0:	88 81       	ld	r24, Y
    14e2:	87 ff       	sbrs	r24, 7
    14e4:	03 c0       	rjmp	.+6      	;  0x14ec
    14e6:	ce 01       	movw	r24, r28
    14e8:	0e 94 39 09 	call	0x1272	;  0x1272
    14ec:	ce 01       	movw	r24, r28
    14ee:	60 e0       	ldi	r22, 0x00	; 0
    14f0:	0e 94 2d 09 	call	0x125a	;  0x125a
    14f4:	df 91       	pop	r29
    14f6:	cf 91       	pop	r28
    14f8:	08 95       	ret
    14fa:	fc 01       	movw	r30, r24
    14fc:	10 82       	st	Z, r1
    14fe:	80 e0       	ldi	r24, 0x00	; 0
    1500:	90 e0       	ldi	r25, 0x00	; 0
    1502:	a0 e0       	ldi	r26, 0x00	; 0
    1504:	b0 e0       	ldi	r27, 0x00	; 0
    1506:	85 a7       	std	Z+45, r24	; 0x2d
    1508:	96 a7       	std	Z+46, r25	; 0x2e
    150a:	a7 a7       	std	Z+47, r26	; 0x2f
    150c:	b0 ab       	std	Z+48, r27	; 0x30
    150e:	81 a7       	std	Z+41, r24	; 0x29
    1510:	92 a7       	std	Z+42, r25	; 0x2a
    1512:	a3 a7       	std	Z+43, r26	; 0x2b
    1514:	b4 a7       	std	Z+44, r27	; 0x2c
    1516:	11 aa       	std	Z+49, r1	; 0x31
    1518:	08 95       	ret
    151a:	fc 01       	movw	r30, r24
    151c:	10 82       	st	Z, r1
    151e:	80 e0       	ldi	r24, 0x00	; 0
    1520:	90 e0       	ldi	r25, 0x00	; 0
    1522:	a0 e0       	ldi	r26, 0x00	; 0
    1524:	b0 e0       	ldi	r27, 0x00	; 0
    1526:	85 a7       	std	Z+45, r24	; 0x2d
    1528:	96 a7       	std	Z+46, r25	; 0x2e
    152a:	a7 a7       	std	Z+47, r26	; 0x2f
    152c:	b0 ab       	std	Z+48, r27	; 0x30
    152e:	81 a7       	std	Z+41, r24	; 0x29
    1530:	92 a7       	std	Z+42, r25	; 0x2a
    1532:	a3 a7       	std	Z+43, r26	; 0x2b
    1534:	b4 a7       	std	Z+44, r27	; 0x2c
    1536:	11 aa       	std	Z+49, r1	; 0x31
    1538:	08 95       	ret
    153a:	fc 01       	movw	r30, r24
    153c:	81 a5       	ldd	r24, Z+41	; 0x29
    153e:	92 a5       	ldd	r25, Z+42	; 0x2a
    1540:	a3 a5       	ldd	r26, Z+43	; 0x2b
    1542:	b4 a5       	ldd	r27, Z+44	; 0x2c
    1544:	bc 01       	movw	r22, r24
    1546:	cd 01       	movw	r24, r26
    1548:	08 95       	ret
    154a:	fc 01       	movw	r30, r24
    154c:	85 a5       	ldd	r24, Z+45	; 0x2d
    154e:	96 a5       	ldd	r25, Z+46	; 0x2e
    1550:	a7 a5       	ldd	r26, Z+47	; 0x2f
    1552:	b0 a9       	ldd	r27, Z+48	; 0x30
    1554:	bc 01       	movw	r22, r24
    1556:	cd 01       	movw	r24, r26
    1558:	08 95       	ret
    155a:	10 92 e4 05 	sts	0x05E4, r1
    155e:	80 e0       	ldi	r24, 0x00	; 0
    1560:	90 e0       	ldi	r25, 0x00	; 0
    1562:	a0 e0       	ldi	r26, 0x00	; 0
    1564:	b0 e0       	ldi	r27, 0x00	; 0
    1566:	80 93 11 06 	sts	0x0611, r24
    156a:	90 93 12 06 	sts	0x0612, r25
    156e:	a0 93 13 06 	sts	0x0613, r26
    1572:	b0 93 14 06 	sts	0x0614, r27
    1576:	80 93 0d 06 	sts	0x060D, r24
    157a:	90 93 0e 06 	sts	0x060E, r25
    157e:	a0 93 0f 06 	sts	0x060F, r26
    1582:	b0 93 10 06 	sts	0x0610, r27
    1586:	10 92 15 06 	sts	0x0615, r1
    158a:	08 95       	ret
    158c:	ef 92       	push	r14
    158e:	ff 92       	push	r15
    1590:	0f 93       	push	r16
    1592:	1f 93       	push	r17
    1594:	cf 93       	push	r28
    1596:	df 93       	push	r29
    1598:	ec 01       	movw	r28, r24
    159a:	80 e0       	ldi	r24, 0x00	; 0
    159c:	0e 94 45 23 	call	0x468a	;  0x468a
    15a0:	64 e1       	ldi	r22, 0x14	; 20
    15a2:	70 e0       	ldi	r23, 0x00	; 0
    15a4:	80 e0       	ldi	r24, 0x00	; 0
    15a6:	90 e0       	ldi	r25, 0x00	; 0
    15a8:	0e 94 d7 22 	call	0x45ae	;  0x45ae
    15ac:	80 e0       	ldi	r24, 0x00	; 0
    15ae:	0e 94 45 23 	call	0x468a	;  0x468a
    15b2:	7c 01       	movw	r14, r24
    15b4:	64 e1       	ldi	r22, 0x14	; 20
    15b6:	70 e0       	ldi	r23, 0x00	; 0
    15b8:	80 e0       	ldi	r24, 0x00	; 0
    15ba:	90 e0       	ldi	r25, 0x00	; 0
    15bc:	0e 94 d7 22 	call	0x45ae	;  0x45ae
    15c0:	00 e0       	ldi	r16, 0x00	; 0
    15c2:	10 e0       	ldi	r17, 0x00	; 0
    15c4:	c8 01       	movw	r24, r16
    15c6:	b7 01       	movw	r22, r14
    15c8:	0e 94 81 25 	call	0x4b02	;  0x4b02
    15cc:	21 ee       	ldi	r18, 0xE1	; 225
    15ce:	3a e7       	ldi	r19, 0x7A	; 122
    15d0:	44 e5       	ldi	r20, 0x54	; 84
    15d2:	50 e4       	ldi	r21, 0x40	; 64
    15d4:	0e 94 33 26 	call	0x4c66	;  0x4c66
    15d8:	20 e0       	ldi	r18, 0x00	; 0
    15da:	30 e0       	ldi	r19, 0x00	; 0
    15dc:	40 e8       	ldi	r20, 0x80	; 128
    15de:	5a e3       	ldi	r21, 0x3A	; 58
    15e0:	0e 94 33 26 	call	0x4c66	;  0x4c66
    15e4:	20 e0       	ldi	r18, 0x00	; 0
    15e6:	30 e0       	ldi	r19, 0x00	; 0
    15e8:	48 ec       	ldi	r20, 0xC8	; 200
    15ea:	52 e4       	ldi	r21, 0x42	; 66
    15ec:	0e 94 33 26 	call	0x4c66	;  0x4c66
    15f0:	69 a7       	std	Y+41, r22	; 0x29
    15f2:	7a a7       	std	Y+42, r23	; 0x2a
    15f4:	8b a7       	std	Y+43, r24	; 0x2b
    15f6:	9c a7       	std	Y+44, r25	; 0x2c
    15f8:	28 81       	ld	r18, Y
    15fa:	e2 2f       	mov	r30, r18
    15fc:	f0 e0       	ldi	r31, 0x00	; 0
    15fe:	89 a5       	ldd	r24, Y+41	; 0x29
    1600:	9a a5       	ldd	r25, Y+42	; 0x2a
    1602:	ab a5       	ldd	r26, Y+43	; 0x2b
    1604:	bc a5       	ldd	r27, Y+44	; 0x2c
    1606:	ee 0f       	add	r30, r30
    1608:	ff 1f       	adc	r31, r31
    160a:	ee 0f       	add	r30, r30
    160c:	ff 1f       	adc	r31, r31
    160e:	ec 0f       	add	r30, r28
    1610:	fd 1f       	adc	r31, r29
    1612:	81 83       	std	Z+1, r24	; 0x01
    1614:	92 83       	std	Z+2, r25	; 0x02
    1616:	a3 83       	std	Z+3, r26	; 0x03
    1618:	b4 83       	std	Z+4, r27	; 0x04
    161a:	2f 5f       	subi	r18, 0xFF	; 255
    161c:	28 83       	st	Y, r18
    161e:	80 e0       	ldi	r24, 0x00	; 0
    1620:	90 e0       	ldi	r25, 0x00	; 0
    1622:	a0 e0       	ldi	r26, 0x00	; 0
    1624:	b0 e0       	ldi	r27, 0x00	; 0
    1626:	8d a7       	std	Y+45, r24	; 0x2d
    1628:	9e a7       	std	Y+46, r25	; 0x2e
    162a:	af a7       	std	Y+47, r26	; 0x2f
    162c:	b8 ab       	std	Y+48, r27	; 0x30
    162e:	89 a9       	ldd	r24, Y+49	; 0x31
    1630:	88 23       	and	r24, r24
    1632:	19 f4       	brne	.+6      	;  0x163a
    1634:	00 e0       	ldi	r16, 0x00	; 0
    1636:	10 e0       	ldi	r17, 0x00	; 0
    1638:	3c c0       	rjmp	.+120    	;  0x16b2
    163a:	00 e0       	ldi	r16, 0x00	; 0
    163c:	10 e0       	ldi	r17, 0x00	; 0
    163e:	6d a5       	ldd	r22, Y+45	; 0x2d
    1640:	7e a5       	ldd	r23, Y+46	; 0x2e
    1642:	8f a5       	ldd	r24, Y+47	; 0x2f
    1644:	98 a9       	ldd	r25, Y+48	; 0x30
    1646:	f8 01       	movw	r30, r16
    1648:	ee 0f       	add	r30, r30
    164a:	ff 1f       	adc	r31, r31
    164c:	ee 0f       	add	r30, r30
    164e:	ff 1f       	adc	r31, r31
    1650:	ec 0f       	add	r30, r28
    1652:	fd 1f       	adc	r31, r29
    1654:	21 81       	ldd	r18, Z+1	; 0x01
    1656:	32 81       	ldd	r19, Z+2	; 0x02
    1658:	43 81       	ldd	r20, Z+3	; 0x03
    165a:	54 81       	ldd	r21, Z+4	; 0x04
    165c:	0e 94 80 24 	call	0x4900	;  0x4900
    1660:	6d a7       	std	Y+45, r22	; 0x2d
    1662:	7e a7       	std	Y+46, r23	; 0x2e
    1664:	8f a7       	std	Y+47, r24	; 0x2f
    1666:	98 ab       	std	Y+48, r25	; 0x30
    1668:	0f 5f       	subi	r16, 0xFF	; 255
    166a:	1f 4f       	sbci	r17, 0xFF	; 255
    166c:	0a 30       	cpi	r16, 0x0A	; 10
    166e:	11 05       	cpc	r17, r1
    1670:	31 f7       	brne	.-52     	;  0x163e
    1672:	6d a5       	ldd	r22, Y+45	; 0x2d
    1674:	7e a5       	ldd	r23, Y+46	; 0x2e
    1676:	8f a5       	ldd	r24, Y+47	; 0x2f
    1678:	98 a9       	ldd	r25, Y+48	; 0x30
    167a:	20 e0       	ldi	r18, 0x00	; 0
    167c:	30 e0       	ldi	r19, 0x00	; 0
    167e:	40 e2       	ldi	r20, 0x20	; 32
    1680:	51 e4       	ldi	r21, 0x41	; 65
    1682:	2c c0       	rjmp	.+88     	;  0x16dc
    1684:	6d a5       	ldd	r22, Y+45	; 0x2d
    1686:	7e a5       	ldd	r23, Y+46	; 0x2e
    1688:	8f a5       	ldd	r24, Y+47	; 0x2f
    168a:	98 a9       	ldd	r25, Y+48	; 0x30
    168c:	f8 01       	movw	r30, r16
    168e:	ee 0f       	add	r30, r30
    1690:	ff 1f       	adc	r31, r31
    1692:	ee 0f       	add	r30, r30
    1694:	ff 1f       	adc	r31, r31
    1696:	ec 0f       	add	r30, r28
    1698:	fd 1f       	adc	r31, r29
    169a:	21 81       	ldd	r18, Z+1	; 0x01
    169c:	32 81       	ldd	r19, Z+2	; 0x02
    169e:	43 81       	ldd	r20, Z+3	; 0x03
    16a0:	54 81       	ldd	r21, Z+4	; 0x04
    16a2:	0e 94 80 24 	call	0x4900	;  0x4900
    16a6:	6d a7       	std	Y+45, r22	; 0x2d
    16a8:	7e a7       	std	Y+46, r23	; 0x2e
    16aa:	8f a7       	std	Y+47, r24	; 0x2f
    16ac:	98 ab       	std	Y+48, r25	; 0x30
    16ae:	0f 5f       	subi	r16, 0xFF	; 255
    16b0:	1f 4f       	sbci	r17, 0xFF	; 255
    16b2:	88 81       	ld	r24, Y
    16b4:	90 e0       	ldi	r25, 0x00	; 0
    16b6:	08 17       	cp	r16, r24
    16b8:	19 07       	cpc	r17, r25
    16ba:	24 f3       	brlt	.-56     	;  0x1684
    16bc:	ed a4       	ldd	r14, Y+45	; 0x2d
    16be:	fe a4       	ldd	r15, Y+46	; 0x2e
    16c0:	0f a5       	ldd	r16, Y+47	; 0x2f
    16c2:	18 a9       	ldd	r17, Y+48	; 0x30
    16c4:	68 81       	ld	r22, Y
    16c6:	70 e0       	ldi	r23, 0x00	; 0
    16c8:	88 27       	eor	r24, r24
    16ca:	77 fd       	sbrc	r23, 7
    16cc:	80 95       	com	r24
    16ce:	98 2f       	mov	r25, r24
    16d0:	0e 94 83 25 	call	0x4b06	;  0x4b06
    16d4:	9b 01       	movw	r18, r22
    16d6:	ac 01       	movw	r20, r24
    16d8:	c8 01       	movw	r24, r16
    16da:	b7 01       	movw	r22, r14
    16dc:	0e 94 e8 24 	call	0x49d0	;  0x49d0
    16e0:	6d a7       	std	Y+45, r22	; 0x2d
    16e2:	7e a7       	std	Y+46, r23	; 0x2e
    16e4:	8f a7       	std	Y+47, r24	; 0x2f
    16e6:	98 ab       	std	Y+48, r25	; 0x30
    16e8:	88 81       	ld	r24, Y
    16ea:	8a 30       	cpi	r24, 0x0A	; 10
    16ec:	19 f4       	brne	.+6      	;  0x16f4
    16ee:	18 82       	st	Y, r1
    16f0:	81 e0       	ldi	r24, 0x01	; 1
    16f2:	89 ab       	std	Y+49, r24	; 0x31
    16f4:	df 91       	pop	r29
    16f6:	cf 91       	pop	r28
    16f8:	1f 91       	pop	r17
    16fa:	0f 91       	pop	r16
    16fc:	ff 90       	pop	r15
    16fe:	ef 90       	pop	r14
    1700:	08 95       	ret
    1702:	80 e0       	ldi	r24, 0x00	; 0
    1704:	60 e0       	ldi	r22, 0x00	; 0
    1706:	0e 94 c7 23 	call	0x478e	;  0x478e
    170a:	81 e0       	ldi	r24, 0x01	; 1
    170c:	60 e0       	ldi	r22, 0x00	; 0
    170e:	0e 94 c7 23 	call	0x478e	;  0x478e
    1712:	80 e0       	ldi	r24, 0x00	; 0
    1714:	0e 94 42 23 	call	0x4684	;  0x4684
    1718:	08 95       	ret
    171a:	81 e0       	ldi	r24, 0x01	; 1
    171c:	80 93 16 06 	sts	0x0616, r24
    1720:	08 95       	ret
    1722:	f8 94       	cli
    1724:	ff cf       	rjmp	.-2      	;  0x1724
    1726:	1f 93       	push	r17
    1728:	cf 93       	push	r28
    172a:	df 93       	push	r29
    172c:	c0 e0       	ldi	r28, 0x00	; 0
    172e:	d0 e0       	ldi	r29, 0x00	; 0
    1730:	0d c0       	rjmp	.+26     	;  0x174c
    1732:	ce 01       	movw	r24, r28
    1734:	43 e0       	ldi	r20, 0x03	; 3
    1736:	88 0f       	add	r24, r24
    1738:	99 1f       	adc	r25, r25
    173a:	4a 95       	dec	r20
    173c:	e1 f7       	brne	.-8      	;  0x1736
    173e:	cc 0f       	add	r28, r28
    1740:	dd 1f       	adc	r29, r29
    1742:	c8 0f       	add	r28, r24
    1744:	d9 1f       	adc	r29, r25
    1746:	e0 97       	sbiw	r28, 0x30	; 48
    1748:	c2 0f       	add	r28, r18
    174a:	d1 1d       	adc	r29, r1
    174c:	10 e0       	ldi	r17, 0x00	; 0
    174e:	86 e9       	ldi	r24, 0x96	; 150
    1750:	97 e0       	ldi	r25, 0x07	; 7
    1752:	0e 94 43 16 	call	0x2c86	;  0x2c86
    1756:	89 2b       	or	r24, r25
    1758:	61 f0       	breq	.+24     	;  0x1772
    175a:	11 23       	and	r17, r17
    175c:	51 f4       	brne	.+20     	;  0x1772
    175e:	86 e9       	ldi	r24, 0x96	; 150
    1760:	97 e0       	ldi	r25, 0x07	; 7
    1762:	0e 94 6e 16 	call	0x2cdc	;  0x2cdc
    1766:	28 2f       	mov	r18, r24
    1768:	11 e0       	ldi	r17, 0x01	; 1
    176a:	80 53       	subi	r24, 0x30	; 48
    176c:	8a 30       	cpi	r24, 0x0A	; 10
    176e:	78 f7       	brcc	.-34     	;  0x174e
    1770:	e0 cf       	rjmp	.-64     	;  0x1732
    1772:	ce 01       	movw	r24, r28
    1774:	df 91       	pop	r29
    1776:	cf 91       	pop	r28
    1778:	1f 91       	pop	r17
    177a:	08 95       	ret
    177c:	ef 92       	push	r14
    177e:	ff 92       	push	r15
    1780:	0f 93       	push	r16
    1782:	1f 93       	push	r17
    1784:	86 e9       	ldi	r24, 0x96	; 150
    1786:	97 e0       	ldi	r25, 0x07	; 7
    1788:	0e 94 43 16 	call	0x2c86	;  0x2c86
    178c:	89 2b       	or	r24, r25
    178e:	09 f4       	brne	.+2      	;  0x1792
    1790:	a4 c1       	rjmp	.+840    	;  0x1ada
    1792:	86 e9       	ldi	r24, 0x96	; 150
    1794:	97 e0       	ldi	r25, 0x07	; 7
    1796:	0e 94 6e 16 	call	0x2cdc	;  0x2cdc
    179a:	90 e0       	ldi	r25, 0x00	; 0
    179c:	fc 01       	movw	r30, r24
    179e:	fc 97       	sbiw	r30, 0x3c	; 60
    17a0:	ef 33       	cpi	r30, 0x3F	; 63
    17a2:	f1 05       	cpc	r31, r1
    17a4:	08 f0       	brcs	.+2      	;  0x17a8
    17a6:	4f c1       	rjmp	.+670    	;  0x1a46
    17a8:	ec 5c       	subi	r30, 0xCC	; 204
    17aa:	ff 4f       	sbci	r31, 0xFF	; 255
    17ac:	ee 0f       	add	r30, r30
    17ae:	ff 1f       	adc	r31, r31
    17b0:	05 90       	lpm	r0, Z+
    17b2:	f4 91       	lpm	r31, Z+
    17b4:	e0 2d       	mov	r30, r0
    17b6:	09 94       	ijmp
    17b8:	0e 94 93 0b 	call	0x1726	;  0x1726
    17bc:	8c 01       	movw	r16, r24
    17be:	8c ed       	ldi	r24, 0xDC	; 220
    17c0:	95 e0       	ldi	r25, 0x05	; 5
    17c2:	b8 01       	movw	r22, r16
    17c4:	0e 94 58 08 	call	0x10b0	;  0x10b0
    17c8:	8c ed       	ldi	r24, 0xDC	; 220
    17ca:	95 e0       	ldi	r25, 0x05	; 5
    17cc:	0e 94 e0 09 	call	0x13c0	;  0x13c0
    17d0:	86 e9       	ldi	r24, 0x96	; 150
    17d2:	97 e0       	ldi	r25, 0x07	; 7
    17d4:	63 ed       	ldi	r22, 0xD3	; 211
    17d6:	71 e0       	ldi	r23, 0x01	; 1
    17d8:	10 c0       	rjmp	.+32     	;  0x17fa
    17da:	0e 94 93 0b 	call	0x1726	;  0x1726
    17de:	8c 01       	movw	r16, r24
    17e0:	8c ed       	ldi	r24, 0xDC	; 220
    17e2:	95 e0       	ldi	r25, 0x05	; 5
    17e4:	b8 01       	movw	r22, r16
    17e6:	0e 94 b9 08 	call	0x1172	;  0x1172
    17ea:	8c ed       	ldi	r24, 0xDC	; 220
    17ec:	95 e0       	ldi	r25, 0x05	; 5
    17ee:	0e 94 e0 09 	call	0x13c0	;  0x13c0
    17f2:	86 e9       	ldi	r24, 0x96	; 150
    17f4:	97 e0       	ldi	r25, 0x07	; 7
    17f6:	66 ee       	ldi	r22, 0xE6	; 230
    17f8:	71 e0       	ldi	r23, 0x01	; 1
    17fa:	0e 94 22 17 	call	0x2e44	;  0x2e44
    17fe:	86 e9       	ldi	r24, 0x96	; 150
    1800:	97 e0       	ldi	r25, 0x07	; 7
    1802:	b8 01       	movw	r22, r16
    1804:	1b c1       	rjmp	.+566    	;  0x1a3c
    1806:	0e 94 93 0b 	call	0x1726	;  0x1726
    180a:	8c 01       	movw	r16, r24
    180c:	8c ed       	ldi	r24, 0xDC	; 220
    180e:	95 e0       	ldi	r25, 0x05	; 5
    1810:	b8 01       	movw	r22, r16
    1812:	0e 94 c5 08 	call	0x118a	;  0x118a
    1816:	8c ed       	ldi	r24, 0xDC	; 220
    1818:	95 e0       	ldi	r25, 0x05	; 5
    181a:	0e 94 e0 09 	call	0x13c0	;  0x13c0
    181e:	86 e9       	ldi	r24, 0x96	; 150
    1820:	97 e0       	ldi	r25, 0x07	; 7
    1822:	6b ef       	ldi	r22, 0xFB	; 251
    1824:	71 e0       	ldi	r23, 0x01	; 1
    1826:	e9 cf       	rjmp	.-46     	;  0x17fa
    1828:	0e 94 93 0b 	call	0x1726	;  0x1726
    182c:	8c 01       	movw	r16, r24
    182e:	8c ed       	ldi	r24, 0xDC	; 220
    1830:	95 e0       	ldi	r25, 0x05	; 5
    1832:	b8 01       	movw	r22, r16
    1834:	0e 94 22 08 	call	0x1044	;  0x1044
    1838:	8c ed       	ldi	r24, 0xDC	; 220
    183a:	95 e0       	ldi	r25, 0x05	; 5
    183c:	0e 94 e0 09 	call	0x13c0	;  0x13c0
    1840:	86 e9       	ldi	r24, 0x96	; 150
    1842:	97 e0       	ldi	r25, 0x07	; 7
    1844:	60 e1       	ldi	r22, 0x10	; 16
    1846:	72 e0       	ldi	r23, 0x02	; 2
    1848:	d8 cf       	rjmp	.-80     	;  0x17fa
    184a:	0e 94 93 0b 	call	0x1726	;  0x1726
    184e:	8c 01       	movw	r16, r24
    1850:	8c ed       	ldi	r24, 0xDC	; 220
    1852:	95 e0       	ldi	r25, 0x05	; 5
    1854:	b8 01       	movw	r22, r16
    1856:	0e 94 2e 08 	call	0x105c	;  0x105c
    185a:	8c ed       	ldi	r24, 0xDC	; 220
    185c:	95 e0       	ldi	r25, 0x05	; 5
    185e:	0e 94 e0 09 	call	0x13c0	;  0x13c0
    1862:	86 e9       	ldi	r24, 0x96	; 150
    1864:	97 e0       	ldi	r25, 0x07	; 7
    1866:	62 e2       	ldi	r22, 0x22	; 34
    1868:	72 e0       	ldi	r23, 0x02	; 2
    186a:	c7 cf       	rjmp	.-114    	;  0x17fa
    186c:	0e 94 93 0b 	call	0x1726	;  0x1726
    1870:	8c 01       	movw	r16, r24
    1872:	8c ed       	ldi	r24, 0xDC	; 220
    1874:	95 e0       	ldi	r25, 0x05	; 5
    1876:	b8 01       	movw	r22, r16
    1878:	0e 94 3c 08 	call	0x1078	;  0x1078
    187c:	8c ed       	ldi	r24, 0xDC	; 220
    187e:	95 e0       	ldi	r25, 0x05	; 5
    1880:	0e 94 e0 09 	call	0x13c0	;  0x13c0
    1884:	86 e9       	ldi	r24, 0x96	; 150
    1886:	97 e0       	ldi	r25, 0x07	; 7
    1888:	65 e3       	ldi	r22, 0x35	; 53
    188a:	72 e0       	ldi	r23, 0x02	; 2
    188c:	b6 cf       	rjmp	.-148    	;  0x17fa
    188e:	86 e9       	ldi	r24, 0x96	; 150
    1890:	97 e0       	ldi	r25, 0x07	; 7
    1892:	67 e4       	ldi	r22, 0x47	; 71
    1894:	72 e0       	ldi	r23, 0x02	; 2
    1896:	0e 94 22 17 	call	0x2e44	;  0x2e44
    189a:	8c ed       	ldi	r24, 0xDC	; 220
    189c:	95 e0       	ldi	r25, 0x05	; 5
    189e:	0e 94 38 07 	call	0xe70	;  0xe70
    18a2:	bc 01       	movw	r22, r24
    18a4:	86 e9       	ldi	r24, 0x96	; 150
    18a6:	97 e0       	ldi	r25, 0x07	; 7
    18a8:	c9 c0       	rjmp	.+402    	;  0x1a3c
    18aa:	0e 94 93 0b 	call	0x1726	;  0x1726
    18ae:	8c 01       	movw	r16, r24
    18b0:	8c ed       	ldi	r24, 0xDC	; 220
    18b2:	95 e0       	ldi	r25, 0x05	; 5
    18b4:	b8 01       	movw	r22, r16
    18b6:	0e 94 4a 08 	call	0x1094	;  0x1094
    18ba:	8c ed       	ldi	r24, 0xDC	; 220
    18bc:	95 e0       	ldi	r25, 0x05	; 5
    18be:	0e 94 e0 09 	call	0x13c0	;  0x13c0
    18c2:	86 e9       	ldi	r24, 0x96	; 150
    18c4:	97 e0       	ldi	r25, 0x07	; 7
    18c6:	68 e5       	ldi	r22, 0x58	; 88
    18c8:	72 e0       	ldi	r23, 0x02	; 2
    18ca:	97 cf       	rjmp	.-210    	;  0x17fa
    18cc:	8c ed       	ldi	r24, 0xDC	; 220
    18ce:	95 e0       	ldi	r25, 0x05	; 5
    18d0:	0e 94 80 06 	call	0xd00	;  0xd00
    18d4:	88 23       	and	r24, r24
    18d6:	49 f0       	breq	.+18     	;  0x18ea
    18d8:	8c ed       	ldi	r24, 0xDC	; 220
    18da:	95 e0       	ldi	r25, 0x05	; 5
    18dc:	0e 94 94 08 	call	0x1128	;  0x1128
    18e0:	86 e9       	ldi	r24, 0x96	; 150
    18e2:	97 e0       	ldi	r25, 0x07	; 7
    18e4:	61 e7       	ldi	r22, 0x71	; 113
    18e6:	72 e0       	ldi	r23, 0x02	; 2
    18e8:	08 c0       	rjmp	.+16     	;  0x18fa
    18ea:	8c ed       	ldi	r24, 0xDC	; 220
    18ec:	95 e0       	ldi	r25, 0x05	; 5
    18ee:	0e 94 74 08 	call	0x10e8	;  0x10e8
    18f2:	86 e9       	ldi	r24, 0x96	; 150
    18f4:	97 e0       	ldi	r25, 0x07	; 7
    18f6:	6d e8       	ldi	r22, 0x8D	; 141
    18f8:	72 e0       	ldi	r23, 0x02	; 2
    18fa:	0e 94 ce 18 	call	0x319c	;  0x319c
    18fe:	8c ed       	ldi	r24, 0xDC	; 220
    1900:	95 e0       	ldi	r25, 0x05	; 5
    1902:	0e 94 e0 09 	call	0x13c0	;  0x13c0
    1906:	e9 c0       	rjmp	.+466    	;  0x1ada
    1908:	8c ed       	ldi	r24, 0xDC	; 220
    190a:	95 e0       	ldi	r25, 0x05	; 5
    190c:	0e 94 80 06 	call	0xd00	;  0xd00
    1910:	88 23       	and	r24, r24
    1912:	01 f1       	breq	.+64     	;  0x1954
    1914:	8c ed       	ldi	r24, 0xDC	; 220
    1916:	95 e0       	ldi	r25, 0x05	; 5
    1918:	0e 94 09 08 	call	0x1012	;  0x1012
    191c:	8c ed       	ldi	r24, 0xDC	; 220
    191e:	95 e0       	ldi	r25, 0x05	; 5
    1920:	0e 94 e0 09 	call	0x13c0	;  0x13c0
    1924:	86 e9       	ldi	r24, 0x96	; 150
    1926:	97 e0       	ldi	r25, 0x07	; 7
    1928:	69 ea       	ldi	r22, 0xA9	; 169
    192a:	72 e0       	ldi	r23, 0x02	; 2
    192c:	d4 c0       	rjmp	.+424    	;  0x1ad6
    192e:	8c ed       	ldi	r24, 0xDC	; 220
    1930:	95 e0       	ldi	r25, 0x05	; 5
    1932:	0e 94 80 06 	call	0xd00	;  0xd00
    1936:	88 23       	and	r24, r24
    1938:	69 f0       	breq	.+26     	;  0x1954
    193a:	8c ed       	ldi	r24, 0xDC	; 220
    193c:	95 e0       	ldi	r25, 0x05	; 5
    193e:	0e 94 0f 08 	call	0x101e	;  0x101e
    1942:	8c ed       	ldi	r24, 0xDC	; 220
    1944:	95 e0       	ldi	r25, 0x05	; 5
    1946:	0e 94 e0 09 	call	0x13c0	;  0x13c0
    194a:	86 e9       	ldi	r24, 0x96	; 150
    194c:	97 e0       	ldi	r25, 0x07	; 7
    194e:	63 ed       	ldi	r22, 0xD3	; 211
    1950:	72 e0       	ldi	r23, 0x02	; 2
    1952:	c1 c0       	rjmp	.+386    	;  0x1ad6
    1954:	86 e9       	ldi	r24, 0x96	; 150
    1956:	97 e0       	ldi	r25, 0x07	; 7
    1958:	61 eb       	ldi	r22, 0xB1	; 177
    195a:	72 e0       	ldi	r23, 0x02	; 2
    195c:	bc c0       	rjmp	.+376    	;  0x1ad6
    195e:	8c ed       	ldi	r24, 0xDC	; 220
    1960:	95 e0       	ldi	r25, 0x05	; 5
    1962:	60 e0       	ldi	r22, 0x00	; 0
    1964:	0e 94 2d 09 	call	0x125a	;  0x125a
    1968:	86 e9       	ldi	r24, 0x96	; 150
    196a:	97 e0       	ldi	r25, 0x07	; 7
    196c:	6b ed       	ldi	r22, 0xDB	; 219
    196e:	72 e0       	ldi	r23, 0x02	; 2
    1970:	b2 c0       	rjmp	.+356    	;  0x1ad6
    1972:	8c ed       	ldi	r24, 0xDC	; 220
    1974:	95 e0       	ldi	r25, 0x05	; 5
    1976:	60 e0       	ldi	r22, 0x00	; 0
    1978:	0e 94 1f 09 	call	0x123e	;  0x123e
    197c:	86 e9       	ldi	r24, 0x96	; 150
    197e:	97 e0       	ldi	r25, 0x07	; 7
    1980:	69 ef       	ldi	r22, 0xF9	; 249
    1982:	72 e0       	ldi	r23, 0x02	; 2
    1984:	a8 c0       	rjmp	.+336    	;  0x1ad6
    1986:	8c ed       	ldi	r24, 0xDC	; 220
    1988:	95 e0       	ldi	r25, 0x05	; 5
    198a:	0e 94 39 09 	call	0x1272	;  0x1272
    198e:	86 e9       	ldi	r24, 0x96	; 150
    1990:	97 e0       	ldi	r25, 0x07	; 7
    1992:	6b e1       	ldi	r22, 0x1B	; 27
    1994:	73 e0       	ldi	r23, 0x03	; 3
    1996:	9f c0       	rjmp	.+318    	;  0x1ad6
    1998:	8c ed       	ldi	r24, 0xDC	; 220
    199a:	95 e0       	ldi	r25, 0x05	; 5
    199c:	0e 94 41 09 	call	0x1282	;  0x1282
    19a0:	86 e9       	ldi	r24, 0x96	; 150
    19a2:	97 e0       	ldi	r25, 0x07	; 7
    19a4:	65 e3       	ldi	r22, 0x35	; 53
    19a6:	73 e0       	ldi	r23, 0x03	; 3
    19a8:	96 c0       	rjmp	.+300    	;  0x1ad6
    19aa:	0e 94 93 0b 	call	0x1726	;  0x1726
    19ae:	18 2f       	mov	r17, r24
    19b0:	f9 2e       	mov	r15, r25
    19b2:	0e 94 93 0b 	call	0x1726	;  0x1726
    19b6:	08 2f       	mov	r16, r24
    19b8:	e9 2e       	mov	r14, r25
    19ba:	8c ed       	ldi	r24, 0xDC	; 220
    19bc:	95 e0       	ldi	r25, 0x05	; 5
    19be:	61 2f       	mov	r22, r17
    19c0:	40 2f       	mov	r20, r16
    19c2:	0e 94 02 09 	call	0x1204	;  0x1204
    19c6:	86 e9       	ldi	r24, 0x96	; 150
    19c8:	97 e0       	ldi	r25, 0x07	; 7
    19ca:	6f e4       	ldi	r22, 0x4F	; 79
    19cc:	73 e0       	ldi	r23, 0x03	; 3
    19ce:	0e 94 22 17 	call	0x2e44	;  0x2e44
    19d2:	86 e9       	ldi	r24, 0x96	; 150
    19d4:	97 e0       	ldi	r25, 0x07	; 7
    19d6:	61 2f       	mov	r22, r17
    19d8:	7f 2d       	mov	r23, r15
    19da:	4a e0       	ldi	r20, 0x0A	; 10
    19dc:	50 e0       	ldi	r21, 0x00	; 0
    19de:	0e 94 54 18 	call	0x30a8	;  0x30a8
    19e2:	86 e9       	ldi	r24, 0x96	; 150
    19e4:	97 e0       	ldi	r25, 0x07	; 7
    19e6:	62 e6       	ldi	r22, 0x62	; 98
    19e8:	73 e0       	ldi	r23, 0x03	; 3
    19ea:	0e 94 22 17 	call	0x2e44	;  0x2e44
    19ee:	86 e9       	ldi	r24, 0x96	; 150
    19f0:	97 e0       	ldi	r25, 0x07	; 7
    19f2:	60 2f       	mov	r22, r16
    19f4:	7e 2d       	mov	r23, r14
    19f6:	22 c0       	rjmp	.+68     	;  0x1a3c
    19f8:	0e 94 93 0b 	call	0x1726	;  0x1726
    19fc:	18 2f       	mov	r17, r24
    19fe:	09 2f       	mov	r16, r25
    1a00:	8c ed       	ldi	r24, 0xDC	; 220
    1a02:	95 e0       	ldi	r25, 0x05	; 5
    1a04:	61 2f       	mov	r22, r17
    1a06:	0e 94 86 09 	call	0x130c	;  0x130c
    1a0a:	f8 2e       	mov	r15, r24
    1a0c:	86 e9       	ldi	r24, 0x96	; 150
    1a0e:	97 e0       	ldi	r25, 0x07	; 7
    1a10:	6e e6       	ldi	r22, 0x6E	; 110
    1a12:	73 e0       	ldi	r23, 0x03	; 3
    1a14:	0e 94 22 17 	call	0x2e44	;  0x2e44
    1a18:	86 e9       	ldi	r24, 0x96	; 150
    1a1a:	97 e0       	ldi	r25, 0x07	; 7
    1a1c:	61 2f       	mov	r22, r17
    1a1e:	70 2f       	mov	r23, r16
    1a20:	4a e0       	ldi	r20, 0x0A	; 10
    1a22:	50 e0       	ldi	r21, 0x00	; 0
    1a24:	0e 94 54 18 	call	0x30a8	;  0x30a8
    1a28:	86 e9       	ldi	r24, 0x96	; 150
    1a2a:	97 e0       	ldi	r25, 0x07	; 7
    1a2c:	62 e6       	ldi	r22, 0x62	; 98
    1a2e:	73 e0       	ldi	r23, 0x03	; 3
    1a30:	0e 94 22 17 	call	0x2e44	;  0x2e44
    1a34:	86 e9       	ldi	r24, 0x96	; 150
    1a36:	97 e0       	ldi	r25, 0x07	; 7
    1a38:	6f 2d       	mov	r22, r15
    1a3a:	70 e0       	ldi	r23, 0x00	; 0
    1a3c:	4a e0       	ldi	r20, 0x0A	; 10
    1a3e:	50 e0       	ldi	r21, 0x00	; 0
    1a40:	0e 94 ef 18 	call	0x31de	;  0x31de
    1a44:	4a c0       	rjmp	.+148    	;  0x1ada
    1a46:	86 e9       	ldi	r24, 0x96	; 150
    1a48:	97 e0       	ldi	r25, 0x07	; 7
    1a4a:	62 e8       	ldi	r22, 0x82	; 130
    1a4c:	73 e0       	ldi	r23, 0x03	; 3
    1a4e:	0e 94 ce 18 	call	0x319c	;  0x319c
    1a52:	86 e9       	ldi	r24, 0x96	; 150
    1a54:	97 e0       	ldi	r25, 0x07	; 7
    1a56:	6e e9       	ldi	r22, 0x9E	; 158
    1a58:	73 e0       	ldi	r23, 0x03	; 3
    1a5a:	0e 94 ce 18 	call	0x319c	;  0x319c
    1a5e:	86 e9       	ldi	r24, 0x96	; 150
    1a60:	97 e0       	ldi	r25, 0x07	; 7
    1a62:	6e eb       	ldi	r22, 0xBE	; 190
    1a64:	73 e0       	ldi	r23, 0x03	; 3
    1a66:	0e 94 ce 18 	call	0x319c	;  0x319c
    1a6a:	86 e9       	ldi	r24, 0x96	; 150
    1a6c:	97 e0       	ldi	r25, 0x07	; 7
    1a6e:	61 ee       	ldi	r22, 0xE1	; 225
    1a70:	73 e0       	ldi	r23, 0x03	; 3
    1a72:	0e 94 ce 18 	call	0x319c	;  0x319c
    1a76:	86 e9       	ldi	r24, 0x96	; 150
    1a78:	97 e0       	ldi	r25, 0x07	; 7
    1a7a:	63 e0       	ldi	r22, 0x03	; 3
    1a7c:	74 e0       	ldi	r23, 0x04	; 4
    1a7e:	0e 94 ce 18 	call	0x319c	;  0x319c
    1a82:	86 e9       	ldi	r24, 0x96	; 150
    1a84:	97 e0       	ldi	r25, 0x07	; 7
    1a86:	64 e2       	ldi	r22, 0x24	; 36
    1a88:	74 e0       	ldi	r23, 0x04	; 4
    1a8a:	0e 94 ce 18 	call	0x319c	;  0x319c
    1a8e:	86 e9       	ldi	r24, 0x96	; 150
    1a90:	97 e0       	ldi	r25, 0x07	; 7
    1a92:	6d e3       	ldi	r22, 0x3D	; 61
    1a94:	74 e0       	ldi	r23, 0x04	; 4
    1a96:	0e 94 ce 18 	call	0x319c	;  0x319c
    1a9a:	86 e9       	ldi	r24, 0x96	; 150
    1a9c:	97 e0       	ldi	r25, 0x07	; 7
    1a9e:	0e 94 79 18 	call	0x30f2	;  0x30f2
    1aa2:	86 e9       	ldi	r24, 0x96	; 150
    1aa4:	97 e0       	ldi	r25, 0x07	; 7
    1aa6:	64 e5       	ldi	r22, 0x54	; 84
    1aa8:	74 e0       	ldi	r23, 0x04	; 4
    1aaa:	0e 94 ce 18 	call	0x319c	;  0x319c
    1aae:	86 e9       	ldi	r24, 0x96	; 150
    1ab0:	97 e0       	ldi	r25, 0x07	; 7
    1ab2:	64 e7       	ldi	r22, 0x74	; 116
    1ab4:	74 e0       	ldi	r23, 0x04	; 4
    1ab6:	0e 94 ce 18 	call	0x319c	;  0x319c
    1aba:	86 e9       	ldi	r24, 0x96	; 150
    1abc:	97 e0       	ldi	r25, 0x07	; 7
    1abe:	0e 94 79 18 	call	0x30f2	;  0x30f2
    1ac2:	86 e9       	ldi	r24, 0x96	; 150
    1ac4:	97 e0       	ldi	r25, 0x07	; 7
    1ac6:	68 e9       	ldi	r22, 0x98	; 152
    1ac8:	74 e0       	ldi	r23, 0x04	; 4
    1aca:	0e 94 ce 18 	call	0x319c	;  0x319c
    1ace:	86 e9       	ldi	r24, 0x96	; 150
    1ad0:	97 e0       	ldi	r25, 0x07	; 7
    1ad2:	66 ec       	ldi	r22, 0xC6	; 198
    1ad4:	74 e0       	ldi	r23, 0x04	; 4
    1ad6:	0e 94 ce 18 	call	0x319c	;  0x319c
    1ada:	1f 91       	pop	r17
    1adc:	0f 91       	pop	r16
    1ade:	ff 90       	pop	r15
    1ae0:	ef 90       	pop	r14
    1ae2:	08 95       	ret
    1ae4:	0f 93       	push	r16
    1ae6:	1f 93       	push	r17
    1ae8:	04 ee       	ldi	r16, 0xE4	; 228
    1aea:	15 e0       	ldi	r17, 0x05	; 5
    1aec:	c8 01       	movw	r24, r16
    1aee:	0e 94 c6 0a 	call	0x158c	;  0x158c
    1af2:	c8 01       	movw	r24, r16
    1af4:	0e 94 a5 0a 	call	0x154a	;  0x154a
    1af8:	ab 01       	movw	r20, r22
    1afa:	bc 01       	movw	r22, r24
    1afc:	88 e9       	ldi	r24, 0x98	; 152
    1afe:	95 e0       	ldi	r25, 0x05	; 5
    1b00:	0e 94 19 04 	call	0x832	;  0x832
    1b04:	8c ed       	ldi	r24, 0xDC	; 220
    1b06:	95 e0       	ldi	r25, 0x05	; 5
    1b08:	0e 94 21 0a 	call	0x1442	;  0x1442
    1b0c:	1f 91       	pop	r17
    1b0e:	0f 91       	pop	r16
    1b10:	08 95       	ret
    1b12:	84 ee       	ldi	r24, 0xE4	; 228
    1b14:	95 e0       	ldi	r25, 0x05	; 5
    1b16:	0e 94 81 0b 	call	0x1702	;  0x1702
    1b1a:	88 e9       	ldi	r24, 0x98	; 152
    1b1c:	95 e0       	ldi	r25, 0x05	; 5
    1b1e:	0e 94 46 05 	call	0xa8c	;  0xa8c
    1b22:	86 e8       	ldi	r24, 0x86	; 134
    1b24:	95 e0       	ldi	r25, 0x05	; 5
    1b26:	0e 94 d1 02 	call	0x5a2	;  0x5a2
    1b2a:	8c ed       	ldi	r24, 0xDC	; 220
    1b2c:	95 e0       	ldi	r25, 0x05	; 5
    1b2e:	0e 94 69 0a 	call	0x14d2	;  0x14d2
    1b32:	80 e0       	ldi	r24, 0x00	; 0
    1b34:	6d e8       	ldi	r22, 0x8D	; 141
    1b36:	7b e0       	ldi	r23, 0x0B	; 11
    1b38:	43 e0       	ldi	r20, 0x03	; 3
    1b3a:	50 e0       	ldi	r21, 0x00	; 0
    1b3c:	0e 94 be 19 	call	0x337c	;  0x337c
    1b40:	08 95       	ret
    1b42:	df 92       	push	r13
    1b44:	ef 92       	push	r14
    1b46:	ff 92       	push	r15
    1b48:	0f 93       	push	r16
    1b4a:	1f 93       	push	r17
    1b4c:	0e 94 07 23 	call	0x460e	;  0x460e
    1b50:	86 e9       	ldi	r24, 0x96	; 150
    1b52:	97 e0       	ldi	r25, 0x07	; 7
    1b54:	40 e0       	ldi	r20, 0x00	; 0
    1b56:	52 ec       	ldi	r21, 0xC2	; 194
    1b58:	61 e0       	ldi	r22, 0x01	; 1
    1b5a:	70 e0       	ldi	r23, 0x00	; 0
    1b5c:	0e 94 c0 15 	call	0x2b80	;  0x2b80
    1b60:	86 e9       	ldi	r24, 0x96	; 150
    1b62:	97 e0       	ldi	r25, 0x07	; 7
    1b64:	6b ee       	ldi	r22, 0xEB	; 235
    1b66:	74 e0       	ldi	r23, 0x04	; 4
    1b68:	0e 94 ce 18 	call	0x319c	;  0x319c
    1b6c:	0e 94 89 0d 	call	0x1b12	;  0x1b12
    1b70:	86 e9       	ldi	r24, 0x96	; 150
    1b72:	97 e0       	ldi	r25, 0x07	; 7
    1b74:	69 ef       	ldi	r22, 0xF9	; 249
    1b76:	74 e0       	ldi	r23, 0x04	; 4
    1b78:	0e 94 ce 18 	call	0x319c	;  0x319c
    1b7c:	86 e9       	ldi	r24, 0x96	; 150
    1b7e:	97 e0       	ldi	r25, 0x07	; 7
    1b80:	0e 94 43 16 	call	0x2c86	;  0x2c86
    1b84:	89 2b       	or	r24, r25
    1b86:	49 f0       	breq	.+18     	;  0x1b9a
    1b88:	0e 94 be 0b 	call	0x177c	;  0x177c
    1b8c:	06 c0       	rjmp	.+12     	;  0x1b9a
    1b8e:	62 e3       	ldi	r22, 0x32	; 50
    1b90:	70 e0       	ldi	r23, 0x00	; 0
    1b92:	80 e0       	ldi	r24, 0x00	; 0
    1b94:	90 e0       	ldi	r25, 0x00	; 0
    1b96:	0e 94 d7 22 	call	0x45ae	;  0x45ae
    1b9a:	80 91 16 06 	lds	r24, 0x0616
    1b9e:	88 23       	and	r24, r24
    1ba0:	b1 f3       	breq	.-20     	;  0x1b8e
    1ba2:	0e 94 72 0d 	call	0x1ae4	;  0x1ae4
    1ba6:	88 e9       	ldi	r24, 0x98	; 152
    1ba8:	95 e0       	ldi	r25, 0x05	; 5
    1baa:	0e 94 10 04 	call	0x820	;  0x820
    1bae:	ab 01       	movw	r20, r22
    1bb0:	bc 01       	movw	r22, r24
    1bb2:	86 e8       	ldi	r24, 0x86	; 134
    1bb4:	95 e0       	ldi	r25, 0x05	; 5
    1bb6:	0e 94 9d 02 	call	0x53a	;  0x53a
    1bba:	84 ee       	ldi	r24, 0xE4	; 228
    1bbc:	95 e0       	ldi	r25, 0x05	; 5
    1bbe:	0e 94 a5 0a 	call	0x154a	;  0x154a
    1bc2:	ab 01       	movw	r20, r22
    1bc4:	bc 01       	movw	r22, r24
    1bc6:	86 e8       	ldi	r24, 0x86	; 134
    1bc8:	95 e0       	ldi	r25, 0x05	; 5
    1bca:	0e 94 b7 02 	call	0x56e	;  0x56e
    1bce:	8c ed       	ldi	r24, 0xDC	; 220
    1bd0:	95 e0       	ldi	r25, 0x05	; 5
    1bd2:	0e 94 91 06 	call	0xd22	;  0xd22
    1bd6:	d8 2e       	mov	r13, r24
    1bd8:	8c ed       	ldi	r24, 0xDC	; 220
    1bda:	95 e0       	ldi	r25, 0x05	; 5
    1bdc:	0e 94 c4 06 	call	0xd88	;  0xd88
    1be0:	f8 2e       	mov	r15, r24
    1be2:	8c ed       	ldi	r24, 0xDC	; 220
    1be4:	95 e0       	ldi	r25, 0x05	; 5
    1be6:	0e 94 db 06 	call	0xdb6	;  0xdb6
    1bea:	18 2f       	mov	r17, r24
    1bec:	8c ed       	ldi	r24, 0xDC	; 220
    1bee:	95 e0       	ldi	r25, 0x05	; 5
    1bf0:	0e 94 80 06 	call	0xd00	;  0xd00
    1bf4:	08 2f       	mov	r16, r24
    1bf6:	8c ed       	ldi	r24, 0xDC	; 220
    1bf8:	95 e0       	ldi	r25, 0x05	; 5
    1bfa:	0e 94 ae 06 	call	0xd5c	;  0xd5c
    1bfe:	e8 2e       	mov	r14, r24
    1c00:	86 e8       	ldi	r24, 0x86	; 134
    1c02:	95 e0       	ldi	r25, 0x05	; 5
    1c04:	6d 2d       	mov	r22, r13
    1c06:	4f 2d       	mov	r20, r15
    1c08:	21 2f       	mov	r18, r17
    1c0a:	0e 94 36 02 	call	0x46c	;  0x46c
    1c0e:	8c ed       	ldi	r24, 0xDC	; 220
    1c10:	95 e0       	ldi	r25, 0x05	; 5
    1c12:	0e 94 0a 07 	call	0xe14	;  0xe14
    1c16:	08 2f       	mov	r16, r24
    1c18:	8c ed       	ldi	r24, 0xDC	; 220
    1c1a:	95 e0       	ldi	r25, 0x05	; 5
    1c1c:	0e 94 21 07 	call	0xe42	;  0xe42
    1c20:	18 2f       	mov	r17, r24
    1c22:	8c ed       	ldi	r24, 0xDC	; 220
    1c24:	95 e0       	ldi	r25, 0x05	; 5
    1c26:	0e 94 f3 06 	call	0xde6	;  0xde6
    1c2a:	28 2f       	mov	r18, r24
    1c2c:	86 e8       	ldi	r24, 0x86	; 134
    1c2e:	95 e0       	ldi	r25, 0x05	; 5
    1c30:	60 2f       	mov	r22, r16
    1c32:	41 2f       	mov	r20, r17
    1c34:	0e 94 e7 01 	call	0x3ce	;  0x3ce
    1c38:	10 92 16 06 	sts	0x0616, r1
    1c3c:	9f cf       	rjmp	.-194    	;  0x1b7c
    1c3e:	08 95       	ret
    1c40:	08 95       	ret
    1c42:	81 e0       	ldi	r24, 0x01	; 1
    1c44:	80 93 5c 06 	sts	0x065C, r24
    1c48:	60 93 39 06 	sts	0x0639, r22
    1c4c:	10 92 5a 06 	sts	0x065A, r1
    1c50:	10 92 5b 06 	sts	0x065B, r1
    1c54:	08 95       	ret
    1c56:	81 e0       	ldi	r24, 0x01	; 1
    1c58:	80 93 5c 06 	sts	0x065C, r24
    1c5c:	60 93 39 06 	sts	0x0639, r22
    1c60:	10 92 5a 06 	sts	0x065A, r1
    1c64:	10 92 5b 06 	sts	0x065B, r1
    1c68:	08 95       	ret
    1c6a:	80 91 38 06 	lds	r24, 0x0638
    1c6e:	90 91 37 06 	lds	r25, 0x0637
    1c72:	89 1b       	sub	r24, r25
    1c74:	08 95       	ret
    1c76:	90 91 37 06 	lds	r25, 0x0637
    1c7a:	80 91 38 06 	lds	r24, 0x0638
    1c7e:	98 17       	cp	r25, r24
    1c80:	10 f0       	brcs	.+4      	;  0x1c86
    1c82:	80 e0       	ldi	r24, 0x00	; 0
    1c84:	08 95       	ret
    1c86:	e9 2f       	mov	r30, r25
    1c88:	f0 e0       	ldi	r31, 0x00	; 0
    1c8a:	e9 5e       	subi	r30, 0xE9	; 233
    1c8c:	f9 4f       	sbci	r31, 0xF9	; 249
    1c8e:	80 81       	ld	r24, Z
    1c90:	9f 5f       	subi	r25, 0xFF	; 255
    1c92:	90 93 37 06 	sts	0x0637, r25
    1c96:	08 95       	ret
    1c98:	ac 01       	movw	r20, r24
    1c9a:	20 91 5f 06 	lds	r18, 0x065F
    1c9e:	30 91 60 06 	lds	r19, 0x0660
    1ca2:	21 15       	cp	r18, r1
    1ca4:	31 05       	cpc	r19, r1
    1ca6:	e1 f0       	breq	.+56     	;  0x1ce0
    1ca8:	90 91 37 06 	lds	r25, 0x0637
    1cac:	80 91 38 06 	lds	r24, 0x0638
    1cb0:	98 17       	cp	r25, r24
    1cb2:	b0 f0       	brcs	.+44     	;  0x1ce0
    1cb4:	90 e0       	ldi	r25, 0x00	; 0
    1cb6:	08 c0       	rjmp	.+16     	;  0x1cc8
    1cb8:	fa 01       	movw	r30, r20
    1cba:	ea 0f       	add	r30, r26
    1cbc:	fb 1f       	adc	r31, r27
    1cbe:	80 81       	ld	r24, Z
    1cc0:	a9 5e       	subi	r26, 0xE9	; 233
    1cc2:	b9 4f       	sbci	r27, 0xF9	; 249
    1cc4:	8c 93       	st	X, r24
    1cc6:	9f 5f       	subi	r25, 0xFF	; 255
    1cc8:	a9 2f       	mov	r26, r25
    1cca:	b0 e0       	ldi	r27, 0x00	; 0
    1ccc:	a6 17       	cp	r26, r22
    1cce:	b7 07       	cpc	r27, r23
    1cd0:	9c f3       	brlt	.-26     	;  0x1cb8
    1cd2:	10 92 37 06 	sts	0x0637, r1
    1cd6:	60 93 38 06 	sts	0x0638, r22
    1cda:	cb 01       	movw	r24, r22
    1cdc:	f9 01       	movw	r30, r18
    1cde:	09 95       	icall
    1ce0:	08 95       	ret
    1ce2:	e0 91 5d 06 	lds	r30, 0x065D
    1ce6:	f0 91 5e 06 	lds	r31, 0x065E
    1cea:	30 97       	sbiw	r30, 0x00	; 0
    1cec:	29 f0       	breq	.+10     	;  0x1cf8
    1cee:	10 92 5a 06 	sts	0x065A, r1
    1cf2:	10 92 5b 06 	sts	0x065B, r1
    1cf6:	09 95       	icall
    1cf8:	08 95       	ret
    1cfa:	70 93 60 06 	sts	0x0660, r23
    1cfe:	60 93 5f 06 	sts	0x065F, r22
    1d02:	08 95       	ret
    1d04:	70 93 5e 06 	sts	0x065E, r23
    1d08:	60 93 5d 06 	sts	0x065D, r22
    1d0c:	08 95       	ret
    1d0e:	08 95       	ret
    1d10:	df 93       	push	r29
    1d12:	cf 93       	push	r28
    1d14:	0f 92       	push	r0
    1d16:	cd b7       	in	r28, 0x3d	; 61
    1d18:	de b7       	in	r29, 0x3e	; 62
    1d1a:	69 83       	std	Y+1, r22	; 0x01
    1d1c:	80 91 5c 06 	lds	r24, 0x065C
    1d20:	88 23       	and	r24, r24
    1d22:	89 f0       	breq	.+34     	;  0x1d46
    1d24:	80 91 5b 06 	lds	r24, 0x065B
    1d28:	80 32       	cpi	r24, 0x20	; 32
    1d2a:	90 f4       	brcc	.+36     	;  0x1d50
    1d2c:	80 91 5a 06 	lds	r24, 0x065A
    1d30:	e8 2f       	mov	r30, r24
    1d32:	f0 e0       	ldi	r31, 0x00	; 0
    1d34:	e6 5c       	subi	r30, 0xC6	; 198
    1d36:	f9 4f       	sbci	r31, 0xF9	; 249
    1d38:	60 83       	st	Z, r22
    1d3a:	8f 5f       	subi	r24, 0xFF	; 255
    1d3c:	80 93 5a 06 	sts	0x065A, r24
    1d40:	80 93 5b 06 	sts	0x065B, r24
    1d44:	05 c0       	rjmp	.+10     	;  0x1d50
    1d46:	ce 01       	movw	r24, r28
    1d48:	01 96       	adiw	r24, 0x01	; 1
    1d4a:	61 e0       	ldi	r22, 0x01	; 1
    1d4c:	0e 94 af 0f 	call	0x1f5e	;  0x1f5e
    1d50:	0f 90       	pop	r0
    1d52:	cf 91       	pop	r28
    1d54:	df 91       	pop	r29
    1d56:	08 95       	ret
    1d58:	0e 94 88 0e 	call	0x1d10	;  0x1d10
    1d5c:	08 95       	ret
    1d5e:	ef 92       	push	r14
    1d60:	ff 92       	push	r15
    1d62:	0f 93       	push	r16
    1d64:	1f 93       	push	r17
    1d66:	cf 93       	push	r28
    1d68:	df 93       	push	r29
    1d6a:	7c 01       	movw	r14, r24
    1d6c:	04 2f       	mov	r16, r20
    1d6e:	80 91 5c 06 	lds	r24, 0x065C
    1d72:	88 23       	and	r24, r24
    1d74:	59 f0       	breq	.+22     	;  0x1d8c
    1d76:	eb 01       	movw	r28, r22
    1d78:	10 e0       	ldi	r17, 0x00	; 0
    1d7a:	05 c0       	rjmp	.+10     	;  0x1d86
    1d7c:	c7 01       	movw	r24, r14
    1d7e:	69 91       	ld	r22, Y+
    1d80:	0e 94 88 0e 	call	0x1d10	;  0x1d10
    1d84:	1f 5f       	subi	r17, 0xFF	; 255
    1d86:	10 17       	cp	r17, r16
    1d88:	c8 f3       	brcs	.-14     	;  0x1d7c
    1d8a:	04 c0       	rjmp	.+8      	;  0x1d94
    1d8c:	cb 01       	movw	r24, r22
    1d8e:	64 2f       	mov	r22, r20
    1d90:	0e 94 af 0f 	call	0x1f5e	;  0x1f5e
    1d94:	df 91       	pop	r29
    1d96:	cf 91       	pop	r28
    1d98:	1f 91       	pop	r17
    1d9a:	0f 91       	pop	r16
    1d9c:	ff 90       	pop	r15
    1d9e:	ef 90       	pop	r14
    1da0:	08 95       	ret
    1da2:	db 01       	movw	r26, r22
    1da4:	0d 90       	ld	r0, X+
    1da6:	00 20       	and	r0, r0
    1da8:	e9 f7       	brne	.-6      	;  0x1da4
    1daa:	11 97       	sbiw	r26, 0x01	; 1
    1dac:	a6 1b       	sub	r26, r22
    1dae:	b7 0b       	sbc	r27, r23
    1db0:	4a 2f       	mov	r20, r26
    1db2:	0e 94 af 0e 	call	0x1d5e	;  0x1d5e
    1db6:	08 95       	ret
    1db8:	80 91 39 06 	lds	r24, 0x0639
    1dbc:	6a e3       	ldi	r22, 0x3A	; 58
    1dbe:	76 e0       	ldi	r23, 0x06	; 6
    1dc0:	40 91 5b 06 	lds	r20, 0x065B
    1dc4:	21 e0       	ldi	r18, 0x01	; 1
    1dc6:	0e 94 6c 0f 	call	0x1ed8	;  0x1ed8
    1dca:	10 92 5a 06 	sts	0x065A, r1
    1dce:	10 92 5b 06 	sts	0x065B, r1
    1dd2:	10 92 5c 06 	sts	0x065C, r1
    1dd6:	08 95       	ret
    1dd8:	41 32       	cpi	r20, 0x21	; 33
    1dda:	08 f0       	brcs	.+2      	;  0x1dde
    1ddc:	40 e2       	ldi	r20, 0x20	; 32
    1dde:	86 2f       	mov	r24, r22
    1de0:	67 e1       	ldi	r22, 0x17	; 23
    1de2:	76 e0       	ldi	r23, 0x06	; 6
    1de4:	0e 94 35 0f 	call	0x1e6a	;  0x1e6a
    1de8:	10 92 37 06 	sts	0x0637, r1
    1dec:	80 93 38 06 	sts	0x0638, r24
    1df0:	08 95       	ret
    1df2:	0e 94 ec 0e 	call	0x1dd8	;  0x1dd8
    1df6:	08 95       	ret
    1df8:	10 92 37 06 	sts	0x0637, r1
    1dfc:	10 92 38 06 	sts	0x0638, r1
    1e00:	10 92 5a 06 	sts	0x065A, r1
    1e04:	10 92 5b 06 	sts	0x065B, r1
    1e08:	0e 94 1e 0f 	call	0x1e3c	;  0x1e3c
    1e0c:	08 95       	ret
    1e0e:	0f 93       	push	r16
    1e10:	1f 93       	push	r17
    1e12:	8c 01       	movw	r16, r24
    1e14:	86 2f       	mov	r24, r22
    1e16:	0e 94 31 0f 	call	0x1e62	;  0x1e62
    1e1a:	81 e7       	ldi	r24, 0x71	; 113
    1e1c:	9e e0       	ldi	r25, 0x0E	; 14
    1e1e:	0e 94 cf 0f 	call	0x1f9e	;  0x1f9e
    1e22:	8c e4       	ldi	r24, 0x4C	; 76
    1e24:	9e e0       	ldi	r25, 0x0E	; 14
    1e26:	0e 94 ca 0f 	call	0x1f94	;  0x1f94
    1e2a:	c8 01       	movw	r24, r16
    1e2c:	0e 94 fc 0e 	call	0x1df8	;  0x1df8
    1e30:	1f 91       	pop	r17
    1e32:	0f 91       	pop	r16
    1e34:	08 95       	ret
    1e36:	0e 94 07 0f 	call	0x1e0e	;  0x1e0e
    1e3a:	08 95       	ret
    1e3c:	10 92 62 06 	sts	0x0662, r1
    1e40:	44 9a       	sbi	0x08, 4	; 8
    1e42:	45 9a       	sbi	0x08, 5	; 8
    1e44:	e9 eb       	ldi	r30, 0xB9	; 185
    1e46:	f0 e0       	ldi	r31, 0x00	; 0
    1e48:	80 81       	ld	r24, Z
    1e4a:	8e 7f       	andi	r24, 0xFE	; 254
    1e4c:	80 83       	st	Z, r24
    1e4e:	80 81       	ld	r24, Z
    1e50:	8d 7f       	andi	r24, 0xFD	; 253
    1e52:	80 83       	st	Z, r24
    1e54:	88 e4       	ldi	r24, 0x48	; 72
    1e56:	80 93 b8 00 	sts	0x00B8, r24
    1e5a:	85 e4       	ldi	r24, 0x45	; 69
    1e5c:	80 93 bc 00 	sts	0x00BC, r24
    1e60:	08 95       	ret
    1e62:	88 0f       	add	r24, r24
    1e64:	80 93 ba 00 	sts	0x00BA, r24
    1e68:	08 95       	ret
    1e6a:	98 2f       	mov	r25, r24
    1e6c:	41 32       	cpi	r20, 0x21	; 33
    1e6e:	10 f0       	brcs	.+4      	;  0x1e74
    1e70:	40 e0       	ldi	r20, 0x00	; 0
    1e72:	30 c0       	rjmp	.+96     	;  0x1ed4
    1e74:	80 91 62 06 	lds	r24, 0x0662
    1e78:	88 23       	and	r24, r24
    1e7a:	e1 f7       	brne	.-8      	;  0x1e74
    1e7c:	81 e0       	ldi	r24, 0x01	; 1
    1e7e:	80 93 62 06 	sts	0x0662, r24
    1e82:	8f ef       	ldi	r24, 0xFF	; 255
    1e84:	80 93 cd 06 	sts	0x06CD, r24
    1e88:	10 92 88 06 	sts	0x0688, r1
    1e8c:	41 50       	subi	r20, 0x01	; 1
    1e8e:	40 93 89 06 	sts	0x0689, r20
    1e92:	4f 5f       	subi	r20, 0xFF	; 255
    1e94:	99 0f       	add	r25, r25
    1e96:	91 60       	ori	r25, 0x01	; 1
    1e98:	90 93 63 06 	sts	0x0663, r25
    1e9c:	85 ee       	ldi	r24, 0xE5	; 229
    1e9e:	80 93 bc 00 	sts	0x00BC, r24
    1ea2:	80 91 62 06 	lds	r24, 0x0662
    1ea6:	81 30       	cpi	r24, 0x01	; 1
    1ea8:	e1 f3       	breq	.-8      	;  0x1ea2
    1eaa:	80 91 88 06 	lds	r24, 0x0688
    1eae:	84 17       	cp	r24, r20
    1eb0:	10 f4       	brcc	.+4      	;  0x1eb6
    1eb2:	40 91 88 06 	lds	r20, 0x0688
    1eb6:	20 e0       	ldi	r18, 0x00	; 0
    1eb8:	30 e0       	ldi	r19, 0x00	; 0
    1eba:	0a c0       	rjmp	.+20     	;  0x1ed0
    1ebc:	fb 01       	movw	r30, r22
    1ebe:	e2 0f       	add	r30, r18
    1ec0:	f3 1f       	adc	r31, r19
    1ec2:	d9 01       	movw	r26, r18
    1ec4:	a8 59       	subi	r26, 0x98	; 152
    1ec6:	b9 4f       	sbci	r27, 0xF9	; 249
    1ec8:	8c 91       	ld	r24, X
    1eca:	80 83       	st	Z, r24
    1ecc:	2f 5f       	subi	r18, 0xFF	; 255
    1ece:	3f 4f       	sbci	r19, 0xFF	; 255
    1ed0:	24 17       	cp	r18, r20
    1ed2:	a0 f3       	brcs	.-24     	;  0x1ebc
    1ed4:	84 2f       	mov	r24, r20
    1ed6:	08 95       	ret
    1ed8:	1f 93       	push	r17
    1eda:	58 2f       	mov	r21, r24
    1edc:	12 2f       	mov	r17, r18
    1ede:	41 32       	cpi	r20, 0x21	; 33
    1ee0:	10 f0       	brcs	.+4      	;  0x1ee6
    1ee2:	81 e0       	ldi	r24, 0x01	; 1
    1ee4:	3a c0       	rjmp	.+116    	;  0x1f5a
    1ee6:	80 91 62 06 	lds	r24, 0x0662
    1eea:	88 23       	and	r24, r24
    1eec:	e1 f7       	brne	.-8      	;  0x1ee6
    1eee:	82 e0       	ldi	r24, 0x02	; 2
    1ef0:	80 93 62 06 	sts	0x0662, r24
    1ef4:	8f ef       	ldi	r24, 0xFF	; 255
    1ef6:	80 93 cd 06 	sts	0x06CD, r24
    1efa:	10 92 88 06 	sts	0x0688, r1
    1efe:	40 93 89 06 	sts	0x0689, r20
    1f02:	a8 e6       	ldi	r26, 0x68	; 104
    1f04:	b6 e0       	ldi	r27, 0x06	; 6
    1f06:	fb 01       	movw	r30, r22
    1f08:	02 c0       	rjmp	.+4      	;  0x1f0e
    1f0a:	81 91       	ld	r24, Z+
    1f0c:	8d 93       	st	X+, r24
    1f0e:	8e 2f       	mov	r24, r30
    1f10:	86 1b       	sub	r24, r22
    1f12:	84 17       	cp	r24, r20
    1f14:	d0 f3       	brcs	.-12     	;  0x1f0a
    1f16:	85 2f       	mov	r24, r21
    1f18:	90 e0       	ldi	r25, 0x00	; 0
    1f1a:	88 0f       	add	r24, r24
    1f1c:	99 1f       	adc	r25, r25
    1f1e:	80 93 63 06 	sts	0x0663, r24
    1f22:	85 ee       	ldi	r24, 0xE5	; 229
    1f24:	80 93 bc 00 	sts	0x00BC, r24
    1f28:	11 23       	and	r17, r17
    1f2a:	21 f0       	breq	.+8      	;  0x1f34
    1f2c:	80 91 62 06 	lds	r24, 0x0662
    1f30:	82 30       	cpi	r24, 0x02	; 2
    1f32:	e1 f3       	breq	.-8      	;  0x1f2c
    1f34:	80 91 cd 06 	lds	r24, 0x06CD
    1f38:	8f 3f       	cpi	r24, 0xFF	; 255
    1f3a:	11 f4       	brne	.+4      	;  0x1f40
    1f3c:	80 e0       	ldi	r24, 0x00	; 0
    1f3e:	0d c0       	rjmp	.+26     	;  0x1f5a
    1f40:	80 91 cd 06 	lds	r24, 0x06CD
    1f44:	80 32       	cpi	r24, 0x20	; 32
    1f46:	11 f4       	brne	.+4      	;  0x1f4c
    1f48:	82 e0       	ldi	r24, 0x02	; 2
    1f4a:	07 c0       	rjmp	.+14     	;  0x1f5a
    1f4c:	80 91 cd 06 	lds	r24, 0x06CD
    1f50:	80 33       	cpi	r24, 0x30	; 48
    1f52:	11 f0       	breq	.+4      	;  0x1f58
    1f54:	84 e0       	ldi	r24, 0x04	; 4
    1f56:	01 c0       	rjmp	.+2      	;  0x1f5a
    1f58:	83 e0       	ldi	r24, 0x03	; 3
    1f5a:	1f 91       	pop	r17
    1f5c:	08 95       	ret
    1f5e:	48 2f       	mov	r20, r24
    1f60:	61 32       	cpi	r22, 0x21	; 33
    1f62:	10 f0       	brcs	.+4      	;  0x1f68
    1f64:	81 e0       	ldi	r24, 0x01	; 1
    1f66:	08 95       	ret
    1f68:	80 91 62 06 	lds	r24, 0x0662
    1f6c:	84 30       	cpi	r24, 0x04	; 4
    1f6e:	11 f0       	breq	.+4      	;  0x1f74
    1f70:	82 e0       	ldi	r24, 0x02	; 2
    1f72:	08 95       	ret
    1f74:	60 93 ab 06 	sts	0x06AB, r22
    1f78:	aa e8       	ldi	r26, 0x8A	; 138
    1f7a:	b6 e0       	ldi	r27, 0x06	; 6
    1f7c:	84 2f       	mov	r24, r20
    1f7e:	9c 01       	movw	r18, r24
    1f80:	f9 01       	movw	r30, r18
    1f82:	02 c0       	rjmp	.+4      	;  0x1f88
    1f84:	81 91       	ld	r24, Z+
    1f86:	8d 93       	st	X+, r24
    1f88:	8e 2f       	mov	r24, r30
    1f8a:	84 1b       	sub	r24, r20
    1f8c:	86 17       	cp	r24, r22
    1f8e:	d0 f3       	brcs	.-12     	;  0x1f84
    1f90:	80 e0       	ldi	r24, 0x00	; 0
    1f92:	08 95       	ret
    1f94:	90 93 67 06 	sts	0x0667, r25
    1f98:	80 93 66 06 	sts	0x0666, r24
    1f9c:	08 95       	ret
    1f9e:	90 93 65 06 	sts	0x0665, r25
    1fa2:	80 93 64 06 	sts	0x0664, r24
    1fa6:	08 95       	ret
    1fa8:	88 23       	and	r24, r24
    1faa:	11 f0       	breq	.+4      	;  0x1fb0
    1fac:	85 ec       	ldi	r24, 0xC5	; 197
    1fae:	01 c0       	rjmp	.+2      	;  0x1fb2
    1fb0:	85 e8       	ldi	r24, 0x85	; 133
    1fb2:	80 93 bc 00 	sts	0x00BC, r24
    1fb6:	08 95       	ret
    1fb8:	85 ed       	ldi	r24, 0xD5	; 213
    1fba:	80 93 bc 00 	sts	0x00BC, r24
    1fbe:	80 91 bc 00 	lds	r24, 0x00BC
    1fc2:	84 fd       	sbrc	r24, 4
    1fc4:	fc cf       	rjmp	.-8      	;  0x1fbe
    1fc6:	10 92 62 06 	sts	0x0662, r1
    1fca:	08 95       	ret
    1fcc:	85 ec       	ldi	r24, 0xC5	; 197
    1fce:	80 93 bc 00 	sts	0x00BC, r24
    1fd2:	10 92 62 06 	sts	0x0662, r1
    1fd6:	08 95       	ret
    1fd8:	1f 92       	push	r1
    1fda:	0f 92       	push	r0
    1fdc:	0f b6       	in	r0, 0x3f	; 63
    1fde:	0f 92       	push	r0
    1fe0:	11 24       	eor	r1, r1
    1fe2:	2f 93       	push	r18
    1fe4:	3f 93       	push	r19
    1fe6:	4f 93       	push	r20
    1fe8:	5f 93       	push	r21
    1fea:	6f 93       	push	r22
    1fec:	7f 93       	push	r23
    1fee:	8f 93       	push	r24
    1ff0:	9f 93       	push	r25
    1ff2:	af 93       	push	r26
    1ff4:	bf 93       	push	r27
    1ff6:	ef 93       	push	r30
    1ff8:	ff 93       	push	r31
    1ffa:	80 91 b9 00 	lds	r24, 0x00B9
    1ffe:	90 e0       	ldi	r25, 0x00	; 0
    2000:	88 7f       	andi	r24, 0xF8	; 248
    2002:	90 70       	andi	r25, 0x00	; 0
    2004:	80 36       	cpi	r24, 0x60	; 96
    2006:	91 05       	cpc	r25, r1
    2008:	09 f4       	brne	.+2      	;  0x200c
    200a:	dc c0       	rjmp	.+440    	;  0x21c4
    200c:	81 36       	cpi	r24, 0x61	; 97
    200e:	91 05       	cpc	r25, r1
    2010:	cc f5       	brge	.+114    	;  0x2084
    2012:	88 32       	cpi	r24, 0x28	; 40
    2014:	91 05       	cpc	r25, r1
    2016:	09 f4       	brne	.+2      	;  0x201a
    2018:	7b c0       	rjmp	.+246    	;  0x2110
    201a:	89 32       	cpi	r24, 0x29	; 41
    201c:	91 05       	cpc	r25, r1
    201e:	b4 f4       	brge	.+44     	;  0x204c
    2020:	80 31       	cpi	r24, 0x10	; 16
    2022:	91 05       	cpc	r25, r1
    2024:	09 f4       	brne	.+2      	;  0x2028
    2026:	6f c0       	rjmp	.+222    	;  0x2106
    2028:	81 31       	cpi	r24, 0x11	; 17
    202a:	91 05       	cpc	r25, r1
    202c:	3c f4       	brge	.+14     	;  0x203c
    202e:	00 97       	sbiw	r24, 0x00	; 0
    2030:	09 f4       	brne	.+2      	;  0x2034
    2032:	31 c1       	rjmp	.+610    	;  0x2296
    2034:	08 97       	sbiw	r24, 0x08	; 8
    2036:	09 f0       	breq	.+2      	;  0x203a
    2038:	39 c1       	rjmp	.+626    	;  0x22ac
    203a:	65 c0       	rjmp	.+202    	;  0x2106
    203c:	88 31       	cpi	r24, 0x18	; 24
    203e:	91 05       	cpc	r25, r1
    2040:	09 f4       	brne	.+2      	;  0x2044
    2042:	66 c0       	rjmp	.+204    	;  0x2110
    2044:	80 97       	sbiw	r24, 0x20	; 32
    2046:	09 f0       	breq	.+2      	;  0x204a
    2048:	31 c1       	rjmp	.+610    	;  0x22ac
    204a:	7d c0       	rjmp	.+250    	;  0x2146
    204c:	80 34       	cpi	r24, 0x40	; 64
    204e:	91 05       	cpc	r25, r1
    2050:	09 f4       	brne	.+2      	;  0x2054
    2052:	9f c0       	rjmp	.+318    	;  0x2192
    2054:	81 34       	cpi	r24, 0x41	; 65
    2056:	91 05       	cpc	r25, r1
    2058:	44 f4       	brge	.+16     	;  0x206a
    205a:	80 33       	cpi	r24, 0x30	; 48
    205c:	91 05       	cpc	r25, r1
    205e:	09 f4       	brne	.+2      	;  0x2062
    2060:	7d c0       	rjmp	.+250    	;  0x215c
    2062:	c8 97       	sbiw	r24, 0x38	; 56
    2064:	09 f0       	breq	.+2      	;  0x2068
    2066:	22 c1       	rjmp	.+580    	;  0x22ac
    2068:	84 c0       	rjmp	.+264    	;  0x2172
    206a:	80 35       	cpi	r24, 0x50	; 80
    206c:	91 05       	cpc	r25, r1
    206e:	09 f4       	brne	.+2      	;  0x2072
    2070:	84 c0       	rjmp	.+264    	;  0x217a
    2072:	88 35       	cpi	r24, 0x58	; 88
    2074:	91 05       	cpc	r25, r1
    2076:	09 f4       	brne	.+2      	;  0x207a
    2078:	91 c0       	rjmp	.+290    	;  0x219c
    207a:	88 34       	cpi	r24, 0x48	; 72
    207c:	91 05       	cpc	r25, r1
    207e:	09 f0       	breq	.+2      	;  0x2082
    2080:	15 c1       	rjmp	.+554    	;  0x22ac
    2082:	98 c0       	rjmp	.+304    	;  0x21b4
    2084:	88 39       	cpi	r24, 0x98	; 152
    2086:	91 05       	cpc	r25, r1
    2088:	09 f4       	brne	.+2      	;  0x208c
    208a:	fd c0       	rjmp	.+506    	;  0x2286
    208c:	89 39       	cpi	r24, 0x99	; 153
    208e:	91 05       	cpc	r25, r1
    2090:	ec f4       	brge	.+58     	;  0x20cc
    2092:	88 37       	cpi	r24, 0x78	; 120
    2094:	91 05       	cpc	r25, r1
    2096:	09 f4       	brne	.+2      	;  0x209a
    2098:	95 c0       	rjmp	.+298    	;  0x21c4
    209a:	89 37       	cpi	r24, 0x79	; 121
    209c:	91 05       	cpc	r25, r1
    209e:	4c f4       	brge	.+18     	;  0x20b2
    20a0:	88 36       	cpi	r24, 0x68	; 104
    20a2:	91 05       	cpc	r25, r1
    20a4:	09 f4       	brne	.+2      	;  0x20a8
    20a6:	8e c0       	rjmp	.+284    	;  0x21c4
    20a8:	80 37       	cpi	r24, 0x70	; 112
    20aa:	91 05       	cpc	r25, r1
    20ac:	09 f0       	breq	.+2      	;  0x20b0
    20ae:	fe c0       	rjmp	.+508    	;  0x22ac
    20b0:	89 c0       	rjmp	.+274    	;  0x21c4
    20b2:	88 38       	cpi	r24, 0x88	; 136
    20b4:	91 05       	cpc	r25, r1
    20b6:	09 f4       	brne	.+2      	;  0x20ba
    20b8:	e6 c0       	rjmp	.+460    	;  0x2286
    20ba:	80 39       	cpi	r24, 0x90	; 144
    20bc:	91 05       	cpc	r25, r1
    20be:	09 f4       	brne	.+2      	;  0x20c2
    20c0:	87 c0       	rjmp	.+270    	;  0x21d0
    20c2:	80 38       	cpi	r24, 0x80	; 128
    20c4:	91 05       	cpc	r25, r1
    20c6:	09 f0       	breq	.+2      	;  0x20ca
    20c8:	f1 c0       	rjmp	.+482    	;  0x22ac
    20ca:	82 c0       	rjmp	.+260    	;  0x21d0
    20cc:	80 3b       	cpi	r24, 0xB0	; 176
    20ce:	91 05       	cpc	r25, r1
    20d0:	09 f4       	brne	.+2      	;  0x20d4
    20d2:	b0 c0       	rjmp	.+352    	;  0x2234
    20d4:	81 3b       	cpi	r24, 0xB1	; 177
    20d6:	91 05       	cpc	r25, r1
    20d8:	4c f4       	brge	.+18     	;  0x20ec
    20da:	80 3a       	cpi	r24, 0xA0	; 160
    20dc:	91 05       	cpc	r25, r1
    20de:	09 f4       	brne	.+2      	;  0x20e2
    20e0:	89 c0       	rjmp	.+274    	;  0x21f4
    20e2:	88 3a       	cpi	r24, 0xA8	; 168
    20e4:	91 05       	cpc	r25, r1
    20e6:	09 f0       	breq	.+2      	;  0x20ea
    20e8:	e1 c0       	rjmp	.+450    	;  0x22ac
    20ea:	a4 c0       	rjmp	.+328    	;  0x2234
    20ec:	80 3c       	cpi	r24, 0xC0	; 192
    20ee:	91 05       	cpc	r25, r1
    20f0:	09 f4       	brne	.+2      	;  0x20f4
    20f2:	cd c0       	rjmp	.+410    	;  0x228e
    20f4:	88 3c       	cpi	r24, 0xC8	; 200
    20f6:	91 05       	cpc	r25, r1
    20f8:	09 f4       	brne	.+2      	;  0x20fc
    20fa:	c9 c0       	rjmp	.+402    	;  0x228e
    20fc:	88 3b       	cpi	r24, 0xB8	; 184
    20fe:	91 05       	cpc	r25, r1
    2100:	09 f0       	breq	.+2      	;  0x2104
    2102:	d4 c0       	rjmp	.+424    	;  0x22ac
    2104:	ac c0       	rjmp	.+344    	;  0x225e
    2106:	80 91 63 06 	lds	r24, 0x0663
    210a:	80 93 bb 00 	sts	0x00BB, r24
    210e:	b9 c0       	rjmp	.+370    	;  0x2282
    2110:	90 91 88 06 	lds	r25, 0x0688
    2114:	80 91 89 06 	lds	r24, 0x0689
    2118:	98 17       	cp	r25, r24
    211a:	68 f4       	brcc	.+26     	;  0x2136
    211c:	90 91 88 06 	lds	r25, 0x0688
    2120:	e9 2f       	mov	r30, r25
    2122:	f0 e0       	ldi	r31, 0x00	; 0
    2124:	e8 59       	subi	r30, 0x98	; 152
    2126:	f9 4f       	sbci	r31, 0xF9	; 249
    2128:	80 81       	ld	r24, Z
    212a:	80 93 bb 00 	sts	0x00BB, r24
    212e:	9f 5f       	subi	r25, 0xFF	; 255
    2130:	90 93 88 06 	sts	0x0688, r25
    2134:	a6 c0       	rjmp	.+332    	;  0x2282
    2136:	85 ed       	ldi	r24, 0xD5	; 213
    2138:	80 93 bc 00 	sts	0x00BC, r24
    213c:	80 91 bc 00 	lds	r24, 0x00BC
    2140:	84 fd       	sbrc	r24, 4
    2142:	fc cf       	rjmp	.-8      	;  0x213c
    2144:	b1 c0       	rjmp	.+354    	;  0x22a8
    2146:	80 e2       	ldi	r24, 0x20	; 32
    2148:	80 93 cd 06 	sts	0x06CD, r24
    214c:	85 ed       	ldi	r24, 0xD5	; 213
    214e:	80 93 bc 00 	sts	0x00BC, r24
    2152:	80 91 bc 00 	lds	r24, 0x00BC
    2156:	84 fd       	sbrc	r24, 4
    2158:	fc cf       	rjmp	.-8      	;  0x2152
    215a:	a6 c0       	rjmp	.+332    	;  0x22a8
    215c:	80 e3       	ldi	r24, 0x30	; 48
    215e:	80 93 cd 06 	sts	0x06CD, r24
    2162:	85 ed       	ldi	r24, 0xD5	; 213
    2164:	80 93 bc 00 	sts	0x00BC, r24
    2168:	80 91 bc 00 	lds	r24, 0x00BC
    216c:	84 fd       	sbrc	r24, 4
    216e:	fc cf       	rjmp	.-8      	;  0x2168
    2170:	9b c0       	rjmp	.+310    	;  0x22a8
    2172:	88 e3       	ldi	r24, 0x38	; 56
    2174:	80 93 cd 06 	sts	0x06CD, r24
    2178:	8a c0       	rjmp	.+276    	;  0x228e
    217a:	80 91 88 06 	lds	r24, 0x0688
    217e:	90 91 bb 00 	lds	r25, 0x00BB
    2182:	e8 2f       	mov	r30, r24
    2184:	f0 e0       	ldi	r31, 0x00	; 0
    2186:	e8 59       	subi	r30, 0x98	; 152
    2188:	f9 4f       	sbci	r31, 0xF9	; 249
    218a:	90 83       	st	Z, r25
    218c:	8f 5f       	subi	r24, 0xFF	; 255
    218e:	80 93 88 06 	sts	0x0688, r24
    2192:	90 91 88 06 	lds	r25, 0x0688
    2196:	80 91 89 06 	lds	r24, 0x0689
    219a:	71 c0       	rjmp	.+226    	;  0x227e
    219c:	80 91 88 06 	lds	r24, 0x0688
    21a0:	90 91 bb 00 	lds	r25, 0x00BB
    21a4:	e8 2f       	mov	r30, r24
    21a6:	f0 e0       	ldi	r31, 0x00	; 0
    21a8:	e8 59       	subi	r30, 0x98	; 152
    21aa:	f9 4f       	sbci	r31, 0xF9	; 249
    21ac:	90 83       	st	Z, r25
    21ae:	8f 5f       	subi	r24, 0xFF	; 255
    21b0:	80 93 88 06 	sts	0x0688, r24
    21b4:	85 ed       	ldi	r24, 0xD5	; 213
    21b6:	80 93 bc 00 	sts	0x00BC, r24
    21ba:	80 91 bc 00 	lds	r24, 0x00BC
    21be:	84 fd       	sbrc	r24, 4
    21c0:	fc cf       	rjmp	.-8      	;  0x21ba
    21c2:	72 c0       	rjmp	.+228    	;  0x22a8
    21c4:	83 e0       	ldi	r24, 0x03	; 3
    21c6:	80 93 62 06 	sts	0x0662, r24
    21ca:	10 92 cc 06 	sts	0x06CC, r1
    21ce:	59 c0       	rjmp	.+178    	;  0x2282
    21d0:	80 91 cc 06 	lds	r24, 0x06CC
    21d4:	80 32       	cpi	r24, 0x20	; 32
    21d6:	08 f0       	brcs	.+2      	;  0x21da
    21d8:	56 c0       	rjmp	.+172    	;  0x2286
    21da:	80 91 cc 06 	lds	r24, 0x06CC
    21de:	90 91 bb 00 	lds	r25, 0x00BB
    21e2:	e8 2f       	mov	r30, r24
    21e4:	f0 e0       	ldi	r31, 0x00	; 0
    21e6:	e4 55       	subi	r30, 0x54	; 84
    21e8:	f9 4f       	sbci	r31, 0xF9	; 249
    21ea:	90 83       	st	Z, r25
    21ec:	8f 5f       	subi	r24, 0xFF	; 255
    21ee:	80 93 cc 06 	sts	0x06CC, r24
    21f2:	47 c0       	rjmp	.+142    	;  0x2282
    21f4:	80 91 cc 06 	lds	r24, 0x06CC
    21f8:	80 32       	cpi	r24, 0x20	; 32
    21fa:	30 f4       	brcc	.+12     	;  0x2208
    21fc:	e0 91 cc 06 	lds	r30, 0x06CC
    2200:	f0 e0       	ldi	r31, 0x00	; 0
    2202:	e4 55       	subi	r30, 0x54	; 84
    2204:	f9 4f       	sbci	r31, 0xF9	; 249
    2206:	10 82       	st	Z, r1
    2208:	85 ed       	ldi	r24, 0xD5	; 213
    220a:	80 93 bc 00 	sts	0x00BC, r24
    220e:	80 91 bc 00 	lds	r24, 0x00BC
    2212:	84 fd       	sbrc	r24, 4
    2214:	fc cf       	rjmp	.-8      	;  0x220e
    2216:	10 92 62 06 	sts	0x0662, r1
    221a:	60 91 cc 06 	lds	r22, 0x06CC
    221e:	e0 91 66 06 	lds	r30, 0x0666
    2222:	f0 91 67 06 	lds	r31, 0x0667
    2226:	8c ea       	ldi	r24, 0xAC	; 172
    2228:	96 e0       	ldi	r25, 0x06	; 6
    222a:	70 e0       	ldi	r23, 0x00	; 0
    222c:	09 95       	icall
    222e:	10 92 cc 06 	sts	0x06CC, r1
    2232:	2d c0       	rjmp	.+90     	;  0x228e
    2234:	84 e0       	ldi	r24, 0x04	; 4
    2236:	80 93 62 06 	sts	0x0662, r24
    223a:	10 92 aa 06 	sts	0x06AA, r1
    223e:	10 92 ab 06 	sts	0x06AB, r1
    2242:	e0 91 64 06 	lds	r30, 0x0664
    2246:	f0 91 65 06 	lds	r31, 0x0665
    224a:	09 95       	icall
    224c:	80 91 ab 06 	lds	r24, 0x06AB
    2250:	88 23       	and	r24, r24
    2252:	29 f4       	brne	.+10     	;  0x225e
    2254:	81 e0       	ldi	r24, 0x01	; 1
    2256:	80 93 ab 06 	sts	0x06AB, r24
    225a:	10 92 8a 06 	sts	0x068A, r1
    225e:	90 91 aa 06 	lds	r25, 0x06AA
    2262:	e9 2f       	mov	r30, r25
    2264:	f0 e0       	ldi	r31, 0x00	; 0
    2266:	e6 57       	subi	r30, 0x76	; 118
    2268:	f9 4f       	sbci	r31, 0xF9	; 249
    226a:	80 81       	ld	r24, Z
    226c:	80 93 bb 00 	sts	0x00BB, r24
    2270:	9f 5f       	subi	r25, 0xFF	; 255
    2272:	90 93 aa 06 	sts	0x06AA, r25
    2276:	90 91 aa 06 	lds	r25, 0x06AA
    227a:	80 91 ab 06 	lds	r24, 0x06AB
    227e:	98 17       	cp	r25, r24
    2280:	10 f4       	brcc	.+4      	;  0x2286
    2282:	85 ec       	ldi	r24, 0xC5	; 197
    2284:	01 c0       	rjmp	.+2      	;  0x2288
    2286:	85 e8       	ldi	r24, 0x85	; 133
    2288:	80 93 bc 00 	sts	0x00BC, r24
    228c:	0f c0       	rjmp	.+30     	;  0x22ac
    228e:	85 ec       	ldi	r24, 0xC5	; 197
    2290:	80 93 bc 00 	sts	0x00BC, r24
    2294:	09 c0       	rjmp	.+18     	;  0x22a8
    2296:	10 92 cd 06 	sts	0x06CD, r1
    229a:	85 ed       	ldi	r24, 0xD5	; 213
    229c:	80 93 bc 00 	sts	0x00BC, r24
    22a0:	80 91 bc 00 	lds	r24, 0x00BC
    22a4:	84 fd       	sbrc	r24, 4
    22a6:	fc cf       	rjmp	.-8      	;  0x22a0
    22a8:	10 92 62 06 	sts	0x0662, r1
    22ac:	ff 91       	pop	r31
    22ae:	ef 91       	pop	r30
    22b0:	bf 91       	pop	r27
    22b2:	af 91       	pop	r26
    22b4:	9f 91       	pop	r25
    22b6:	8f 91       	pop	r24
    22b8:	7f 91       	pop	r23
    22ba:	6f 91       	pop	r22
    22bc:	5f 91       	pop	r21
    22be:	4f 91       	pop	r20
    22c0:	3f 91       	pop	r19
    22c2:	2f 91       	pop	r18
    22c4:	0f 90       	pop	r0
    22c6:	0f be       	out	0x3f, r0	; 63
    22c8:	0f 90       	pop	r0
    22ca:	1f 90       	pop	r1
    22cc:	18 95       	reti
    22ce:	fc 01       	movw	r30, r24
    22d0:	80 91 ce 06 	lds	r24, 0x06CE
    22d4:	90 91 cf 06 	lds	r25, 0x06CF
    22d8:	8e 17       	cp	r24, r30
    22da:	9f 07       	cpc	r25, r31
    22dc:	11 f4       	brne	.+4      	;  0x22e2
    22de:	80 e0       	ldi	r24, 0x00	; 0
    22e0:	08 95       	ret
    22e2:	81 89       	ldd	r24, Z+17	; 0x11
    22e4:	8e 7f       	andi	r24, 0xFE	; 254
    22e6:	81 8b       	std	Z+17, r24	; 0x11
    22e8:	9f b7       	in	r25, 0x3f	; 63
    22ea:	f8 94       	cli
    22ec:	10 92 10 07 	sts	0x0710, r1
    22f0:	80 91 10 07 	lds	r24, 0x0710
    22f4:	80 93 11 07 	sts	0x0711, r24
    22f8:	f0 93 cf 06 	sts	0x06CF, r31
    22fc:	e0 93 ce 06 	sts	0x06CE, r30
    2300:	9f bf       	out	0x3f, r25	; 63
    2302:	81 e0       	ldi	r24, 0x01	; 1
    2304:	08 95       	ret
    2306:	0f 93       	push	r16
    2308:	1f 93       	push	r17
    230a:	cf 93       	push	r28
    230c:	df 93       	push	r29
    230e:	fc 01       	movw	r30, r24
    2310:	81 89       	ldd	r24, Z+17	; 0x11
    2312:	a4 81       	ldd	r26, Z+4	; 0x04
    2314:	b5 81       	ldd	r27, Z+5	; 0x05
    2316:	93 81       	ldd	r25, Z+3	; 0x03
    2318:	08 2f       	mov	r16, r24
    231a:	02 70       	andi	r16, 0x02	; 2
    231c:	81 ff       	sbrs	r24, 1
    231e:	05 c0       	rjmp	.+10     	;  0x232a
    2320:	8c 91       	ld	r24, X
    2322:	89 23       	and	r24, r25
    2324:	09 f4       	brne	.+2      	;  0x2328
    2326:	54 c0       	rjmp	.+168    	;  0x23d0
    2328:	04 c0       	rjmp	.+8      	;  0x2332
    232a:	8c 91       	ld	r24, X
    232c:	89 23       	and	r24, r25
    232e:	09 f0       	breq	.+2      	;  0x2332
    2330:	4f c0       	rjmp	.+158    	;  0x23d0
    2332:	81 85       	ldd	r24, Z+9	; 0x09
    2334:	92 85       	ldd	r25, Z+10	; 0x0a
    2336:	20 e0       	ldi	r18, 0x00	; 0
    2338:	01 97       	sbiw	r24, 0x01	; 1
    233a:	2f ef       	ldi	r18, 0xFF	; 255
    233c:	8f 3f       	cpi	r24, 0xFF	; 255
    233e:	92 07       	cpc	r25, r18
    2340:	d9 f7       	brne	.-10     	;  0x2338
    2342:	c3 85       	ldd	r28, Z+11	; 0x0b
    2344:	d4 85       	ldd	r29, Z+12	; 0x0c
    2346:	a4 81       	ldd	r26, Z+4	; 0x04
    2348:	b5 81       	ldd	r27, Z+5	; 0x05
    234a:	73 81       	ldd	r23, Z+3	; 0x03
    234c:	60 e0       	ldi	r22, 0x00	; 0
    234e:	31 e0       	ldi	r19, 0x01	; 1
    2350:	40 e0       	ldi	r20, 0x00	; 0
    2352:	50 e0       	ldi	r21, 0x00	; 0
    2354:	10 e0       	ldi	r17, 0x00	; 0
    2356:	ce 01       	movw	r24, r28
    2358:	21 2f       	mov	r18, r17
    235a:	01 97       	sbiw	r24, 0x01	; 1
    235c:	2f ef       	ldi	r18, 0xFF	; 255
    235e:	8f 3f       	cpi	r24, 0xFF	; 255
    2360:	92 07       	cpc	r25, r18
    2362:	d9 f7       	brne	.-10     	;  0x235a
    2364:	8c 91       	ld	r24, X
    2366:	87 23       	and	r24, r23
    2368:	11 f0       	breq	.+4      	;  0x236e
    236a:	63 2b       	or	r22, r19
    236c:	03 c0       	rjmp	.+6      	;  0x2374
    236e:	83 2f       	mov	r24, r19
    2370:	80 95       	com	r24
    2372:	68 23       	and	r22, r24
    2374:	33 0f       	add	r19, r19
    2376:	4f 5f       	subi	r20, 0xFF	; 255
    2378:	5f 4f       	sbci	r21, 0xFF	; 255
    237a:	48 30       	cpi	r20, 0x08	; 8
    237c:	51 05       	cpc	r21, r1
    237e:	59 f7       	brne	.-42     	;  0x2356
    2380:	85 85       	ldd	r24, Z+13	; 0x0d
    2382:	96 85       	ldd	r25, Z+14	; 0x0e
    2384:	20 e0       	ldi	r18, 0x00	; 0
    2386:	01 97       	sbiw	r24, 0x01	; 1
    2388:	2f ef       	ldi	r18, 0xFF	; 255
    238a:	8f 3f       	cpi	r24, 0xFF	; 255
    238c:	92 07       	cpc	r25, r18
    238e:	d9 f7       	brne	.-10     	;  0x2386
    2390:	01 11       	cpse	r16, r1
    2392:	60 95       	com	r22
    2394:	80 91 10 07 	lds	r24, 0x0710
    2398:	20 91 11 07 	lds	r18, 0x0711
    239c:	90 e0       	ldi	r25, 0x00	; 0
    239e:	01 96       	adiw	r24, 0x01	; 1
    23a0:	8f 73       	andi	r24, 0x3F	; 63
    23a2:	90 70       	andi	r25, 0x00	; 0
    23a4:	30 e0       	ldi	r19, 0x00	; 0
    23a6:	82 17       	cp	r24, r18
    23a8:	93 07       	cpc	r25, r19
    23aa:	79 f0       	breq	.+30     	;  0x23ca
    23ac:	e0 91 10 07 	lds	r30, 0x0710
    23b0:	f0 e0       	ldi	r31, 0x00	; 0
    23b2:	e0 53       	subi	r30, 0x30	; 48
    23b4:	f9 4f       	sbci	r31, 0xF9	; 249
    23b6:	60 83       	st	Z, r22
    23b8:	80 91 10 07 	lds	r24, 0x0710
    23bc:	90 e0       	ldi	r25, 0x00	; 0
    23be:	01 96       	adiw	r24, 0x01	; 1
    23c0:	8f 73       	andi	r24, 0x3F	; 63
    23c2:	90 70       	andi	r25, 0x00	; 0
    23c4:	80 93 10 07 	sts	0x0710, r24
    23c8:	03 c0       	rjmp	.+6      	;  0x23d0
    23ca:	81 89       	ldd	r24, Z+17	; 0x11
    23cc:	81 60       	ori	r24, 0x01	; 1
    23ce:	81 8b       	std	Z+17, r24	; 0x11
    23d0:	df 91       	pop	r29
    23d2:	cf 91       	pop	r28
    23d4:	1f 91       	pop	r17
    23d6:	0f 91       	pop	r16
    23d8:	08 95       	ret
    23da:	fc 01       	movw	r30, r24
    23dc:	a7 81       	ldd	r26, Z+7	; 0x07
    23de:	b0 85       	ldd	r27, Z+8	; 0x08
    23e0:	96 81       	ldd	r25, Z+6	; 0x06
    23e2:	66 23       	and	r22, r22
    23e4:	29 f4       	brne	.+10     	;  0x23f0
    23e6:	8c 91       	ld	r24, X
    23e8:	90 95       	com	r25
    23ea:	98 23       	and	r25, r24
    23ec:	9c 93       	st	X, r25
    23ee:	08 95       	ret
    23f0:	8c 91       	ld	r24, X
    23f2:	89 2b       	or	r24, r25
    23f4:	8c 93       	st	X, r24
    23f6:	08 95       	ret
    23f8:	dc 01       	movw	r26, r24
    23fa:	14 96       	adiw	r26, 0x04	; 4
    23fc:	ed 91       	ld	r30, X+
    23fe:	fc 91       	ld	r31, X
    2400:	15 97       	sbiw	r26, 0x05	; 5
    2402:	80 81       	ld	r24, Z
    2404:	13 96       	adiw	r26, 0x03	; 3
    2406:	9c 91       	ld	r25, X
    2408:	89 23       	and	r24, r25
    240a:	08 95       	ret
    240c:	80 91 ce 06 	lds	r24, 0x06CE
    2410:	90 91 cf 06 	lds	r25, 0x06CF
    2414:	00 97       	sbiw	r24, 0x00	; 0
    2416:	11 f0       	breq	.+4      	;  0x241c
    2418:	0e 94 83 11 	call	0x2306	;  0x2306
    241c:	08 95       	ret
    241e:	1f 92       	push	r1
    2420:	0f 92       	push	r0
    2422:	0f b6       	in	r0, 0x3f	; 63
    2424:	0f 92       	push	r0
    2426:	11 24       	eor	r1, r1
    2428:	2f 93       	push	r18
    242a:	3f 93       	push	r19
    242c:	4f 93       	push	r20
    242e:	5f 93       	push	r21
    2430:	6f 93       	push	r22
    2432:	7f 93       	push	r23
    2434:	8f 93       	push	r24
    2436:	9f 93       	push	r25
    2438:	af 93       	push	r26
    243a:	bf 93       	push	r27
    243c:	ef 93       	push	r30
    243e:	ff 93       	push	r31
    2440:	0e 94 06 12 	call	0x240c	;  0x240c
    2444:	ff 91       	pop	r31
    2446:	ef 91       	pop	r30
    2448:	bf 91       	pop	r27
    244a:	af 91       	pop	r26
    244c:	9f 91       	pop	r25
    244e:	8f 91       	pop	r24
    2450:	7f 91       	pop	r23
    2452:	6f 91       	pop	r22
    2454:	5f 91       	pop	r21
    2456:	4f 91       	pop	r20
    2458:	3f 91       	pop	r19
    245a:	2f 91       	pop	r18
    245c:	0f 90       	pop	r0
    245e:	0f be       	out	0x3f, r0	; 63
    2460:	0f 90       	pop	r0
    2462:	1f 90       	pop	r1
    2464:	18 95       	reti
    2466:	1f 92       	push	r1
    2468:	0f 92       	push	r0
    246a:	0f b6       	in	r0, 0x3f	; 63
    246c:	0f 92       	push	r0
    246e:	11 24       	eor	r1, r1
    2470:	2f 93       	push	r18
    2472:	3f 93       	push	r19
    2474:	4f 93       	push	r20
    2476:	5f 93       	push	r21
    2478:	6f 93       	push	r22
    247a:	7f 93       	push	r23
    247c:	8f 93       	push	r24
    247e:	9f 93       	push	r25
    2480:	af 93       	push	r26
    2482:	bf 93       	push	r27
    2484:	ef 93       	push	r30
    2486:	ff 93       	push	r31
    2488:	0e 94 06 12 	call	0x240c	;  0x240c
    248c:	ff 91       	pop	r31
    248e:	ef 91       	pop	r30
    2490:	bf 91       	pop	r27
    2492:	af 91       	pop	r26
    2494:	9f 91       	pop	r25
    2496:	8f 91       	pop	r24
    2498:	7f 91       	pop	r23
    249a:	6f 91       	pop	r22
    249c:	5f 91       	pop	r21
    249e:	4f 91       	pop	r20
    24a0:	3f 91       	pop	r19
    24a2:	2f 91       	pop	r18
    24a4:	0f 90       	pop	r0
    24a6:	0f be       	out	0x3f, r0	; 63
    24a8:	0f 90       	pop	r0
    24aa:	1f 90       	pop	r1
    24ac:	18 95       	reti
    24ae:	1f 92       	push	r1
    24b0:	0f 92       	push	r0
    24b2:	0f b6       	in	r0, 0x3f	; 63
    24b4:	0f 92       	push	r0
    24b6:	11 24       	eor	r1, r1
    24b8:	2f 93       	push	r18
    24ba:	3f 93       	push	r19
    24bc:	4f 93       	push	r20
    24be:	5f 93       	push	r21
    24c0:	6f 93       	push	r22
    24c2:	7f 93       	push	r23
    24c4:	8f 93       	push	r24
    24c6:	9f 93       	push	r25
    24c8:	af 93       	push	r26
    24ca:	bf 93       	push	r27
    24cc:	ef 93       	push	r30
    24ce:	ff 93       	push	r31
    24d0:	0e 94 06 12 	call	0x240c	;  0x240c
    24d4:	ff 91       	pop	r31
    24d6:	ef 91       	pop	r30
    24d8:	bf 91       	pop	r27
    24da:	af 91       	pop	r26
    24dc:	9f 91       	pop	r25
    24de:	8f 91       	pop	r24
    24e0:	7f 91       	pop	r23
    24e2:	6f 91       	pop	r22
    24e4:	5f 91       	pop	r21
    24e6:	4f 91       	pop	r20
    24e8:	3f 91       	pop	r19
    24ea:	2f 91       	pop	r18
    24ec:	0f 90       	pop	r0
    24ee:	0f be       	out	0x3f, r0	; 63
    24f0:	0f 90       	pop	r0
    24f2:	1f 90       	pop	r1
    24f4:	18 95       	reti
    24f6:	fc 01       	movw	r30, r24
    24f8:	8e e2       	ldi	r24, 0x2E	; 46
    24fa:	95 e0       	ldi	r25, 0x05	; 5
    24fc:	91 83       	std	Z+1, r25	; 0x01
    24fe:	80 83       	st	Z, r24
    2500:	08 95       	ret
    2502:	fc 01       	movw	r30, r24
    2504:	8e e2       	ldi	r24, 0x2E	; 46
    2506:	95 e0       	ldi	r25, 0x05	; 5
    2508:	91 83       	std	Z+1, r25	; 0x01
    250a:	80 83       	st	Z, r24
    250c:	08 95       	ret
    250e:	cf 92       	push	r12
    2510:	df 92       	push	r13
    2512:	ef 92       	push	r14
    2514:	ff 92       	push	r15
    2516:	0f 93       	push	r16
    2518:	1f 93       	push	r17
    251a:	cf 93       	push	r28
    251c:	df 93       	push	r29
    251e:	ec 01       	movw	r28, r24
    2520:	7a 01       	movw	r14, r20
    2522:	8b 01       	movw	r16, r22
    2524:	18 8a       	std	Y+16, r1	; 0x10
    2526:	1f 86       	std	Y+15, r1	; 0x0f
    2528:	1e 86       	std	Y+14, r1	; 0x0e
    252a:	1d 86       	std	Y+13, r1	; 0x0d
    252c:	1c 86       	std	Y+12, r1	; 0x0c
    252e:	1b 86       	std	Y+11, r1	; 0x0b
    2530:	1a 86       	std	Y+10, r1	; 0x0a
    2532:	19 86       	std	Y+9, r1	; 0x09
    2534:	20 e0       	ldi	r18, 0x00	; 0
    2536:	30 e0       	ldi	r19, 0x00	; 0
    2538:	69 01       	movw	r12, r18
    253a:	cc 0c       	add	r12, r12
    253c:	dd 1c       	adc	r13, r13
    253e:	c2 0e       	add	r12, r18
    2540:	d3 1e       	adc	r13, r19
    2542:	b6 01       	movw	r22, r12
    2544:	66 0f       	add	r22, r22
    2546:	77 1f       	adc	r23, r23
    2548:	66 0f       	add	r22, r22
    254a:	77 1f       	adc	r23, r23
    254c:	ab 01       	movw	r20, r22
    254e:	4a 51       	subi	r20, 0x1A	; 26
    2550:	5f 4f       	sbci	r21, 0xFF	; 255
    2552:	fa 01       	movw	r30, r20
    2554:	85 91       	lpm	r24, Z+
    2556:	95 91       	lpm	r25, Z+
    2558:	a5 91       	lpm	r26, Z+
    255a:	b4 91       	lpm	r27, Z+
    255c:	8e 15       	cp	r24, r14
    255e:	9f 05       	cpc	r25, r15
    2560:	a0 07       	cpc	r26, r16
    2562:	b1 07       	cpc	r27, r17
    2564:	e9 f4       	brne	.+58     	;  0x25a0
    2566:	fb 01       	movw	r30, r22
    2568:	e6 51       	subi	r30, 0x16	; 22
    256a:	ff 4f       	sbci	r31, 0xFF	; 255
    256c:	85 91       	lpm	r24, Z+
    256e:	94 91       	lpm	r25, Z+
    2570:	9a 87       	std	Y+10, r25	; 0x0a
    2572:	89 87       	std	Y+9, r24	; 0x09
    2574:	fb 01       	movw	r30, r22
    2576:	e4 51       	subi	r30, 0x14	; 20
    2578:	ff 4f       	sbci	r31, 0xFF	; 255
    257a:	85 91       	lpm	r24, Z+
    257c:	94 91       	lpm	r25, Z+
    257e:	9c 87       	std	Y+12, r25	; 0x0c
    2580:	8b 87       	std	Y+11, r24	; 0x0b
    2582:	fb 01       	movw	r30, r22
    2584:	e2 51       	subi	r30, 0x12	; 18
    2586:	ff 4f       	sbci	r31, 0xFF	; 255
    2588:	85 91       	lpm	r24, Z+
    258a:	94 91       	lpm	r25, Z+
    258c:	9e 87       	std	Y+14, r25	; 0x0e
    258e:	8d 87       	std	Y+13, r24	; 0x0d
    2590:	fb 01       	movw	r30, r22
    2592:	e0 51       	subi	r30, 0x10	; 16
    2594:	ff 4f       	sbci	r31, 0xFF	; 255
    2596:	85 91       	lpm	r24, Z+
    2598:	94 91       	lpm	r25, Z+
    259a:	98 8b       	std	Y+16, r25	; 0x10
    259c:	8f 87       	std	Y+15, r24	; 0x0f
    259e:	06 c0       	rjmp	.+12     	;  0x25ac
    25a0:	2f 5f       	subi	r18, 0xFF	; 255
    25a2:	3f 4f       	sbci	r19, 0xFF	; 255
    25a4:	2c 30       	cpi	r18, 0x0C	; 12
    25a6:	31 05       	cpc	r19, r1
    25a8:	09 f0       	breq	.+2      	;  0x25ac
    25aa:	c6 cf       	rjmp	.-116    	;  0x2538
    25ac:	8d 85       	ldd	r24, Y+13	; 0x0d
    25ae:	9e 85       	ldd	r25, Y+14	; 0x0e
    25b0:	89 2b       	or	r24, r25
    25b2:	09 f4       	brne	.+2      	;  0x25b6
    25b4:	49 c0       	rjmp	.+146    	;  0x2648
    25b6:	4a 81       	ldd	r20, Y+2	; 0x02
    25b8:	46 31       	cpi	r20, 0x16	; 22
    25ba:	08 f0       	brcs	.+2      	;  0x25be
    25bc:	3d c0       	rjmp	.+122    	;  0x2638
    25be:	90 91 68 00 	lds	r25, 0x0068
    25c2:	48 30       	cpi	r20, 0x08	; 8
    25c4:	10 f4       	brcc	.+4      	;  0x25ca
    25c6:	84 e0       	ldi	r24, 0x04	; 4
    25c8:	05 c0       	rjmp	.+10     	;  0x25d4
    25ca:	4e 30       	cpi	r20, 0x0E	; 14
    25cc:	10 f0       	brcs	.+4      	;  0x25d2
    25ce:	82 e0       	ldi	r24, 0x02	; 2
    25d0:	01 c0       	rjmp	.+2      	;  0x25d4
    25d2:	81 e0       	ldi	r24, 0x01	; 1
    25d4:	89 2b       	or	r24, r25
    25d6:	80 93 68 00 	sts	0x0068, r24
    25da:	48 30       	cpi	r20, 0x08	; 8
    25dc:	28 f4       	brcc	.+10     	;  0x25e8
    25de:	ed e6       	ldi	r30, 0x6D	; 109
    25e0:	f0 e0       	ldi	r31, 0x00	; 0
    25e2:	ad e6       	ldi	r26, 0x6D	; 109
    25e4:	b0 e0       	ldi	r27, 0x00	; 0
    25e6:	0b c0       	rjmp	.+22     	;  0x25fe
    25e8:	4e 30       	cpi	r20, 0x0E	; 14
    25ea:	28 f0       	brcs	.+10     	;  0x25f6
    25ec:	ec e6       	ldi	r30, 0x6C	; 108
    25ee:	f0 e0       	ldi	r31, 0x00	; 0
    25f0:	ac e6       	ldi	r26, 0x6C	; 108
    25f2:	b0 e0       	ldi	r27, 0x00	; 0
    25f4:	04 c0       	rjmp	.+8      	;  0x25fe
    25f6:	eb e6       	ldi	r30, 0x6B	; 107
    25f8:	f0 e0       	ldi	r31, 0x00	; 0
    25fa:	ab e6       	ldi	r26, 0x6B	; 107
    25fc:	b0 e0       	ldi	r27, 0x00	; 0
    25fe:	50 81       	ld	r21, Z
    2600:	48 30       	cpi	r20, 0x08	; 8
    2602:	40 f4       	brcc	.+16     	;  0x2614
    2604:	81 e0       	ldi	r24, 0x01	; 1
    2606:	90 e0       	ldi	r25, 0x00	; 0
    2608:	02 c0       	rjmp	.+4      	;  0x260e
    260a:	88 0f       	add	r24, r24
    260c:	99 1f       	adc	r25, r25
    260e:	4a 95       	dec	r20
    2610:	e2 f7       	brpl	.-8      	;  0x260a
    2612:	10 c0       	rjmp	.+32     	;  0x2634
    2614:	24 2f       	mov	r18, r20
    2616:	30 e0       	ldi	r19, 0x00	; 0
    2618:	4e 30       	cpi	r20, 0x0E	; 14
    261a:	18 f4       	brcc	.+6      	;  0x2622
    261c:	28 50       	subi	r18, 0x08	; 8
    261e:	30 40       	sbci	r19, 0x00	; 0
    2620:	02 c0       	rjmp	.+4      	;  0x2626
    2622:	2e 50       	subi	r18, 0x0E	; 14
    2624:	30 40       	sbci	r19, 0x00	; 0
    2626:	81 e0       	ldi	r24, 0x01	; 1
    2628:	90 e0       	ldi	r25, 0x00	; 0
    262a:	02 c0       	rjmp	.+4      	;  0x2630
    262c:	88 0f       	add	r24, r24
    262e:	99 1f       	adc	r25, r25
    2630:	2a 95       	dec	r18
    2632:	e2 f7       	brpl	.-8      	;  0x262c
    2634:	85 2b       	or	r24, r21
    2636:	8c 93       	st	X, r24
    2638:	8f 85       	ldd	r24, Y+15	; 0x0f
    263a:	98 89       	ldd	r25, Y+16	; 0x10
    263c:	20 e0       	ldi	r18, 0x00	; 0
    263e:	01 97       	sbiw	r24, 0x01	; 1
    2640:	2f ef       	ldi	r18, 0xFF	; 255
    2642:	8f 3f       	cpi	r24, 0xFF	; 255
    2644:	92 07       	cpc	r25, r18
    2646:	d9 f7       	brne	.-10     	;  0x263e
    2648:	ce 01       	movw	r24, r28
    264a:	0e 94 67 11 	call	0x22ce	;  0x22ce
    264e:	df 91       	pop	r29
    2650:	cf 91       	pop	r28
    2652:	1f 91       	pop	r17
    2654:	0f 91       	pop	r16
    2656:	ff 90       	pop	r15
    2658:	ef 90       	pop	r14
    265a:	df 90       	pop	r13
    265c:	cf 90       	pop	r12
    265e:	08 95       	ret
    2660:	fc 01       	movw	r30, r24
    2662:	42 81       	ldd	r20, Z+2	; 0x02
    2664:	46 31       	cpi	r20, 0x16	; 22
    2666:	80 f5       	brcc	.+96     	;  0x26c8
    2668:	48 30       	cpi	r20, 0x08	; 8
    266a:	28 f4       	brcc	.+10     	;  0x2676
    266c:	ed e6       	ldi	r30, 0x6D	; 109
    266e:	f0 e0       	ldi	r31, 0x00	; 0
    2670:	ad e6       	ldi	r26, 0x6D	; 109
    2672:	b0 e0       	ldi	r27, 0x00	; 0
    2674:	0b c0       	rjmp	.+22     	;  0x268c
    2676:	4e 30       	cpi	r20, 0x0E	; 14
    2678:	28 f4       	brcc	.+10     	;  0x2684
    267a:	eb e6       	ldi	r30, 0x6B	; 107
    267c:	f0 e0       	ldi	r31, 0x00	; 0
    267e:	ab e6       	ldi	r26, 0x6B	; 107
    2680:	b0 e0       	ldi	r27, 0x00	; 0
    2682:	04 c0       	rjmp	.+8      	;  0x268c
    2684:	ec e6       	ldi	r30, 0x6C	; 108
    2686:	f0 e0       	ldi	r31, 0x00	; 0
    2688:	ac e6       	ldi	r26, 0x6C	; 108
    268a:	b0 e0       	ldi	r27, 0x00	; 0
    268c:	50 81       	ld	r21, Z
    268e:	48 30       	cpi	r20, 0x08	; 8
    2690:	40 f4       	brcc	.+16     	;  0x26a2
    2692:	81 e0       	ldi	r24, 0x01	; 1
    2694:	90 e0       	ldi	r25, 0x00	; 0
    2696:	02 c0       	rjmp	.+4      	;  0x269c
    2698:	88 0f       	add	r24, r24
    269a:	99 1f       	adc	r25, r25
    269c:	4a 95       	dec	r20
    269e:	e2 f7       	brpl	.-8      	;  0x2698
    26a0:	10 c0       	rjmp	.+32     	;  0x26c2
    26a2:	24 2f       	mov	r18, r20
    26a4:	30 e0       	ldi	r19, 0x00	; 0
    26a6:	4e 30       	cpi	r20, 0x0E	; 14
    26a8:	18 f4       	brcc	.+6      	;  0x26b0
    26aa:	28 50       	subi	r18, 0x08	; 8
    26ac:	30 40       	sbci	r19, 0x00	; 0
    26ae:	02 c0       	rjmp	.+4      	;  0x26b4
    26b0:	2e 50       	subi	r18, 0x0E	; 14
    26b2:	30 40       	sbci	r19, 0x00	; 0
    26b4:	81 e0       	ldi	r24, 0x01	; 1
    26b6:	90 e0       	ldi	r25, 0x00	; 0
    26b8:	02 c0       	rjmp	.+4      	;  0x26be
    26ba:	88 0f       	add	r24, r24
    26bc:	99 1f       	adc	r25, r25
    26be:	2a 95       	dec	r18
    26c0:	e2 f7       	brpl	.-8      	;  0x26ba
    26c2:	80 95       	com	r24
    26c4:	85 23       	and	r24, r21
    26c6:	8c 93       	st	X, r24
    26c8:	08 95       	ret
    26ca:	fc 01       	movw	r30, r24
    26cc:	8e e2       	ldi	r24, 0x2E	; 46
    26ce:	95 e0       	ldi	r25, 0x05	; 5
    26d0:	91 83       	std	Z+1, r25	; 0x01
    26d2:	80 83       	st	Z, r24
    26d4:	cf 01       	movw	r24, r30
    26d6:	0e 94 30 13 	call	0x2660	;  0x2660
    26da:	08 95       	ret
    26dc:	fc 01       	movw	r30, r24
    26de:	8e e2       	ldi	r24, 0x2E	; 46
    26e0:	95 e0       	ldi	r25, 0x05	; 5
    26e2:	91 83       	std	Z+1, r25	; 0x01
    26e4:	80 83       	st	Z, r24
    26e6:	cf 01       	movw	r24, r30
    26e8:	0e 94 30 13 	call	0x2660	;  0x2660
    26ec:	08 95       	ret
    26ee:	20 91 ce 06 	lds	r18, 0x06CE
    26f2:	30 91 cf 06 	lds	r19, 0x06CF
    26f6:	28 17       	cp	r18, r24
    26f8:	39 07       	cpc	r19, r25
    26fa:	31 f4       	brne	.+12     	;  0x2708
    26fc:	90 91 11 07 	lds	r25, 0x0711
    2700:	80 91 10 07 	lds	r24, 0x0710
    2704:	98 17       	cp	r25, r24
    2706:	19 f4       	brne	.+6      	;  0x270e
    2708:	2f ef       	ldi	r18, 0xFF	; 255
    270a:	3f ef       	ldi	r19, 0xFF	; 255
    270c:	0f c0       	rjmp	.+30     	;  0x272c
    270e:	e0 91 11 07 	lds	r30, 0x0711
    2712:	f0 e0       	ldi	r31, 0x00	; 0
    2714:	e0 53       	subi	r30, 0x30	; 48
    2716:	f9 4f       	sbci	r31, 0xF9	; 249
    2718:	20 81       	ld	r18, Z
    271a:	80 91 11 07 	lds	r24, 0x0711
    271e:	90 e0       	ldi	r25, 0x00	; 0
    2720:	01 96       	adiw	r24, 0x01	; 1
    2722:	8f 73       	andi	r24, 0x3F	; 63
    2724:	90 70       	andi	r25, 0x00	; 0
    2726:	80 93 11 07 	sts	0x0711, r24
    272a:	30 e0       	ldi	r19, 0x00	; 0
    272c:	c9 01       	movw	r24, r18
    272e:	08 95       	ret
    2730:	20 91 ce 06 	lds	r18, 0x06CE
    2734:	30 91 cf 06 	lds	r19, 0x06CF
    2738:	28 17       	cp	r18, r24
    273a:	39 07       	cpc	r19, r25
    273c:	19 f0       	breq	.+6      	;  0x2744
    273e:	20 e0       	ldi	r18, 0x00	; 0
    2740:	30 e0       	ldi	r19, 0x00	; 0
    2742:	0e c0       	rjmp	.+28     	;  0x2760
    2744:	80 91 10 07 	lds	r24, 0x0710
    2748:	20 91 11 07 	lds	r18, 0x0711
    274c:	90 e0       	ldi	r25, 0x00	; 0
    274e:	80 5c       	subi	r24, 0xC0	; 192
    2750:	9f 4f       	sbci	r25, 0xFF	; 255
    2752:	82 1b       	sub	r24, r18
    2754:	91 09       	sbc	r25, r1
    2756:	60 e4       	ldi	r22, 0x40	; 64
    2758:	70 e0       	ldi	r23, 0x00	; 0
    275a:	0e 94 a2 26 	call	0x4d44	;  0x4d44
    275e:	9c 01       	movw	r18, r24
    2760:	c9 01       	movw	r24, r18
    2762:	08 95       	ret
    2764:	0f 93       	push	r16
    2766:	1f 93       	push	r17
    2768:	dc 01       	movw	r26, r24
    276a:	1f 96       	adiw	r26, 0x0f	; 15
    276c:	8d 91       	ld	r24, X+
    276e:	9c 91       	ld	r25, X
    2770:	50 97       	sbiw	r26, 0x10	; 16
    2772:	89 2b       	or	r24, r25
    2774:	09 f4       	brne	.+2      	;  0x2778
    2776:	9b c0       	rjmp	.+310    	;  0x28ae
    2778:	0f b7       	in	r16, 0x3f	; 63
    277a:	f8 94       	cli
    277c:	51 96       	adiw	r26, 0x11	; 17
    277e:	8c 91       	ld	r24, X
    2780:	51 97       	sbiw	r26, 0x11	; 17
    2782:	17 96       	adiw	r26, 0x07	; 7
    2784:	ed 91       	ld	r30, X+
    2786:	fc 91       	ld	r31, X
    2788:	18 97       	sbiw	r26, 0x08	; 8
    278a:	16 96       	adiw	r26, 0x06	; 6
    278c:	2c 91       	ld	r18, X
    278e:	16 97       	sbiw	r26, 0x06	; 6
    2790:	81 ff       	sbrs	r24, 1
    2792:	88 c0       	rjmp	.+272    	;  0x28a4
    2794:	80 81       	ld	r24, Z
    2796:	82 2b       	or	r24, r18
    2798:	80 83       	st	Z, r24
    279a:	1f 96       	adiw	r26, 0x0f	; 15
    279c:	8d 91       	ld	r24, X+
    279e:	9c 91       	ld	r25, X
    27a0:	50 97       	sbiw	r26, 0x10	; 16
    27a2:	05 96       	adiw	r24, 0x05	; 5
    27a4:	20 e0       	ldi	r18, 0x00	; 0
    27a6:	01 97       	sbiw	r24, 0x01	; 1
    27a8:	2f ef       	ldi	r18, 0xFF	; 255
    27aa:	8f 3f       	cpi	r24, 0xFF	; 255
    27ac:	92 07       	cpc	r25, r18
    27ae:	d9 f7       	brne	.-10     	;  0x27a6
    27b0:	51 96       	adiw	r26, 0x11	; 17
    27b2:	8c 91       	ld	r24, X
    27b4:	51 97       	sbiw	r26, 0x11	; 17
    27b6:	81 ff       	sbrs	r24, 1
    27b8:	35 c0       	rjmp	.+106    	;  0x2824
    27ba:	31 e0       	ldi	r19, 0x01	; 1
    27bc:	40 e0       	ldi	r20, 0x00	; 0
    27be:	50 e0       	ldi	r21, 0x00	; 0
    27c0:	70 e0       	ldi	r23, 0x00	; 0
    27c2:	10 e0       	ldi	r17, 0x00	; 0
    27c4:	83 2f       	mov	r24, r19
    27c6:	90 e0       	ldi	r25, 0x00	; 0
    27c8:	86 23       	and	r24, r22
    27ca:	97 23       	and	r25, r23
    27cc:	17 96       	adiw	r26, 0x07	; 7
    27ce:	ed 91       	ld	r30, X+
    27d0:	fc 91       	ld	r31, X
    27d2:	18 97       	sbiw	r26, 0x08	; 8
    27d4:	16 96       	adiw	r26, 0x06	; 6
    27d6:	2c 91       	ld	r18, X
    27d8:	16 97       	sbiw	r26, 0x06	; 6
    27da:	89 2b       	or	r24, r25
    27dc:	29 f0       	breq	.+10     	;  0x27e8
    27de:	80 81       	ld	r24, Z
    27e0:	20 95       	com	r18
    27e2:	28 23       	and	r18, r24
    27e4:	20 83       	st	Z, r18
    27e6:	03 c0       	rjmp	.+6      	;  0x27ee
    27e8:	80 81       	ld	r24, Z
    27ea:	82 2b       	or	r24, r18
    27ec:	80 83       	st	Z, r24
    27ee:	1f 96       	adiw	r26, 0x0f	; 15
    27f0:	8d 91       	ld	r24, X+
    27f2:	9c 91       	ld	r25, X
    27f4:	50 97       	sbiw	r26, 0x10	; 16
    27f6:	21 2f       	mov	r18, r17
    27f8:	01 97       	sbiw	r24, 0x01	; 1
    27fa:	2f ef       	ldi	r18, 0xFF	; 255
    27fc:	8f 3f       	cpi	r24, 0xFF	; 255
    27fe:	92 07       	cpc	r25, r18
    2800:	d9 f7       	brne	.-10     	;  0x27f8
    2802:	33 0f       	add	r19, r19
    2804:	4f 5f       	subi	r20, 0xFF	; 255
    2806:	5f 4f       	sbci	r21, 0xFF	; 255
    2808:	48 30       	cpi	r20, 0x08	; 8
    280a:	51 05       	cpc	r21, r1
    280c:	d9 f6       	brne	.-74     	;  0x27c4
    280e:	17 96       	adiw	r26, 0x07	; 7
    2810:	ed 91       	ld	r30, X+
    2812:	fc 91       	ld	r31, X
    2814:	18 97       	sbiw	r26, 0x08	; 8
    2816:	90 81       	ld	r25, Z
    2818:	16 96       	adiw	r26, 0x06	; 6
    281a:	8c 91       	ld	r24, X
    281c:	16 97       	sbiw	r26, 0x06	; 6
    281e:	80 95       	com	r24
    2820:	89 23       	and	r24, r25
    2822:	33 c0       	rjmp	.+102    	;  0x288a
    2824:	31 e0       	ldi	r19, 0x01	; 1
    2826:	40 e0       	ldi	r20, 0x00	; 0
    2828:	50 e0       	ldi	r21, 0x00	; 0
    282a:	70 e0       	ldi	r23, 0x00	; 0
    282c:	10 e0       	ldi	r17, 0x00	; 0
    282e:	83 2f       	mov	r24, r19
    2830:	90 e0       	ldi	r25, 0x00	; 0
    2832:	86 23       	and	r24, r22
    2834:	97 23       	and	r25, r23
    2836:	17 96       	adiw	r26, 0x07	; 7
    2838:	ed 91       	ld	r30, X+
    283a:	fc 91       	ld	r31, X
    283c:	18 97       	sbiw	r26, 0x08	; 8
    283e:	16 96       	adiw	r26, 0x06	; 6
    2840:	2c 91       	ld	r18, X
    2842:	16 97       	sbiw	r26, 0x06	; 6
    2844:	89 2b       	or	r24, r25
    2846:	21 f0       	breq	.+8      	;  0x2850
    2848:	80 81       	ld	r24, Z
    284a:	82 2b       	or	r24, r18
    284c:	80 83       	st	Z, r24
    284e:	04 c0       	rjmp	.+8      	;  0x2858
    2850:	80 81       	ld	r24, Z
    2852:	20 95       	com	r18
    2854:	28 23       	and	r18, r24
    2856:	20 83       	st	Z, r18
    2858:	1f 96       	adiw	r26, 0x0f	; 15
    285a:	8d 91       	ld	r24, X+
    285c:	9c 91       	ld	r25, X
    285e:	50 97       	sbiw	r26, 0x10	; 16
    2860:	21 2f       	mov	r18, r17
    2862:	01 97       	sbiw	r24, 0x01	; 1
    2864:	2f ef       	ldi	r18, 0xFF	; 255
    2866:	8f 3f       	cpi	r24, 0xFF	; 255
    2868:	92 07       	cpc	r25, r18
    286a:	d9 f7       	brne	.-10     	;  0x2862
    286c:	33 0f       	add	r19, r19
    286e:	4f 5f       	subi	r20, 0xFF	; 255
    2870:	5f 4f       	sbci	r21, 0xFF	; 255
    2872:	48 30       	cpi	r20, 0x08	; 8
    2874:	51 05       	cpc	r21, r1
    2876:	d9 f6       	brne	.-74     	;  0x282e
    2878:	17 96       	adiw	r26, 0x07	; 7
    287a:	ed 91       	ld	r30, X+
    287c:	fc 91       	ld	r31, X
    287e:	18 97       	sbiw	r26, 0x08	; 8
    2880:	80 81       	ld	r24, Z
    2882:	16 96       	adiw	r26, 0x06	; 6
    2884:	9c 91       	ld	r25, X
    2886:	16 97       	sbiw	r26, 0x06	; 6
    2888:	89 2b       	or	r24, r25
    288a:	80 83       	st	Z, r24
    288c:	0f bf       	out	0x3f, r16	; 63
    288e:	1f 96       	adiw	r26, 0x0f	; 15
    2890:	8d 91       	ld	r24, X+
    2892:	9c 91       	ld	r25, X
    2894:	50 97       	sbiw	r26, 0x10	; 16
    2896:	20 e0       	ldi	r18, 0x00	; 0
    2898:	01 97       	sbiw	r24, 0x01	; 1
    289a:	2f ef       	ldi	r18, 0xFF	; 255
    289c:	8f 3f       	cpi	r24, 0xFF	; 255
    289e:	92 07       	cpc	r25, r18
    28a0:	d9 f7       	brne	.-10     	;  0x2898
    28a2:	05 c0       	rjmp	.+10     	;  0x28ae
    28a4:	80 81       	ld	r24, Z
    28a6:	20 95       	com	r18
    28a8:	28 23       	and	r18, r24
    28aa:	20 83       	st	Z, r18
    28ac:	76 cf       	rjmp	.-276    	;  0x279a
    28ae:	1f 91       	pop	r17
    28b0:	0f 91       	pop	r16
    28b2:	08 95       	ret
    28b4:	88 23       	and	r24, r24
    28b6:	21 f0       	breq	.+8      	;  0x28c0
    28b8:	80 91 6e 00 	lds	r24, 0x006E
    28bc:	81 60       	ori	r24, 0x01	; 1
    28be:	03 c0       	rjmp	.+6      	;  0x28c6
    28c0:	80 91 6e 00 	lds	r24, 0x006E
    28c4:	8e 7f       	andi	r24, 0xFE	; 254
    28c6:	80 93 6e 00 	sts	0x006E, r24
    28ca:	08 95       	ret
    28cc:	20 91 ce 06 	lds	r18, 0x06CE
    28d0:	30 91 cf 06 	lds	r19, 0x06CF
    28d4:	28 17       	cp	r18, r24
    28d6:	39 07       	cpc	r19, r25
    28d8:	49 f4       	brne	.+18     	;  0x28ec
    28da:	9f b7       	in	r25, 0x3f	; 63
    28dc:	f8 94       	cli
    28de:	10 92 10 07 	sts	0x0710, r1
    28e2:	80 91 10 07 	lds	r24, 0x0710
    28e6:	80 93 11 07 	sts	0x0711, r24
    28ea:	9f bf       	out	0x3f, r25	; 63
    28ec:	08 95       	ret
    28ee:	20 91 ce 06 	lds	r18, 0x06CE
    28f2:	30 91 cf 06 	lds	r19, 0x06CF
    28f6:	28 17       	cp	r18, r24
    28f8:	39 07       	cpc	r19, r25
    28fa:	31 f4       	brne	.+12     	;  0x2908
    28fc:	90 91 11 07 	lds	r25, 0x0711
    2900:	80 91 10 07 	lds	r24, 0x0710
    2904:	98 17       	cp	r25, r24
    2906:	19 f4       	brne	.+6      	;  0x290e
    2908:	2f ef       	ldi	r18, 0xFF	; 255
    290a:	3f ef       	ldi	r19, 0xFF	; 255
    290c:	08 c0       	rjmp	.+16     	;  0x291e
    290e:	e0 91 11 07 	lds	r30, 0x0711
    2912:	f0 e0       	ldi	r31, 0x00	; 0
    2914:	e0 53       	subi	r30, 0x30	; 48
    2916:	f9 4f       	sbci	r31, 0xF9	; 249
    2918:	80 81       	ld	r24, Z
    291a:	28 2f       	mov	r18, r24
    291c:	30 e0       	ldi	r19, 0x00	; 0
    291e:	c9 01       	movw	r24, r18
    2920:	08 95       	ret
    2922:	1f 93       	push	r17
    2924:	cf 93       	push	r28
    2926:	df 93       	push	r29
    2928:	ec 01       	movw	r28, r24
    292a:	16 2f       	mov	r17, r22
    292c:	86 2f       	mov	r24, r22
    292e:	60 e0       	ldi	r22, 0x00	; 0
    2930:	0e 94 c7 23 	call	0x478e	;  0x478e
    2934:	89 89       	ldd	r24, Y+17	; 0x11
    2936:	81 fd       	sbrc	r24, 1
    2938:	04 c0       	rjmp	.+8      	;  0x2942
    293a:	81 2f       	mov	r24, r17
    293c:	61 e0       	ldi	r22, 0x01	; 1
    293e:	0e 94 1a 24 	call	0x4834	;  0x4834
    2942:	1a 83       	std	Y+2, r17	; 0x02
    2944:	21 2f       	mov	r18, r17
    2946:	30 e0       	ldi	r19, 0x00	; 0
    2948:	c9 01       	movw	r24, r18
    294a:	88 55       	subi	r24, 0x58	; 88
    294c:	9e 4f       	sbci	r25, 0xFE	; 254
    294e:	fc 01       	movw	r30, r24
    2950:	84 91       	lpm	r24, Z+
    2952:	8b 83       	std	Y+3, r24	; 0x03
    2954:	2c 56       	subi	r18, 0x6C	; 108
    2956:	3e 4f       	sbci	r19, 0xFE	; 254
    2958:	f9 01       	movw	r30, r18
    295a:	64 91       	lpm	r22, Z+
    295c:	e6 2f       	mov	r30, r22
    295e:	f0 e0       	ldi	r31, 0x00	; 0
    2960:	ee 0f       	add	r30, r30
    2962:	ff 1f       	adc	r31, r31
    2964:	e6 57       	subi	r30, 0x76	; 118
    2966:	fe 4f       	sbci	r31, 0xFE	; 254
    2968:	85 91       	lpm	r24, Z+
    296a:	94 91       	lpm	r25, Z+
    296c:	9d 83       	std	Y+5, r25	; 0x05
    296e:	8c 83       	std	Y+4, r24	; 0x04
    2970:	df 91       	pop	r29
    2972:	cf 91       	pop	r28
    2974:	1f 91       	pop	r17
    2976:	08 95       	ret
    2978:	ff 92       	push	r15
    297a:	0f 93       	push	r16
    297c:	1f 93       	push	r17
    297e:	8c 01       	movw	r16, r24
    2980:	f6 2e       	mov	r15, r22
    2982:	86 2f       	mov	r24, r22
    2984:	61 e0       	ldi	r22, 0x01	; 1
    2986:	0e 94 c7 23 	call	0x478e	;  0x478e
    298a:	8f 2d       	mov	r24, r15
    298c:	61 e0       	ldi	r22, 0x01	; 1
    298e:	0e 94 1a 24 	call	0x4834	;  0x4834
    2992:	8f 2d       	mov	r24, r15
    2994:	90 e0       	ldi	r25, 0x00	; 0
    2996:	fc 01       	movw	r30, r24
    2998:	e8 55       	subi	r30, 0x58	; 88
    299a:	fe 4f       	sbci	r31, 0xFE	; 254
    299c:	e4 91       	lpm	r30, Z+
    299e:	d8 01       	movw	r26, r16
    29a0:	16 96       	adiw	r26, 0x06	; 6
    29a2:	ec 93       	st	X, r30
    29a4:	16 97       	sbiw	r26, 0x06	; 6
    29a6:	8c 56       	subi	r24, 0x6C	; 108
    29a8:	9e 4f       	sbci	r25, 0xFE	; 254
    29aa:	fc 01       	movw	r30, r24
    29ac:	64 91       	lpm	r22, Z+
    29ae:	e6 2f       	mov	r30, r22
    29b0:	f0 e0       	ldi	r31, 0x00	; 0
    29b2:	ee 0f       	add	r30, r30
    29b4:	ff 1f       	adc	r31, r31
    29b6:	e0 58       	subi	r30, 0x80	; 128
    29b8:	fe 4f       	sbci	r31, 0xFE	; 254
    29ba:	85 91       	lpm	r24, Z+
    29bc:	94 91       	lpm	r25, Z+
    29be:	18 96       	adiw	r26, 0x08	; 8
    29c0:	9c 93       	st	X, r25
    29c2:	8e 93       	st	-X, r24
    29c4:	17 97       	sbiw	r26, 0x07	; 7
    29c6:	1f 91       	pop	r17
    29c8:	0f 91       	pop	r16
    29ca:	ff 90       	pop	r15
    29cc:	08 95       	ret
    29ce:	ff 92       	push	r15
    29d0:	0f 93       	push	r16
    29d2:	1f 93       	push	r17
    29d4:	8c 01       	movw	r16, r24
    29d6:	f6 2e       	mov	r15, r22
    29d8:	8e e2       	ldi	r24, 0x2E	; 46
    29da:	95 e0       	ldi	r25, 0x05	; 5
    29dc:	f8 01       	movw	r30, r16
    29de:	91 83       	std	Z+1, r25	; 0x01
    29e0:	80 83       	st	Z, r24
    29e2:	12 86       	std	Z+10, r1	; 0x0a
    29e4:	11 86       	std	Z+9, r1	; 0x09
    29e6:	14 86       	std	Z+12, r1	; 0x0c
    29e8:	13 86       	std	Z+11, r1	; 0x0b
    29ea:	16 86       	std	Z+14, r1	; 0x0e
    29ec:	15 86       	std	Z+13, r1	; 0x0d
    29ee:	10 8a       	std	Z+16, r1	; 0x10
    29f0:	17 86       	std	Z+15, r1	; 0x0f
    29f2:	81 89       	ldd	r24, Z+17	; 0x11
    29f4:	21 70       	andi	r18, 0x01	; 1
    29f6:	22 0f       	add	r18, r18
    29f8:	8c 7f       	andi	r24, 0xFC	; 252
    29fa:	82 2b       	or	r24, r18
    29fc:	81 8b       	std	Z+17, r24	; 0x11
    29fe:	c8 01       	movw	r24, r16
    2a00:	64 2f       	mov	r22, r20
    2a02:	0e 94 bc 14 	call	0x2978	;  0x2978
    2a06:	c8 01       	movw	r24, r16
    2a08:	6f 2d       	mov	r22, r15
    2a0a:	0e 94 91 14 	call	0x2922	;  0x2922
    2a0e:	1f 91       	pop	r17
    2a10:	0f 91       	pop	r16
    2a12:	ff 90       	pop	r15
    2a14:	08 95       	ret
    2a16:	ff 92       	push	r15
    2a18:	0f 93       	push	r16
    2a1a:	1f 93       	push	r17
    2a1c:	8c 01       	movw	r16, r24
    2a1e:	f6 2e       	mov	r15, r22
    2a20:	8e e2       	ldi	r24, 0x2E	; 46
    2a22:	95 e0       	ldi	r25, 0x05	; 5
    2a24:	f8 01       	movw	r30, r16
    2a26:	91 83       	std	Z+1, r25	; 0x01
    2a28:	80 83       	st	Z, r24
    2a2a:	12 86       	std	Z+10, r1	; 0x0a
    2a2c:	11 86       	std	Z+9, r1	; 0x09
    2a2e:	14 86       	std	Z+12, r1	; 0x0c
    2a30:	13 86       	std	Z+11, r1	; 0x0b
    2a32:	16 86       	std	Z+14, r1	; 0x0e
    2a34:	15 86       	std	Z+13, r1	; 0x0d
    2a36:	10 8a       	std	Z+16, r1	; 0x10
    2a38:	17 86       	std	Z+15, r1	; 0x0f
    2a3a:	81 89       	ldd	r24, Z+17	; 0x11
    2a3c:	21 70       	andi	r18, 0x01	; 1
    2a3e:	22 0f       	add	r18, r18
    2a40:	8c 7f       	andi	r24, 0xFC	; 252
    2a42:	82 2b       	or	r24, r18
    2a44:	81 8b       	std	Z+17, r24	; 0x11
    2a46:	c8 01       	movw	r24, r16
    2a48:	64 2f       	mov	r22, r20
    2a4a:	0e 94 bc 14 	call	0x2978	;  0x2978
    2a4e:	c8 01       	movw	r24, r16
    2a50:	6f 2d       	mov	r22, r15
    2a52:	0e 94 91 14 	call	0x2922	;  0x2922
    2a56:	1f 91       	pop	r17
    2a58:	0f 91       	pop	r16
    2a5a:	ff 90       	pop	r15
    2a5c:	08 95       	ret
    2a5e:	1f 92       	push	r1
    2a60:	0f 92       	push	r0
    2a62:	0f b6       	in	r0, 0x3f	; 63
    2a64:	0f 92       	push	r0
    2a66:	11 24       	eor	r1, r1
    2a68:	2f 93       	push	r18
    2a6a:	3f 93       	push	r19
    2a6c:	4f 93       	push	r20
    2a6e:	8f 93       	push	r24
    2a70:	9f 93       	push	r25
    2a72:	ef 93       	push	r30
    2a74:	ff 93       	push	r31
    2a76:	40 91 c6 00 	lds	r20, 0x00C6
    2a7a:	e0 91 92 07 	lds	r30, 0x0792
    2a7e:	f0 91 93 07 	lds	r31, 0x0793
    2a82:	31 96       	adiw	r30, 0x01	; 1
    2a84:	9f 01       	movw	r18, r30
    2a86:	2f 77       	andi	r18, 0x7F	; 127
    2a88:	30 70       	andi	r19, 0x00	; 0
    2a8a:	31 97       	sbiw	r30, 0x01	; 1
    2a8c:	80 91 94 07 	lds	r24, 0x0794
    2a90:	90 91 95 07 	lds	r25, 0x0795
    2a94:	28 17       	cp	r18, r24
    2a96:	39 07       	cpc	r19, r25
    2a98:	39 f0       	breq	.+14     	;  0x2aa8
    2a9a:	ee 5e       	subi	r30, 0xEE	; 238
    2a9c:	f8 4f       	sbci	r31, 0xF8	; 248
    2a9e:	40 83       	st	Z, r20
    2aa0:	30 93 93 07 	sts	0x0793, r19
    2aa4:	20 93 92 07 	sts	0x0792, r18
    2aa8:	ff 91       	pop	r31
    2aaa:	ef 91       	pop	r30
    2aac:	9f 91       	pop	r25
    2aae:	8f 91       	pop	r24
    2ab0:	4f 91       	pop	r20
    2ab2:	3f 91       	pop	r19
    2ab4:	2f 91       	pop	r18
    2ab6:	0f 90       	pop	r0
    2ab8:	0f be       	out	0x3f, r0	; 63
    2aba:	0f 90       	pop	r0
    2abc:	1f 90       	pop	r1
    2abe:	18 95       	reti
    2ac0:	8f 92       	push	r8
    2ac2:	af 92       	push	r10
    2ac4:	cf 92       	push	r12
    2ac6:	df 92       	push	r13
    2ac8:	ef 92       	push	r14
    2aca:	ff 92       	push	r15
    2acc:	0f 93       	push	r16
    2ace:	1f 93       	push	r17
    2ad0:	df 93       	push	r29
    2ad2:	cf 93       	push	r28
    2ad4:	cd b7       	in	r28, 0x3d	; 61
    2ad6:	de b7       	in	r29, 0x3e	; 62
    2ad8:	fc 01       	movw	r30, r24
    2ada:	82 e5       	ldi	r24, 0x52	; 82
    2adc:	95 e0       	ldi	r25, 0x05	; 5
    2ade:	91 83       	std	Z+1, r25	; 0x01
    2ae0:	80 83       	st	Z, r24
    2ae2:	73 83       	std	Z+3, r23	; 0x03
    2ae4:	62 83       	std	Z+2, r22	; 0x02
    2ae6:	55 83       	std	Z+5, r21	; 0x05
    2ae8:	44 83       	std	Z+4, r20	; 0x04
    2aea:	37 83       	std	Z+7, r19	; 0x07
    2aec:	26 83       	std	Z+6, r18	; 0x06
    2aee:	11 87       	std	Z+9, r17	; 0x09
    2af0:	00 87       	std	Z+8, r16	; 0x08
    2af2:	f3 86       	std	Z+11, r15	; 0x0b
    2af4:	e2 86       	std	Z+10, r14	; 0x0a
    2af6:	d5 86       	std	Z+13, r13	; 0x0d
    2af8:	c4 86       	std	Z+12, r12	; 0x0c
    2afa:	a6 86       	std	Z+14, r10	; 0x0e
    2afc:	87 86       	std	Z+15, r8	; 0x0f
    2afe:	8d 85       	ldd	r24, Y+13	; 0x0d
    2b00:	80 8b       	std	Z+16, r24	; 0x10
    2b02:	8e 85       	ldd	r24, Y+14	; 0x0e
    2b04:	81 8b       	std	Z+17, r24	; 0x11
    2b06:	8f 85       	ldd	r24, Y+15	; 0x0f
    2b08:	82 8b       	std	Z+18, r24	; 0x12
    2b0a:	cf 91       	pop	r28
    2b0c:	df 91       	pop	r29
    2b0e:	1f 91       	pop	r17
    2b10:	0f 91       	pop	r16
    2b12:	ff 90       	pop	r15
    2b14:	ef 90       	pop	r14
    2b16:	df 90       	pop	r13
    2b18:	cf 90       	pop	r12
    2b1a:	af 90       	pop	r10
    2b1c:	8f 90       	pop	r8
    2b1e:	08 95       	ret
    2b20:	8f 92       	push	r8
    2b22:	af 92       	push	r10
    2b24:	cf 92       	push	r12
    2b26:	df 92       	push	r13
    2b28:	ef 92       	push	r14
    2b2a:	ff 92       	push	r15
    2b2c:	0f 93       	push	r16
    2b2e:	1f 93       	push	r17
    2b30:	df 93       	push	r29
    2b32:	cf 93       	push	r28
    2b34:	cd b7       	in	r28, 0x3d	; 61
    2b36:	de b7       	in	r29, 0x3e	; 62
    2b38:	fc 01       	movw	r30, r24
    2b3a:	82 e5       	ldi	r24, 0x52	; 82
    2b3c:	95 e0       	ldi	r25, 0x05	; 5
    2b3e:	91 83       	std	Z+1, r25	; 0x01
    2b40:	80 83       	st	Z, r24
    2b42:	73 83       	std	Z+3, r23	; 0x03
    2b44:	62 83       	std	Z+2, r22	; 0x02
    2b46:	55 83       	std	Z+5, r21	; 0x05
    2b48:	44 83       	std	Z+4, r20	; 0x04
    2b4a:	37 83       	std	Z+7, r19	; 0x07
    2b4c:	26 83       	std	Z+6, r18	; 0x06
    2b4e:	11 87       	std	Z+9, r17	; 0x09
    2b50:	00 87       	std	Z+8, r16	; 0x08
    2b52:	f3 86       	std	Z+11, r15	; 0x0b
    2b54:	e2 86       	std	Z+10, r14	; 0x0a
    2b56:	d5 86       	std	Z+13, r13	; 0x0d
    2b58:	c4 86       	std	Z+12, r12	; 0x0c
    2b5a:	a6 86       	std	Z+14, r10	; 0x0e
    2b5c:	87 86       	std	Z+15, r8	; 0x0f
    2b5e:	8d 85       	ldd	r24, Y+13	; 0x0d
    2b60:	80 8b       	std	Z+16, r24	; 0x10
    2b62:	8e 85       	ldd	r24, Y+14	; 0x0e
    2b64:	81 8b       	std	Z+17, r24	; 0x11
    2b66:	8f 85       	ldd	r24, Y+15	; 0x0f
    2b68:	82 8b       	std	Z+18, r24	; 0x12
    2b6a:	cf 91       	pop	r28
    2b6c:	df 91       	pop	r29
    2b6e:	1f 91       	pop	r17
    2b70:	0f 91       	pop	r16
    2b72:	ff 90       	pop	r15
    2b74:	ef 90       	pop	r14
    2b76:	df 90       	pop	r13
    2b78:	cf 90       	pop	r12
    2b7a:	af 90       	pop	r10
    2b7c:	8f 90       	pop	r8
    2b7e:	08 95       	ret
    2b80:	cf 93       	push	r28
    2b82:	df 93       	push	r29
    2b84:	ec 01       	movw	r28, r24
    2b86:	9a 01       	movw	r18, r20
    2b88:	ab 01       	movw	r20, r22
    2b8a:	e8 85       	ldd	r30, Y+8	; 0x08
    2b8c:	f9 85       	ldd	r31, Y+9	; 0x09
    2b8e:	20 30       	cpi	r18, 0x00	; 0
    2b90:	81 ee       	ldi	r24, 0xE1	; 225
    2b92:	38 07       	cpc	r19, r24
    2b94:	80 e0       	ldi	r24, 0x00	; 0
    2b96:	48 07       	cpc	r20, r24
    2b98:	80 e0       	ldi	r24, 0x00	; 0
    2b9a:	58 07       	cpc	r21, r24
    2b9c:	09 f4       	brne	.+2      	;  0x2ba0
    2b9e:	45 c0       	rjmp	.+138    	;  0x2c2a
    2ba0:	81 e0       	ldi	r24, 0x01	; 1
    2ba2:	90 e0       	ldi	r25, 0x00	; 0
    2ba4:	0a 88       	ldd	r0, Y+18	; 0x12
    2ba6:	02 c0       	rjmp	.+4      	;  0x2bac
    2ba8:	88 0f       	add	r24, r24
    2baa:	99 1f       	adc	r25, r25
    2bac:	0a 94       	dec	r0
    2bae:	e2 f7       	brpl	.-8      	;  0x2ba8
    2bb0:	80 83       	st	Z, r24
    2bb2:	60 e0       	ldi	r22, 0x00	; 0
    2bb4:	79 e0       	ldi	r23, 0x09	; 9
    2bb6:	8d e3       	ldi	r24, 0x3D	; 61
    2bb8:	90 e0       	ldi	r25, 0x00	; 0
    2bba:	0e 94 b5 26 	call	0x4d6a	;  0x4d6a
    2bbe:	21 50       	subi	r18, 0x01	; 1
    2bc0:	30 40       	sbci	r19, 0x00	; 0
    2bc2:	40 40       	sbci	r20, 0x00	; 0
    2bc4:	50 40       	sbci	r21, 0x00	; 0
    2bc6:	56 95       	lsr	r21
    2bc8:	47 95       	ror	r20
    2bca:	37 95       	ror	r19
    2bcc:	27 95       	ror	r18
    2bce:	ec 81       	ldd	r30, Y+4	; 0x04
    2bd0:	fd 81       	ldd	r31, Y+5	; 0x05
    2bd2:	30 83       	st	Z, r19
    2bd4:	ee 81       	ldd	r30, Y+6	; 0x06
    2bd6:	ff 81       	ldd	r31, Y+7	; 0x07
    2bd8:	20 83       	st	Z, r18
    2bda:	ea 85       	ldd	r30, Y+10	; 0x0a
    2bdc:	fb 85       	ldd	r31, Y+11	; 0x0b
    2bde:	20 81       	ld	r18, Z
    2be0:	41 e0       	ldi	r20, 0x01	; 1
    2be2:	50 e0       	ldi	r21, 0x00	; 0
    2be4:	ca 01       	movw	r24, r20
    2be6:	0e 84       	ldd	r0, Y+14	; 0x0e
    2be8:	02 c0       	rjmp	.+4      	;  0x2bee
    2bea:	88 0f       	add	r24, r24
    2bec:	99 1f       	adc	r25, r25
    2bee:	0a 94       	dec	r0
    2bf0:	e2 f7       	brpl	.-8      	;  0x2bea
    2bf2:	28 2b       	or	r18, r24
    2bf4:	20 83       	st	Z, r18
    2bf6:	ea 85       	ldd	r30, Y+10	; 0x0a
    2bf8:	fb 85       	ldd	r31, Y+11	; 0x0b
    2bfa:	20 81       	ld	r18, Z
    2bfc:	ca 01       	movw	r24, r20
    2bfe:	0f 84       	ldd	r0, Y+15	; 0x0f
    2c00:	02 c0       	rjmp	.+4      	;  0x2c06
    2c02:	88 0f       	add	r24, r24
    2c04:	99 1f       	adc	r25, r25
    2c06:	0a 94       	dec	r0
    2c08:	e2 f7       	brpl	.-8      	;  0x2c02
    2c0a:	28 2b       	or	r18, r24
    2c0c:	20 83       	st	Z, r18
    2c0e:	ea 85       	ldd	r30, Y+10	; 0x0a
    2c10:	fb 85       	ldd	r31, Y+11	; 0x0b
    2c12:	80 81       	ld	r24, Z
    2c14:	08 88       	ldd	r0, Y+16	; 0x10
    2c16:	02 c0       	rjmp	.+4      	;  0x2c1c
    2c18:	44 0f       	add	r20, r20
    2c1a:	55 1f       	adc	r21, r21
    2c1c:	0a 94       	dec	r0
    2c1e:	e2 f7       	brpl	.-8      	;  0x2c18
    2c20:	84 2b       	or	r24, r20
    2c22:	80 83       	st	Z, r24
    2c24:	df 91       	pop	r29
    2c26:	cf 91       	pop	r28
    2c28:	08 95       	ret
    2c2a:	10 82       	st	Z, r1
    2c2c:	20 e1       	ldi	r18, 0x10	; 16
    2c2e:	30 e0       	ldi	r19, 0x00	; 0
    2c30:	ce cf       	rjmp	.-100    	;  0x2bce
    2c32:	fc 01       	movw	r30, r24
    2c34:	a2 85       	ldd	r26, Z+10	; 0x0a
    2c36:	b3 85       	ldd	r27, Z+11	; 0x0b
    2c38:	4c 91       	ld	r20, X
    2c3a:	21 e0       	ldi	r18, 0x01	; 1
    2c3c:	30 e0       	ldi	r19, 0x00	; 0
    2c3e:	c9 01       	movw	r24, r18
    2c40:	06 84       	ldd	r0, Z+14	; 0x0e
    2c42:	02 c0       	rjmp	.+4      	;  0x2c48
    2c44:	88 0f       	add	r24, r24
    2c46:	99 1f       	adc	r25, r25
    2c48:	0a 94       	dec	r0
    2c4a:	e2 f7       	brpl	.-8      	;  0x2c44
    2c4c:	80 95       	com	r24
    2c4e:	84 23       	and	r24, r20
    2c50:	8c 93       	st	X, r24
    2c52:	a2 85       	ldd	r26, Z+10	; 0x0a
    2c54:	b3 85       	ldd	r27, Z+11	; 0x0b
    2c56:	4c 91       	ld	r20, X
    2c58:	c9 01       	movw	r24, r18
    2c5a:	07 84       	ldd	r0, Z+15	; 0x0f
    2c5c:	02 c0       	rjmp	.+4      	;  0x2c62
    2c5e:	88 0f       	add	r24, r24
    2c60:	99 1f       	adc	r25, r25
    2c62:	0a 94       	dec	r0
    2c64:	e2 f7       	brpl	.-8      	;  0x2c5e
    2c66:	80 95       	com	r24
    2c68:	84 23       	and	r24, r20
    2c6a:	8c 93       	st	X, r24
    2c6c:	a2 85       	ldd	r26, Z+10	; 0x0a
    2c6e:	b3 85       	ldd	r27, Z+11	; 0x0b
    2c70:	8c 91       	ld	r24, X
    2c72:	00 88       	ldd	r0, Z+16	; 0x10
    2c74:	02 c0       	rjmp	.+4      	;  0x2c7a
    2c76:	22 0f       	add	r18, r18
    2c78:	33 1f       	adc	r19, r19
    2c7a:	0a 94       	dec	r0
    2c7c:	e2 f7       	brpl	.-8      	;  0x2c76
    2c7e:	20 95       	com	r18
    2c80:	28 23       	and	r18, r24
    2c82:	2c 93       	st	X, r18
    2c84:	08 95       	ret
    2c86:	dc 01       	movw	r26, r24
    2c88:	12 96       	adiw	r26, 0x02	; 2
    2c8a:	ed 91       	ld	r30, X+
    2c8c:	fc 91       	ld	r31, X
    2c8e:	13 97       	sbiw	r26, 0x03	; 3
    2c90:	e0 58       	subi	r30, 0x80	; 128
    2c92:	ff 4f       	sbci	r31, 0xFF	; 255
    2c94:	21 91       	ld	r18, Z+
    2c96:	31 91       	ld	r19, Z+
    2c98:	80 81       	ld	r24, Z
    2c9a:	91 81       	ldd	r25, Z+1	; 0x01
    2c9c:	28 1b       	sub	r18, r24
    2c9e:	39 0b       	sbc	r19, r25
    2ca0:	2f 77       	andi	r18, 0x7F	; 127
    2ca2:	30 70       	andi	r19, 0x00	; 0
    2ca4:	c9 01       	movw	r24, r18
    2ca6:	08 95       	ret
    2ca8:	dc 01       	movw	r26, r24
    2caa:	12 96       	adiw	r26, 0x02	; 2
    2cac:	ed 91       	ld	r30, X+
    2cae:	fc 91       	ld	r31, X
    2cb0:	13 97       	sbiw	r26, 0x03	; 3
    2cb2:	ee 57       	subi	r30, 0x7E	; 126
    2cb4:	ff 4f       	sbci	r31, 0xFF	; 255
    2cb6:	20 81       	ld	r18, Z
    2cb8:	31 81       	ldd	r19, Z+1	; 0x01
    2cba:	92 91       	ld	r25, -Z
    2cbc:	82 91       	ld	r24, -Z
    2cbe:	e0 58       	subi	r30, 0x80	; 128
    2cc0:	f0 40       	sbci	r31, 0x00	; 0
    2cc2:	82 17       	cp	r24, r18
    2cc4:	93 07       	cpc	r25, r19
    2cc6:	19 f4       	brne	.+6      	;  0x2cce
    2cc8:	2f ef       	ldi	r18, 0xFF	; 255
    2cca:	3f ef       	ldi	r19, 0xFF	; 255
    2ccc:	05 c0       	rjmp	.+10     	;  0x2cd8
    2cce:	e2 0f       	add	r30, r18
    2cd0:	f3 1f       	adc	r31, r19
    2cd2:	80 81       	ld	r24, Z
    2cd4:	28 2f       	mov	r18, r24
    2cd6:	30 e0       	ldi	r19, 0x00	; 0
    2cd8:	c9 01       	movw	r24, r18
    2cda:	08 95       	ret
    2cdc:	dc 01       	movw	r26, r24
    2cde:	12 96       	adiw	r26, 0x02	; 2
    2ce0:	ed 91       	ld	r30, X+
    2ce2:	fc 91       	ld	r31, X
    2ce4:	13 97       	sbiw	r26, 0x03	; 3
    2ce6:	df 01       	movw	r26, r30
    2ce8:	ae 57       	subi	r26, 0x7E	; 126
    2cea:	bf 4f       	sbci	r27, 0xFF	; 255
    2cec:	2d 91       	ld	r18, X+
    2cee:	3c 91       	ld	r19, X
    2cf0:	11 97       	sbiw	r26, 0x01	; 1
    2cf2:	e0 58       	subi	r30, 0x80	; 128
    2cf4:	ff 4f       	sbci	r31, 0xFF	; 255
    2cf6:	80 81       	ld	r24, Z
    2cf8:	91 81       	ldd	r25, Z+1	; 0x01
    2cfa:	e0 58       	subi	r30, 0x80	; 128
    2cfc:	f0 40       	sbci	r31, 0x00	; 0
    2cfe:	82 17       	cp	r24, r18
    2d00:	93 07       	cpc	r25, r19
    2d02:	19 f4       	brne	.+6      	;  0x2d0a
    2d04:	2f ef       	ldi	r18, 0xFF	; 255
    2d06:	3f ef       	ldi	r19, 0xFF	; 255
    2d08:	0b c0       	rjmp	.+22     	;  0x2d20
    2d0a:	e2 0f       	add	r30, r18
    2d0c:	f3 1f       	adc	r31, r19
    2d0e:	80 81       	ld	r24, Z
    2d10:	2f 5f       	subi	r18, 0xFF	; 255
    2d12:	3f 4f       	sbci	r19, 0xFF	; 255
    2d14:	2f 77       	andi	r18, 0x7F	; 127
    2d16:	30 70       	andi	r19, 0x00	; 0
    2d18:	2d 93       	st	X+, r18
    2d1a:	3c 93       	st	X, r19
    2d1c:	28 2f       	mov	r18, r24
    2d1e:	30 e0       	ldi	r19, 0x00	; 0
    2d20:	c9 01       	movw	r24, r18
    2d22:	08 95       	ret
    2d24:	dc 01       	movw	r26, r24
    2d26:	12 96       	adiw	r26, 0x02	; 2
    2d28:	ed 91       	ld	r30, X+
    2d2a:	fc 91       	ld	r31, X
    2d2c:	13 97       	sbiw	r26, 0x03	; 3
    2d2e:	ee 57       	subi	r30, 0x7E	; 126
    2d30:	ff 4f       	sbci	r31, 0xFF	; 255
    2d32:	80 81       	ld	r24, Z
    2d34:	91 81       	ldd	r25, Z+1	; 0x01
    2d36:	92 93       	st	-Z, r25
    2d38:	82 93       	st	-Z, r24
    2d3a:	08 95       	ret
    2d3c:	fc 01       	movw	r30, r24
    2d3e:	a0 85       	ldd	r26, Z+8	; 0x08
    2d40:	b1 85       	ldd	r27, Z+9	; 0x09
    2d42:	21 89       	ldd	r18, Z+17	; 0x11
    2d44:	8c 91       	ld	r24, X
    2d46:	90 e0       	ldi	r25, 0x00	; 0
    2d48:	02 2e       	mov	r0, r18
    2d4a:	02 c0       	rjmp	.+4      	;  0x2d50
    2d4c:	95 95       	asr	r25
    2d4e:	87 95       	ror	r24
    2d50:	0a 94       	dec	r0
    2d52:	e2 f7       	brpl	.-8      	;  0x2d4c
    2d54:	80 ff       	sbrs	r24, 0
    2d56:	f6 cf       	rjmp	.-20     	;  0x2d44
    2d58:	04 84       	ldd	r0, Z+12	; 0x0c
    2d5a:	f5 85       	ldd	r31, Z+13	; 0x0d
    2d5c:	e0 2d       	mov	r30, r0
    2d5e:	60 83       	st	Z, r22
    2d60:	08 95       	ret
    2d62:	82 e5       	ldi	r24, 0x52	; 82
    2d64:	95 e0       	ldi	r25, 0x05	; 5
    2d66:	90 93 97 07 	sts	0x0797, r25
    2d6a:	80 93 96 07 	sts	0x0796, r24
    2d6e:	82 e1       	ldi	r24, 0x12	; 18
    2d70:	97 e0       	ldi	r25, 0x07	; 7
    2d72:	90 93 99 07 	sts	0x0799, r25
    2d76:	80 93 98 07 	sts	0x0798, r24
    2d7a:	85 ec       	ldi	r24, 0xC5	; 197
    2d7c:	90 e0       	ldi	r25, 0x00	; 0
    2d7e:	90 93 9b 07 	sts	0x079B, r25
    2d82:	80 93 9a 07 	sts	0x079A, r24
    2d86:	84 ec       	ldi	r24, 0xC4	; 196
    2d88:	90 e0       	ldi	r25, 0x00	; 0
    2d8a:	90 93 9d 07 	sts	0x079D, r25
    2d8e:	80 93 9c 07 	sts	0x079C, r24
    2d92:	80 ec       	ldi	r24, 0xC0	; 192
    2d94:	90 e0       	ldi	r25, 0x00	; 0
    2d96:	90 93 9f 07 	sts	0x079F, r25
    2d9a:	80 93 9e 07 	sts	0x079E, r24
    2d9e:	81 ec       	ldi	r24, 0xC1	; 193
    2da0:	90 e0       	ldi	r25, 0x00	; 0
    2da2:	90 93 a1 07 	sts	0x07A1, r25
    2da6:	80 93 a0 07 	sts	0x07A0, r24
    2daa:	86 ec       	ldi	r24, 0xC6	; 198
    2dac:	90 e0       	ldi	r25, 0x00	; 0
    2dae:	90 93 a3 07 	sts	0x07A3, r25
    2db2:	80 93 a2 07 	sts	0x07A2, r24
    2db6:	84 e0       	ldi	r24, 0x04	; 4
    2db8:	80 93 a4 07 	sts	0x07A4, r24
    2dbc:	83 e0       	ldi	r24, 0x03	; 3
    2dbe:	80 93 a5 07 	sts	0x07A5, r24
    2dc2:	87 e0       	ldi	r24, 0x07	; 7
    2dc4:	80 93 a6 07 	sts	0x07A6, r24
    2dc8:	85 e0       	ldi	r24, 0x05	; 5
    2dca:	80 93 a7 07 	sts	0x07A7, r24
    2dce:	81 e0       	ldi	r24, 0x01	; 1
    2dd0:	80 93 a8 07 	sts	0x07A8, r24
    2dd4:	08 95       	ret
    2dd6:	0f 93       	push	r16
    2dd8:	1f 93       	push	r17
    2dda:	cf 93       	push	r28
    2ddc:	df 93       	push	r29
    2dde:	8c 01       	movw	r16, r24
    2de0:	eb 01       	movw	r28, r22
    2de2:	09 c0       	rjmp	.+18     	;  0x2df6
    2de4:	21 96       	adiw	r28, 0x01	; 1
    2de6:	d8 01       	movw	r26, r16
    2de8:	ed 91       	ld	r30, X+
    2dea:	fc 91       	ld	r31, X
    2dec:	01 90       	ld	r0, Z+
    2dee:	f0 81       	ld	r31, Z
    2df0:	e0 2d       	mov	r30, r0
    2df2:	c8 01       	movw	r24, r16
    2df4:	09 95       	icall
    2df6:	68 81       	ld	r22, Y
    2df8:	66 23       	and	r22, r22
    2dfa:	a1 f7       	brne	.-24     	;  0x2de4
    2dfc:	df 91       	pop	r29
    2dfe:	cf 91       	pop	r28
    2e00:	1f 91       	pop	r17
    2e02:	0f 91       	pop	r16
    2e04:	08 95       	ret
    2e06:	ef 92       	push	r14
    2e08:	ff 92       	push	r15
    2e0a:	0f 93       	push	r16
    2e0c:	1f 93       	push	r17
    2e0e:	cf 93       	push	r28
    2e10:	df 93       	push	r29
    2e12:	8c 01       	movw	r16, r24
    2e14:	7b 01       	movw	r14, r22
    2e16:	ea 01       	movw	r28, r20
    2e18:	0c c0       	rjmp	.+24     	;  0x2e32
    2e1a:	d7 01       	movw	r26, r14
    2e1c:	6d 91       	ld	r22, X+
    2e1e:	7d 01       	movw	r14, r26
    2e20:	d8 01       	movw	r26, r16
    2e22:	ed 91       	ld	r30, X+
    2e24:	fc 91       	ld	r31, X
    2e26:	01 90       	ld	r0, Z+
    2e28:	f0 81       	ld	r31, Z
    2e2a:	e0 2d       	mov	r30, r0
    2e2c:	c8 01       	movw	r24, r16
    2e2e:	09 95       	icall
    2e30:	21 97       	sbiw	r28, 0x01	; 1
    2e32:	20 97       	sbiw	r28, 0x00	; 0
    2e34:	91 f7       	brne	.-28     	;  0x2e1a
    2e36:	df 91       	pop	r29
    2e38:	cf 91       	pop	r28
    2e3a:	1f 91       	pop	r17
    2e3c:	0f 91       	pop	r16
    2e3e:	ff 90       	pop	r15
    2e40:	ef 90       	pop	r14
    2e42:	08 95       	ret
    2e44:	dc 01       	movw	r26, r24
    2e46:	ed 91       	ld	r30, X+
    2e48:	fc 91       	ld	r31, X
    2e4a:	02 80       	ldd	r0, Z+2	; 0x02
    2e4c:	f3 81       	ldd	r31, Z+3	; 0x03
    2e4e:	e0 2d       	mov	r30, r0
    2e50:	09 95       	icall
    2e52:	08 95       	ret
    2e54:	cf 92       	push	r12
    2e56:	df 92       	push	r13
    2e58:	ef 92       	push	r14
    2e5a:	ff 92       	push	r15
    2e5c:	0f 93       	push	r16
    2e5e:	1f 93       	push	r17
    2e60:	cf 93       	push	r28
    2e62:	df 93       	push	r29
    2e64:	6c 01       	movw	r12, r24
    2e66:	7b 01       	movw	r14, r22
    2e68:	c0 e0       	ldi	r28, 0x00	; 0
    2e6a:	d0 e0       	ldi	r29, 0x00	; 0
    2e6c:	0e c0       	rjmp	.+28     	;  0x2e8a
    2e6e:	d6 01       	movw	r26, r12
    2e70:	ed 91       	ld	r30, X+
    2e72:	fc 91       	ld	r31, X
    2e74:	00 81       	ld	r16, Z
    2e76:	11 81       	ldd	r17, Z+1	; 0x01
    2e78:	c7 01       	movw	r24, r14
    2e7a:	be 01       	movw	r22, r28
    2e7c:	0e 94 7c 1a 	call	0x34f8	;  0x34f8
    2e80:	68 2f       	mov	r22, r24
    2e82:	c6 01       	movw	r24, r12
    2e84:	f8 01       	movw	r30, r16
    2e86:	09 95       	icall
    2e88:	21 96       	adiw	r28, 0x01	; 1
    2e8a:	f7 01       	movw	r30, r14
    2e8c:	84 81       	ldd	r24, Z+4	; 0x04
    2e8e:	95 81       	ldd	r25, Z+5	; 0x05
    2e90:	c8 17       	cp	r28, r24
    2e92:	d9 07       	cpc	r29, r25
    2e94:	60 f3       	brcs	.-40     	;  0x2e6e
    2e96:	df 91       	pop	r29
    2e98:	cf 91       	pop	r28
    2e9a:	1f 91       	pop	r17
    2e9c:	0f 91       	pop	r16
    2e9e:	ff 90       	pop	r15
    2ea0:	ef 90       	pop	r14
    2ea2:	df 90       	pop	r13
    2ea4:	cf 90       	pop	r12
    2ea6:	08 95       	ret
    2ea8:	2f 92       	push	r2
    2eaa:	3f 92       	push	r3
    2eac:	4f 92       	push	r4
    2eae:	5f 92       	push	r5
    2eb0:	6f 92       	push	r6
    2eb2:	7f 92       	push	r7
    2eb4:	8f 92       	push	r8
    2eb6:	9f 92       	push	r9
    2eb8:	af 92       	push	r10
    2eba:	bf 92       	push	r11
    2ebc:	cf 92       	push	r12
    2ebe:	df 92       	push	r13
    2ec0:	ef 92       	push	r14
    2ec2:	ff 92       	push	r15
    2ec4:	0f 93       	push	r16
    2ec6:	1f 93       	push	r17
    2ec8:	df 93       	push	r29
    2eca:	cf 93       	push	r28
    2ecc:	cd b7       	in	r28, 0x3d	; 61
    2ece:	de b7       	in	r29, 0x3e	; 62
    2ed0:	a0 97       	sbiw	r28, 0x20	; 32
    2ed2:	0f b6       	in	r0, 0x3f	; 63
    2ed4:	f8 94       	cli
    2ed6:	de bf       	out	0x3e, r29	; 62
    2ed8:	0f be       	out	0x3f, r0	; 63
    2eda:	cd bf       	out	0x3d, r28	; 61
    2edc:	1c 01       	movw	r2, r24
    2ede:	6a 01       	movw	r12, r20
    2ee0:	7b 01       	movw	r14, r22
    2ee2:	41 15       	cp	r20, r1
    2ee4:	51 05       	cpc	r21, r1
    2ee6:	61 05       	cpc	r22, r1
    2ee8:	71 05       	cpc	r23, r1
    2eea:	49 f4       	brne	.+18     	;  0x2efe
    2eec:	40 e3       	ldi	r20, 0x30	; 48
    2eee:	50 e0       	ldi	r21, 0x00	; 0
    2ef0:	60 e0       	ldi	r22, 0x00	; 0
    2ef2:	70 e0       	ldi	r23, 0x00	; 0
    2ef4:	20 e0       	ldi	r18, 0x00	; 0
    2ef6:	30 e0       	ldi	r19, 0x00	; 0
    2ef8:	0e 94 1e 18 	call	0x303c	;  0x303c
    2efc:	54 c0       	rjmp	.+168    	;  0x2fa6
    2efe:	88 24       	eor	r8, r8
    2f00:	99 24       	eor	r9, r9
    2f02:	54 01       	movw	r10, r8
    2f04:	42 2e       	mov	r4, r18
    2f06:	55 24       	eor	r5, r5
    2f08:	66 24       	eor	r6, r6
    2f0a:	77 24       	eor	r7, r7
    2f0c:	01 e0       	ldi	r16, 0x01	; 1
    2f0e:	10 e0       	ldi	r17, 0x00	; 0
    2f10:	0c 0f       	add	r16, r28
    2f12:	1d 1f       	adc	r17, r29
    2f14:	08 0d       	add	r16, r8
    2f16:	19 1d       	adc	r17, r9
    2f18:	c7 01       	movw	r24, r14
    2f1a:	b6 01       	movw	r22, r12
    2f1c:	a3 01       	movw	r20, r6
    2f1e:	92 01       	movw	r18, r4
    2f20:	0e 94 b5 26 	call	0x4d6a	;  0x4d6a
    2f24:	f8 01       	movw	r30, r16
    2f26:	60 83       	st	Z, r22
    2f28:	08 94       	sec
    2f2a:	81 1c       	adc	r8, r1
    2f2c:	91 1c       	adc	r9, r1
    2f2e:	a1 1c       	adc	r10, r1
    2f30:	b1 1c       	adc	r11, r1
    2f32:	c7 01       	movw	r24, r14
    2f34:	b6 01       	movw	r22, r12
    2f36:	a3 01       	movw	r20, r6
    2f38:	92 01       	movw	r18, r4
    2f3a:	0e 94 b5 26 	call	0x4d6a	;  0x4d6a
    2f3e:	c9 01       	movw	r24, r18
    2f40:	da 01       	movw	r26, r20
    2f42:	6c 01       	movw	r12, r24
    2f44:	7d 01       	movw	r14, r26
    2f46:	c1 14       	cp	r12, r1
    2f48:	d1 04       	cpc	r13, r1
    2f4a:	e1 04       	cpc	r14, r1
    2f4c:	f1 04       	cpc	r15, r1
    2f4e:	f1 f6       	brne	.-68     	;  0x2f0c
    2f50:	81 e0       	ldi	r24, 0x01	; 1
    2f52:	e8 2e       	mov	r14, r24
    2f54:	f1 2c       	mov	r15, r1
    2f56:	ec 0e       	add	r14, r28
    2f58:	fd 1e       	adc	r15, r29
    2f5a:	e8 0c       	add	r14, r8
    2f5c:	f9 1c       	adc	r15, r9
    2f5e:	3e 01       	movw	r6, r28
    2f60:	08 94       	sec
    2f62:	61 1c       	adc	r6, r1
    2f64:	71 1c       	adc	r7, r1
    2f66:	d5 01       	movw	r26, r10
    2f68:	c4 01       	movw	r24, r8
    2f6a:	01 97       	sbiw	r24, 0x01	; 1
    2f6c:	a1 09       	sbc	r26, r1
    2f6e:	b1 09       	sbc	r27, r1
    2f70:	6c 01       	movw	r12, r24
    2f72:	c8 18       	sub	r12, r8
    2f74:	d9 08       	sbc	r13, r9
    2f76:	14 c0       	rjmp	.+40     	;  0x2fa0
    2f78:	f6 01       	movw	r30, r12
    2f7a:	ee 0d       	add	r30, r14
    2f7c:	ff 1d       	adc	r31, r15
    2f7e:	40 81       	ld	r20, Z
    2f80:	4a 30       	cpi	r20, 0x0A	; 10
    2f82:	10 f4       	brcc	.+4      	;  0x2f88
    2f84:	40 5d       	subi	r20, 0xD0	; 208
    2f86:	01 c0       	rjmp	.+2      	;  0x2f8a
    2f88:	49 5c       	subi	r20, 0xC9	; 201
    2f8a:	50 e0       	ldi	r21, 0x00	; 0
    2f8c:	60 e0       	ldi	r22, 0x00	; 0
    2f8e:	70 e0       	ldi	r23, 0x00	; 0
    2f90:	c1 01       	movw	r24, r2
    2f92:	20 e0       	ldi	r18, 0x00	; 0
    2f94:	30 e0       	ldi	r19, 0x00	; 0
    2f96:	0e 94 1e 18 	call	0x303c	;  0x303c
    2f9a:	08 94       	sec
    2f9c:	e1 08       	sbc	r14, r1
    2f9e:	f1 08       	sbc	r15, r1
    2fa0:	6e 14       	cp	r6, r14
    2fa2:	7f 04       	cpc	r7, r15
    2fa4:	49 f7       	brne	.-46     	;  0x2f78
    2fa6:	a0 96       	adiw	r28, 0x20	; 32
    2fa8:	0f b6       	in	r0, 0x3f	; 63
    2faa:	f8 94       	cli
    2fac:	de bf       	out	0x3e, r29	; 62
    2fae:	0f be       	out	0x3f, r0	; 63
    2fb0:	cd bf       	out	0x3d, r28	; 61
    2fb2:	cf 91       	pop	r28
    2fb4:	df 91       	pop	r29
    2fb6:	1f 91       	pop	r17
    2fb8:	0f 91       	pop	r16
    2fba:	ff 90       	pop	r15
    2fbc:	ef 90       	pop	r14
    2fbe:	df 90       	pop	r13
    2fc0:	cf 90       	pop	r12
    2fc2:	bf 90       	pop	r11
    2fc4:	af 90       	pop	r10
    2fc6:	9f 90       	pop	r9
    2fc8:	8f 90       	pop	r8
    2fca:	7f 90       	pop	r7
    2fcc:	6f 90       	pop	r6
    2fce:	5f 90       	pop	r5
    2fd0:	4f 90       	pop	r4
    2fd2:	3f 90       	pop	r3
    2fd4:	2f 90       	pop	r2
    2fd6:	08 95       	ret
    2fd8:	dc 01       	movw	r26, r24
    2fda:	21 15       	cp	r18, r1
    2fdc:	31 05       	cpc	r19, r1
    2fde:	41 f4       	brne	.+16     	;  0x2ff0
    2fe0:	ed 91       	ld	r30, X+
    2fe2:	fc 91       	ld	r31, X
    2fe4:	01 90       	ld	r0, Z+
    2fe6:	f0 81       	ld	r31, Z
    2fe8:	e0 2d       	mov	r30, r0
    2fea:	64 2f       	mov	r22, r20
    2fec:	09 95       	icall
    2fee:	08 95       	ret
    2ff0:	0e 94 54 17 	call	0x2ea8	;  0x2ea8
    2ff4:	08 95       	ret
    2ff6:	ef 92       	push	r14
    2ff8:	ff 92       	push	r15
    2ffa:	0f 93       	push	r16
    2ffc:	1f 93       	push	r17
    2ffe:	9a 01       	movw	r18, r20
    3000:	7b 01       	movw	r14, r22
    3002:	00 e0       	ldi	r16, 0x00	; 0
    3004:	10 e0       	ldi	r17, 0x00	; 0
    3006:	b8 01       	movw	r22, r16
    3008:	a7 01       	movw	r20, r14
    300a:	0e 94 ec 17 	call	0x2fd8	;  0x2fd8
    300e:	1f 91       	pop	r17
    3010:	0f 91       	pop	r16
    3012:	ff 90       	pop	r15
    3014:	ef 90       	pop	r14
    3016:	08 95       	ret
    3018:	ef 92       	push	r14
    301a:	ff 92       	push	r15
    301c:	0f 93       	push	r16
    301e:	1f 93       	push	r17
    3020:	9a 01       	movw	r18, r20
    3022:	e6 2e       	mov	r14, r22
    3024:	ff 24       	eor	r15, r15
    3026:	00 e0       	ldi	r16, 0x00	; 0
    3028:	10 e0       	ldi	r17, 0x00	; 0
    302a:	b8 01       	movw	r22, r16
    302c:	a7 01       	movw	r20, r14
    302e:	0e 94 ec 17 	call	0x2fd8	;  0x2fd8
    3032:	1f 91       	pop	r17
    3034:	0f 91       	pop	r16
    3036:	ff 90       	pop	r15
    3038:	ef 90       	pop	r14
    303a:	08 95       	ret
    303c:	ef 92       	push	r14
    303e:	ff 92       	push	r15
    3040:	0f 93       	push	r16
    3042:	1f 93       	push	r17
    3044:	cf 93       	push	r28
    3046:	df 93       	push	r29
    3048:	ec 01       	movw	r28, r24
    304a:	7a 01       	movw	r14, r20
    304c:	8b 01       	movw	r16, r22
    304e:	21 15       	cp	r18, r1
    3050:	31 05       	cpc	r19, r1
    3052:	41 f4       	brne	.+16     	;  0x3064
    3054:	e8 81       	ld	r30, Y
    3056:	f9 81       	ldd	r31, Y+1	; 0x01
    3058:	01 90       	ld	r0, Z+
    305a:	f0 81       	ld	r31, Z
    305c:	e0 2d       	mov	r30, r0
    305e:	64 2f       	mov	r22, r20
    3060:	09 95       	icall
    3062:	1b c0       	rjmp	.+54     	;  0x309a
    3064:	2a 30       	cpi	r18, 0x0A	; 10
    3066:	31 05       	cpc	r19, r1
    3068:	b1 f4       	brne	.+44     	;  0x3096
    306a:	77 ff       	sbrs	r23, 7
    306c:	10 c0       	rjmp	.+32     	;  0x308e
    306e:	4d e2       	ldi	r20, 0x2D	; 45
    3070:	50 e0       	ldi	r21, 0x00	; 0
    3072:	60 e0       	ldi	r22, 0x00	; 0
    3074:	70 e0       	ldi	r23, 0x00	; 0
    3076:	20 e0       	ldi	r18, 0x00	; 0
    3078:	30 e0       	ldi	r19, 0x00	; 0
    307a:	0e 94 1e 18 	call	0x303c	;  0x303c
    307e:	10 95       	com	r17
    3080:	00 95       	com	r16
    3082:	f0 94       	com	r15
    3084:	e0 94       	com	r14
    3086:	e1 1c       	adc	r14, r1
    3088:	f1 1c       	adc	r15, r1
    308a:	01 1d       	adc	r16, r1
    308c:	11 1d       	adc	r17, r1
    308e:	ce 01       	movw	r24, r28
    3090:	b8 01       	movw	r22, r16
    3092:	a7 01       	movw	r20, r14
    3094:	2a e0       	ldi	r18, 0x0A	; 10
    3096:	0e 94 54 17 	call	0x2ea8	;  0x2ea8
    309a:	df 91       	pop	r29
    309c:	cf 91       	pop	r28
    309e:	1f 91       	pop	r17
    30a0:	0f 91       	pop	r16
    30a2:	ff 90       	pop	r15
    30a4:	ef 90       	pop	r14
    30a6:	08 95       	ret
    30a8:	ef 92       	push	r14
    30aa:	ff 92       	push	r15
    30ac:	0f 93       	push	r16
    30ae:	1f 93       	push	r17
    30b0:	7b 01       	movw	r14, r22
    30b2:	9a 01       	movw	r18, r20
    30b4:	00 27       	eor	r16, r16
    30b6:	f7 fc       	sbrc	r15, 7
    30b8:	00 95       	com	r16
    30ba:	10 2f       	mov	r17, r16
    30bc:	b8 01       	movw	r22, r16
    30be:	a7 01       	movw	r20, r14
    30c0:	0e 94 1e 18 	call	0x303c	;  0x303c
    30c4:	1f 91       	pop	r17
    30c6:	0f 91       	pop	r16
    30c8:	ff 90       	pop	r15
    30ca:	ef 90       	pop	r14
    30cc:	08 95       	ret
    30ce:	ef 92       	push	r14
    30d0:	ff 92       	push	r15
    30d2:	0f 93       	push	r16
    30d4:	1f 93       	push	r17
    30d6:	9a 01       	movw	r18, r20
    30d8:	e6 2e       	mov	r14, r22
    30da:	ff 24       	eor	r15, r15
    30dc:	00 e0       	ldi	r16, 0x00	; 0
    30de:	10 e0       	ldi	r17, 0x00	; 0
    30e0:	b8 01       	movw	r22, r16
    30e2:	a7 01       	movw	r20, r14
    30e4:	0e 94 1e 18 	call	0x303c	;  0x303c
    30e8:	1f 91       	pop	r17
    30ea:	0f 91       	pop	r16
    30ec:	ff 90       	pop	r15
    30ee:	ef 90       	pop	r14
    30f0:	08 95       	ret
    30f2:	0f 93       	push	r16
    30f4:	1f 93       	push	r17
    30f6:	8c 01       	movw	r16, r24
    30f8:	4d e0       	ldi	r20, 0x0D	; 13
    30fa:	50 e0       	ldi	r21, 0x00	; 0
    30fc:	60 e0       	ldi	r22, 0x00	; 0
    30fe:	70 e0       	ldi	r23, 0x00	; 0
    3100:	20 e0       	ldi	r18, 0x00	; 0
    3102:	30 e0       	ldi	r19, 0x00	; 0
    3104:	0e 94 1e 18 	call	0x303c	;  0x303c
    3108:	c8 01       	movw	r24, r16
    310a:	4a e0       	ldi	r20, 0x0A	; 10
    310c:	50 e0       	ldi	r21, 0x00	; 0
    310e:	60 e0       	ldi	r22, 0x00	; 0
    3110:	70 e0       	ldi	r23, 0x00	; 0
    3112:	20 e0       	ldi	r18, 0x00	; 0
    3114:	30 e0       	ldi	r19, 0x00	; 0
    3116:	0e 94 1e 18 	call	0x303c	;  0x303c
    311a:	1f 91       	pop	r17
    311c:	0f 91       	pop	r16
    311e:	08 95       	ret
    3120:	0f 93       	push	r16
    3122:	1f 93       	push	r17
    3124:	8c 01       	movw	r16, r24
    3126:	0e 94 ec 17 	call	0x2fd8	;  0x2fd8
    312a:	c8 01       	movw	r24, r16
    312c:	0e 94 79 18 	call	0x30f2	;  0x30f2
    3130:	1f 91       	pop	r17
    3132:	0f 91       	pop	r16
    3134:	08 95       	ret
    3136:	cf 92       	push	r12
    3138:	df 92       	push	r13
    313a:	ef 92       	push	r14
    313c:	ff 92       	push	r15
    313e:	0f 93       	push	r16
    3140:	1f 93       	push	r17
    3142:	8c 01       	movw	r16, r24
    3144:	9a 01       	movw	r18, r20
    3146:	6b 01       	movw	r12, r22
    3148:	ee 24       	eor	r14, r14
    314a:	ff 24       	eor	r15, r15
    314c:	b7 01       	movw	r22, r14
    314e:	a6 01       	movw	r20, r12
    3150:	0e 94 ec 17 	call	0x2fd8	;  0x2fd8
    3154:	c8 01       	movw	r24, r16
    3156:	0e 94 79 18 	call	0x30f2	;  0x30f2
    315a:	1f 91       	pop	r17
    315c:	0f 91       	pop	r16
    315e:	ff 90       	pop	r15
    3160:	ef 90       	pop	r14
    3162:	df 90       	pop	r13
    3164:	cf 90       	pop	r12
    3166:	08 95       	ret
    3168:	cf 92       	push	r12
    316a:	df 92       	push	r13
    316c:	ef 92       	push	r14
    316e:	ff 92       	push	r15
    3170:	0f 93       	push	r16
    3172:	1f 93       	push	r17
    3174:	8c 01       	movw	r16, r24
    3176:	9a 01       	movw	r18, r20
    3178:	c6 2e       	mov	r12, r22
    317a:	dd 24       	eor	r13, r13
    317c:	ee 24       	eor	r14, r14
    317e:	ff 24       	eor	r15, r15
    3180:	b7 01       	movw	r22, r14
    3182:	a6 01       	movw	r20, r12
    3184:	0e 94 ec 17 	call	0x2fd8	;  0x2fd8
    3188:	c8 01       	movw	r24, r16
    318a:	0e 94 79 18 	call	0x30f2	;  0x30f2
    318e:	1f 91       	pop	r17
    3190:	0f 91       	pop	r16
    3192:	ff 90       	pop	r15
    3194:	ef 90       	pop	r14
    3196:	df 90       	pop	r13
    3198:	cf 90       	pop	r12
    319a:	08 95       	ret
    319c:	0f 93       	push	r16
    319e:	1f 93       	push	r17
    31a0:	8c 01       	movw	r16, r24
    31a2:	0e 94 22 17 	call	0x2e44	;  0x2e44
    31a6:	c8 01       	movw	r24, r16
    31a8:	0e 94 79 18 	call	0x30f2	;  0x30f2
    31ac:	1f 91       	pop	r17
    31ae:	0f 91       	pop	r16
    31b0:	08 95       	ret
    31b2:	0f 93       	push	r16
    31b4:	1f 93       	push	r17
    31b6:	8c 01       	movw	r16, r24
    31b8:	0e 94 2a 17 	call	0x2e54	;  0x2e54
    31bc:	c8 01       	movw	r24, r16
    31be:	0e 94 79 18 	call	0x30f2	;  0x30f2
    31c2:	1f 91       	pop	r17
    31c4:	0f 91       	pop	r16
    31c6:	08 95       	ret
    31c8:	0f 93       	push	r16
    31ca:	1f 93       	push	r17
    31cc:	8c 01       	movw	r16, r24
    31ce:	0e 94 1e 18 	call	0x303c	;  0x303c
    31d2:	c8 01       	movw	r24, r16
    31d4:	0e 94 79 18 	call	0x30f2	;  0x30f2
    31d8:	1f 91       	pop	r17
    31da:	0f 91       	pop	r16
    31dc:	08 95       	ret
    31de:	cf 92       	push	r12
    31e0:	df 92       	push	r13
    31e2:	ef 92       	push	r14
    31e4:	ff 92       	push	r15
    31e6:	0f 93       	push	r16
    31e8:	1f 93       	push	r17
    31ea:	8c 01       	movw	r16, r24
    31ec:	6b 01       	movw	r12, r22
    31ee:	9a 01       	movw	r18, r20
    31f0:	ee 24       	eor	r14, r14
    31f2:	d7 fc       	sbrc	r13, 7
    31f4:	e0 94       	com	r14
    31f6:	fe 2c       	mov	r15, r14
    31f8:	b7 01       	movw	r22, r14
    31fa:	a6 01       	movw	r20, r12
    31fc:	0e 94 1e 18 	call	0x303c	;  0x303c
    3200:	c8 01       	movw	r24, r16
    3202:	0e 94 79 18 	call	0x30f2	;  0x30f2
    3206:	1f 91       	pop	r17
    3208:	0f 91       	pop	r16
    320a:	ff 90       	pop	r15
    320c:	ef 90       	pop	r14
    320e:	df 90       	pop	r13
    3210:	cf 90       	pop	r12
    3212:	08 95       	ret
    3214:	cf 92       	push	r12
    3216:	df 92       	push	r13
    3218:	ef 92       	push	r14
    321a:	ff 92       	push	r15
    321c:	0f 93       	push	r16
    321e:	1f 93       	push	r17
    3220:	8c 01       	movw	r16, r24
    3222:	9a 01       	movw	r18, r20
    3224:	c6 2e       	mov	r12, r22
    3226:	dd 24       	eor	r13, r13
    3228:	ee 24       	eor	r14, r14
    322a:	ff 24       	eor	r15, r15
    322c:	b7 01       	movw	r22, r14
    322e:	a6 01       	movw	r20, r12
    3230:	0e 94 1e 18 	call	0x303c	;  0x303c
    3234:	c8 01       	movw	r24, r16
    3236:	0e 94 79 18 	call	0x30f2	;  0x30f2
    323a:	1f 91       	pop	r17
    323c:	0f 91       	pop	r16
    323e:	ff 90       	pop	r15
    3240:	ef 90       	pop	r14
    3242:	df 90       	pop	r13
    3244:	cf 90       	pop	r12
    3246:	08 95       	ret
    3248:	9f 92       	push	r9
    324a:	af 92       	push	r10
    324c:	bf 92       	push	r11
    324e:	cf 92       	push	r12
    3250:	df 92       	push	r13
    3252:	ef 92       	push	r14
    3254:	ff 92       	push	r15
    3256:	0f 93       	push	r16
    3258:	1f 93       	push	r17
    325a:	cf 93       	push	r28
    325c:	df 93       	push	r29
    325e:	ec 01       	movw	r28, r24
    3260:	7a 01       	movw	r14, r20
    3262:	8b 01       	movw	r16, r22
    3264:	92 2e       	mov	r9, r18
    3266:	cb 01       	movw	r24, r22
    3268:	ba 01       	movw	r22, r20
    326a:	20 e0       	ldi	r18, 0x00	; 0
    326c:	30 e0       	ldi	r19, 0x00	; 0
    326e:	40 e0       	ldi	r20, 0x00	; 0
    3270:	50 e0       	ldi	r21, 0x00	; 0
    3272:	0e 94 e4 24 	call	0x49c8	;  0x49c8
    3276:	88 23       	and	r24, r24
    3278:	6c f4       	brge	.+26     	;  0x3294
    327a:	ce 01       	movw	r24, r28
    327c:	4d e2       	ldi	r20, 0x2D	; 45
    327e:	50 e0       	ldi	r21, 0x00	; 0
    3280:	60 e0       	ldi	r22, 0x00	; 0
    3282:	70 e0       	ldi	r23, 0x00	; 0
    3284:	20 e0       	ldi	r18, 0x00	; 0
    3286:	30 e0       	ldi	r19, 0x00	; 0
    3288:	0e 94 1e 18 	call	0x303c	;  0x303c
    328c:	17 fb       	bst	r17, 7
    328e:	10 95       	com	r17
    3290:	17 f9       	bld	r17, 7
    3292:	10 95       	com	r17
    3294:	20 e0       	ldi	r18, 0x00	; 0
    3296:	30 e0       	ldi	r19, 0x00	; 0
    3298:	40 e0       	ldi	r20, 0x00	; 0
    329a:	5f e3       	ldi	r21, 0x3F	; 63
    329c:	aa 24       	eor	r10, r10
    329e:	0b c0       	rjmp	.+22     	;  0x32b6
    32a0:	ca 01       	movw	r24, r20
    32a2:	b9 01       	movw	r22, r18
    32a4:	20 e0       	ldi	r18, 0x00	; 0
    32a6:	30 e0       	ldi	r19, 0x00	; 0
    32a8:	40 e2       	ldi	r20, 0x20	; 32
    32aa:	51 e4       	ldi	r21, 0x41	; 65
    32ac:	0e 94 e8 24 	call	0x49d0	;  0x49d0
    32b0:	9b 01       	movw	r18, r22
    32b2:	ac 01       	movw	r20, r24
    32b4:	a3 94       	inc	r10
    32b6:	a9 14       	cp	r10, r9
    32b8:	98 f3       	brcs	.-26     	;  0x32a0
    32ba:	c8 01       	movw	r24, r16
    32bc:	b7 01       	movw	r22, r14
    32be:	0e 94 80 24 	call	0x4900	;  0x4900
    32c2:	5b 01       	movw	r10, r22
    32c4:	6c 01       	movw	r12, r24
    32c6:	0e 94 55 25 	call	0x4aaa	;  0x4aaa
    32ca:	7b 01       	movw	r14, r22
    32cc:	8c 01       	movw	r16, r24
    32ce:	ce 01       	movw	r24, r28
    32d0:	b8 01       	movw	r22, r16
    32d2:	a7 01       	movw	r20, r14
    32d4:	2a e0       	ldi	r18, 0x0A	; 10
    32d6:	30 e0       	ldi	r19, 0x00	; 0
    32d8:	0e 94 ec 17 	call	0x2fd8	;  0x2fd8
    32dc:	99 20       	and	r9, r9
    32de:	29 f0       	breq	.+10     	;  0x32ea
    32e0:	ce 01       	movw	r24, r28
    32e2:	62 e7       	ldi	r22, 0x72	; 114
    32e4:	75 e0       	ldi	r23, 0x05	; 5
    32e6:	0e 94 22 17 	call	0x2e44	;  0x2e44
    32ea:	c8 01       	movw	r24, r16
    32ec:	b7 01       	movw	r22, r14
    32ee:	0e 94 81 25 	call	0x4b02	;  0x4b02
    32f2:	9b 01       	movw	r18, r22
    32f4:	ac 01       	movw	r20, r24
    32f6:	c6 01       	movw	r24, r12
    32f8:	b5 01       	movw	r22, r10
    32fa:	0e 94 7f 24 	call	0x48fe	;  0x48fe
    32fe:	22 c0       	rjmp	.+68     	;  0x3344
    3300:	20 e0       	ldi	r18, 0x00	; 0
    3302:	30 e0       	ldi	r19, 0x00	; 0
    3304:	40 e2       	ldi	r20, 0x20	; 32
    3306:	51 e4       	ldi	r21, 0x41	; 65
    3308:	0e 94 33 26 	call	0x4c66	;  0x4c66
    330c:	7b 01       	movw	r14, r22
    330e:	8c 01       	movw	r16, r24
    3310:	0e 94 50 25 	call	0x4aa0	;  0x4aa0
    3314:	5b 01       	movw	r10, r22
    3316:	6c 01       	movw	r12, r24
    3318:	cc 24       	eor	r12, r12
    331a:	b7 fc       	sbrc	r11, 7
    331c:	c0 94       	com	r12
    331e:	dc 2c       	mov	r13, r12
    3320:	ce 01       	movw	r24, r28
    3322:	b6 01       	movw	r22, r12
    3324:	a5 01       	movw	r20, r10
    3326:	2a e0       	ldi	r18, 0x0A	; 10
    3328:	30 e0       	ldi	r19, 0x00	; 0
    332a:	0e 94 1e 18 	call	0x303c	;  0x303c
    332e:	c6 01       	movw	r24, r12
    3330:	b5 01       	movw	r22, r10
    3332:	0e 94 83 25 	call	0x4b06	;  0x4b06
    3336:	9b 01       	movw	r18, r22
    3338:	ac 01       	movw	r20, r24
    333a:	c8 01       	movw	r24, r16
    333c:	b7 01       	movw	r22, r14
    333e:	0e 94 7f 24 	call	0x48fe	;  0x48fe
    3342:	9a 94       	dec	r9
    3344:	99 20       	and	r9, r9
    3346:	e1 f6       	brne	.-72     	;  0x3300
    3348:	df 91       	pop	r29
    334a:	cf 91       	pop	r28
    334c:	1f 91       	pop	r17
    334e:	0f 91       	pop	r16
    3350:	ff 90       	pop	r15
    3352:	ef 90       	pop	r14
    3354:	df 90       	pop	r13
    3356:	cf 90       	pop	r12
    3358:	bf 90       	pop	r11
    335a:	af 90       	pop	r10
    335c:	9f 90       	pop	r9
    335e:	08 95       	ret
    3360:	0e 94 24 19 	call	0x3248	;  0x3248
    3364:	08 95       	ret
    3366:	0f 93       	push	r16
    3368:	1f 93       	push	r17
    336a:	8c 01       	movw	r16, r24
    336c:	0e 94 24 19 	call	0x3248	;  0x3248
    3370:	c8 01       	movw	r24, r16
    3372:	0e 94 79 18 	call	0x30f2	;  0x30f2
    3376:	1f 91       	pop	r17
    3378:	0f 91       	pop	r16
    337a:	08 95       	ret
    337c:	82 30       	cpi	r24, 0x02	; 2
    337e:	00 f5       	brcc	.+64     	;  0x33c0
    3380:	e8 2f       	mov	r30, r24
    3382:	f0 e0       	ldi	r31, 0x00	; 0
    3384:	ee 0f       	add	r30, r30
    3386:	ff 1f       	adc	r31, r31
    3388:	e7 55       	subi	r30, 0x57	; 87
    338a:	f8 4f       	sbci	r31, 0xF8	; 248
    338c:	71 83       	std	Z+1, r23	; 0x01
    338e:	60 83       	st	Z, r22
    3390:	88 23       	and	r24, r24
    3392:	19 f0       	breq	.+6      	;  0x339a
    3394:	81 30       	cpi	r24, 0x01	; 1
    3396:	a1 f4       	brne	.+40     	;  0x33c0
    3398:	08 c0       	rjmp	.+16     	;  0x33aa
    339a:	80 91 69 00 	lds	r24, 0x0069
    339e:	8c 7f       	andi	r24, 0xFC	; 252
    33a0:	84 2b       	or	r24, r20
    33a2:	80 93 69 00 	sts	0x0069, r24
    33a6:	e8 9a       	sbi	0x1d, 0	; 29
    33a8:	08 95       	ret
    33aa:	80 91 69 00 	lds	r24, 0x0069
    33ae:	44 0f       	add	r20, r20
    33b0:	55 1f       	adc	r21, r21
    33b2:	44 0f       	add	r20, r20
    33b4:	55 1f       	adc	r21, r21
    33b6:	83 7f       	andi	r24, 0xF3	; 243
    33b8:	84 2b       	or	r24, r20
    33ba:	80 93 69 00 	sts	0x0069, r24
    33be:	e9 9a       	sbi	0x1d, 1	; 29
    33c0:	08 95       	ret
    33c2:	82 30       	cpi	r24, 0x02	; 2
    33c4:	80 f4       	brcc	.+32     	;  0x33e6
    33c6:	88 23       	and	r24, r24
    33c8:	19 f0       	breq	.+6      	;  0x33d0
    33ca:	81 30       	cpi	r24, 0x01	; 1
    33cc:	21 f4       	brne	.+8      	;  0x33d6
    33ce:	02 c0       	rjmp	.+4      	;  0x33d4
    33d0:	e8 98       	cbi	0x1d, 0	; 29
    33d2:	01 c0       	rjmp	.+2      	;  0x33d6
    33d4:	e9 98       	cbi	0x1d, 1	; 29
    33d6:	e8 2f       	mov	r30, r24
    33d8:	f0 e0       	ldi	r31, 0x00	; 0
    33da:	ee 0f       	add	r30, r30
    33dc:	ff 1f       	adc	r31, r31
    33de:	e7 55       	subi	r30, 0x57	; 87
    33e0:	f8 4f       	sbci	r31, 0xF8	; 248
    33e2:	11 82       	std	Z+1, r1	; 0x01
    33e4:	10 82       	st	Z, r1
    33e6:	08 95       	ret
    33e8:	1f 92       	push	r1
    33ea:	0f 92       	push	r0
    33ec:	0f b6       	in	r0, 0x3f	; 63
    33ee:	0f 92       	push	r0
    33f0:	11 24       	eor	r1, r1
    33f2:	2f 93       	push	r18
    33f4:	3f 93       	push	r19
    33f6:	4f 93       	push	r20
    33f8:	5f 93       	push	r21
    33fa:	6f 93       	push	r22
    33fc:	7f 93       	push	r23
    33fe:	8f 93       	push	r24
    3400:	9f 93       	push	r25
    3402:	af 93       	push	r26
    3404:	bf 93       	push	r27
    3406:	ef 93       	push	r30
    3408:	ff 93       	push	r31
    340a:	80 91 a9 07 	lds	r24, 0x07A9
    340e:	90 91 aa 07 	lds	r25, 0x07AA
    3412:	89 2b       	or	r24, r25
    3414:	29 f0       	breq	.+10     	;  0x3420
    3416:	e0 91 a9 07 	lds	r30, 0x07A9
    341a:	f0 91 aa 07 	lds	r31, 0x07AA
    341e:	09 95       	icall
    3420:	ff 91       	pop	r31
    3422:	ef 91       	pop	r30
    3424:	bf 91       	pop	r27
    3426:	af 91       	pop	r26
    3428:	9f 91       	pop	r25
    342a:	8f 91       	pop	r24
    342c:	7f 91       	pop	r23
    342e:	6f 91       	pop	r22
    3430:	5f 91       	pop	r21
    3432:	4f 91       	pop	r20
    3434:	3f 91       	pop	r19
    3436:	2f 91       	pop	r18
    3438:	0f 90       	pop	r0
    343a:	0f be       	out	0x3f, r0	; 63
    343c:	0f 90       	pop	r0
    343e:	1f 90       	pop	r1
    3440:	18 95       	reti
    3442:	1f 92       	push	r1
    3444:	0f 92       	push	r0
    3446:	0f b6       	in	r0, 0x3f	; 63
    3448:	0f 92       	push	r0
    344a:	11 24       	eor	r1, r1
    344c:	2f 93       	push	r18
    344e:	3f 93       	push	r19
    3450:	4f 93       	push	r20
    3452:	5f 93       	push	r21
    3454:	6f 93       	push	r22
    3456:	7f 93       	push	r23
    3458:	8f 93       	push	r24
    345a:	9f 93       	push	r25
    345c:	af 93       	push	r26
    345e:	bf 93       	push	r27
    3460:	ef 93       	push	r30
    3462:	ff 93       	push	r31
    3464:	80 91 ab 07 	lds	r24, 0x07AB
    3468:	90 91 ac 07 	lds	r25, 0x07AC
    346c:	89 2b       	or	r24, r25
    346e:	29 f0       	breq	.+10     	;  0x347a
    3470:	e0 91 ab 07 	lds	r30, 0x07AB
    3474:	f0 91 ac 07 	lds	r31, 0x07AC
    3478:	09 95       	icall
    347a:	ff 91       	pop	r31
    347c:	ef 91       	pop	r30
    347e:	bf 91       	pop	r27
    3480:	af 91       	pop	r26
    3482:	9f 91       	pop	r25
    3484:	8f 91       	pop	r24
    3486:	7f 91       	pop	r23
    3488:	6f 91       	pop	r22
    348a:	5f 91       	pop	r21
    348c:	4f 91       	pop	r20
    348e:	3f 91       	pop	r19
    3490:	2f 91       	pop	r18
    3492:	0f 90       	pop	r0
    3494:	0f be       	out	0x3f, r0	; 63
    3496:	0f 90       	pop	r0
    3498:	1f 90       	pop	r1
    349a:	18 95       	reti
    349c:	fc 01       	movw	r30, r24
    349e:	01 90       	ld	r0, Z+
    34a0:	f0 81       	ld	r31, Z
    34a2:	e0 2d       	mov	r30, r0
    34a4:	e6 0f       	add	r30, r22
    34a6:	f7 1f       	adc	r31, r23
    34a8:	80 81       	ld	r24, Z
    34aa:	08 95       	ret
    34ac:	dc 01       	movw	r26, r24
    34ae:	ed 91       	ld	r30, X+
    34b0:	fc 91       	ld	r31, X
    34b2:	11 97       	sbiw	r26, 0x01	; 1
    34b4:	30 97       	sbiw	r30, 0x00	; 0
    34b6:	51 f0       	breq	.+20     	;  0x34cc
    34b8:	14 96       	adiw	r26, 0x04	; 4
    34ba:	8d 91       	ld	r24, X+
    34bc:	9c 91       	ld	r25, X
    34be:	15 97       	sbiw	r26, 0x05	; 5
    34c0:	68 17       	cp	r22, r24
    34c2:	79 07       	cpc	r23, r25
    34c4:	18 f4       	brcc	.+6      	;  0x34cc
    34c6:	e6 0f       	add	r30, r22
    34c8:	f7 1f       	adc	r31, r23
    34ca:	40 83       	st	Z, r20
    34cc:	08 95       	ret
    34ce:	fc 01       	movw	r30, r24
    34d0:	9b 01       	movw	r18, r22
    34d2:	84 81       	ldd	r24, Z+4	; 0x04
    34d4:	95 81       	ldd	r25, Z+5	; 0x05
    34d6:	68 17       	cp	r22, r24
    34d8:	79 07       	cpc	r23, r25
    34da:	28 f4       	brcc	.+10     	;  0x34e6
    34dc:	60 81       	ld	r22, Z
    34de:	71 81       	ldd	r23, Z+1	; 0x01
    34e0:	61 15       	cp	r22, r1
    34e2:	71 05       	cpc	r23, r1
    34e4:	29 f4       	brne	.+10     	;  0x34f0
    34e6:	10 92 ad 07 	sts	0x07AD, r1
    34ea:	6d ea       	ldi	r22, 0xAD	; 173
    34ec:	77 e0       	ldi	r23, 0x07	; 7
    34ee:	02 c0       	rjmp	.+4      	;  0x34f4
    34f0:	62 0f       	add	r22, r18
    34f2:	73 1f       	adc	r23, r19
    34f4:	cb 01       	movw	r24, r22
    34f6:	08 95       	ret
    34f8:	fc 01       	movw	r30, r24
    34fa:	01 90       	ld	r0, Z+
    34fc:	f0 81       	ld	r31, Z
    34fe:	e0 2d       	mov	r30, r0
    3500:	e6 0f       	add	r30, r22
    3502:	f7 1f       	adc	r31, r23
    3504:	80 81       	ld	r24, Z
    3506:	08 95       	ret
    3508:	fc 01       	movw	r30, r24
    350a:	80 81       	ld	r24, Z
    350c:	91 81       	ldd	r25, Z+1	; 0x01
    350e:	0e 94 c8 28 	call	0x5190	;  0x5190
    3512:	08 95       	ret
    3514:	0f 93       	push	r16
    3516:	1f 93       	push	r17
    3518:	cf 93       	push	r28
    351a:	df 93       	push	r29
    351c:	fc 01       	movw	r30, r24
    351e:	8b 01       	movw	r16, r22
    3520:	41 15       	cp	r20, r1
    3522:	51 05       	cpc	r21, r1
    3524:	a1 f0       	breq	.+40     	;  0x354e
    3526:	61 15       	cp	r22, r1
    3528:	71 05       	cpc	r23, r1
    352a:	89 f0       	breq	.+34     	;  0x354e
    352c:	84 81       	ldd	r24, Z+4	; 0x04
    352e:	95 81       	ldd	r25, Z+5	; 0x05
    3530:	ea 01       	movw	r28, r20
    3532:	21 97       	sbiw	r28, 0x01	; 1
    3534:	8c 17       	cp	r24, r28
    3536:	9d 07       	cpc	r25, r29
    3538:	08 f4       	brcc	.+2      	;  0x353c
    353a:	ec 01       	movw	r28, r24
    353c:	60 81       	ld	r22, Z
    353e:	71 81       	ldd	r23, Z+1	; 0x01
    3540:	c8 01       	movw	r24, r16
    3542:	ae 01       	movw	r20, r28
    3544:	0e 94 44 29 	call	0x5288	;  0x5288
    3548:	c0 0f       	add	r28, r16
    354a:	d1 1f       	adc	r29, r17
    354c:	18 82       	st	Y, r1
    354e:	df 91       	pop	r29
    3550:	cf 91       	pop	r28
    3552:	1f 91       	pop	r17
    3554:	0f 91       	pop	r16
    3556:	08 95       	ret
    3558:	0f 93       	push	r16
    355a:	1f 93       	push	r17
    355c:	cf 93       	push	r28
    355e:	df 93       	push	r29
    3560:	fc 01       	movw	r30, r24
    3562:	8b 01       	movw	r16, r22
    3564:	41 15       	cp	r20, r1
    3566:	51 05       	cpc	r21, r1
    3568:	a1 f0       	breq	.+40     	;  0x3592
    356a:	61 15       	cp	r22, r1
    356c:	71 05       	cpc	r23, r1
    356e:	89 f0       	breq	.+34     	;  0x3592
    3570:	84 81       	ldd	r24, Z+4	; 0x04
    3572:	95 81       	ldd	r25, Z+5	; 0x05
    3574:	ea 01       	movw	r28, r20
    3576:	21 97       	sbiw	r28, 0x01	; 1
    3578:	8c 17       	cp	r24, r28
    357a:	9d 07       	cpc	r25, r29
    357c:	08 f4       	brcc	.+2      	;  0x3580
    357e:	ec 01       	movw	r28, r24
    3580:	60 81       	ld	r22, Z
    3582:	71 81       	ldd	r23, Z+1	; 0x01
    3584:	c8 01       	movw	r24, r16
    3586:	ae 01       	movw	r20, r28
    3588:	0e 94 44 29 	call	0x5288	;  0x5288
    358c:	c0 0f       	add	r28, r16
    358e:	d1 1f       	adc	r29, r17
    3590:	18 82       	st	Y, r1
    3592:	df 91       	pop	r29
    3594:	cf 91       	pop	r28
    3596:	1f 91       	pop	r17
    3598:	0f 91       	pop	r16
    359a:	08 95       	ret
    359c:	0f 93       	push	r16
    359e:	1f 93       	push	r17
    35a0:	8c 01       	movw	r16, r24
    35a2:	fc 01       	movw	r30, r24
    35a4:	80 81       	ld	r24, Z
    35a6:	91 81       	ldd	r25, Z+1	; 0x01
    35a8:	0e 94 9e 27 	call	0x4f3c	;  0x4f3c
    35ac:	f8 01       	movw	r30, r16
    35ae:	13 82       	std	Z+3, r1	; 0x03
    35b0:	12 82       	std	Z+2, r1	; 0x02
    35b2:	15 82       	std	Z+5, r1	; 0x05
    35b4:	14 82       	std	Z+4, r1	; 0x04
    35b6:	1f 91       	pop	r17
    35b8:	0f 91       	pop	r16
    35ba:	08 95       	ret
    35bc:	fc 01       	movw	r30, r24
    35be:	db 01       	movw	r26, r22
    35c0:	14 96       	adiw	r26, 0x04	; 4
    35c2:	2d 91       	ld	r18, X+
    35c4:	3c 91       	ld	r19, X
    35c6:	15 97       	sbiw	r26, 0x05	; 5
    35c8:	84 81       	ldd	r24, Z+4	; 0x04
    35ca:	95 81       	ldd	r25, Z+5	; 0x05
    35cc:	82 1b       	sub	r24, r18
    35ce:	93 0b       	sbc	r25, r19
    35d0:	84 17       	cp	r24, r20
    35d2:	95 07       	cpc	r25, r21
    35d4:	10 f4       	brcc	.+4      	;  0x35da
    35d6:	80 e0       	ldi	r24, 0x00	; 0
    35d8:	08 95       	ret
    35da:	80 81       	ld	r24, Z
    35dc:	91 81       	ldd	r25, Z+1	; 0x01
    35de:	6d 91       	ld	r22, X+
    35e0:	7c 91       	ld	r23, X
    35e2:	84 0f       	add	r24, r20
    35e4:	95 1f       	adc	r25, r21
    35e6:	a9 01       	movw	r20, r18
    35e8:	0e 94 36 29 	call	0x526c	;  0x526c
    35ec:	9c 01       	movw	r18, r24
    35ee:	80 e0       	ldi	r24, 0x00	; 0
    35f0:	23 2b       	or	r18, r19
    35f2:	09 f4       	brne	.+2      	;  0x35f6
    35f4:	81 e0       	ldi	r24, 0x01	; 1
    35f6:	08 95       	ret
    35f8:	fc 01       	movw	r30, r24
    35fa:	db 01       	movw	r26, r22
    35fc:	24 81       	ldd	r18, Z+4	; 0x04
    35fe:	35 81       	ldd	r19, Z+5	; 0x05
    3600:	14 96       	adiw	r26, 0x04	; 4
    3602:	8d 91       	ld	r24, X+
    3604:	9c 91       	ld	r25, X
    3606:	15 97       	sbiw	r26, 0x05	; 5
    3608:	28 17       	cp	r18, r24
    360a:	39 07       	cpc	r19, r25
    360c:	10 f4       	brcc	.+4      	;  0x3612
    360e:	80 e0       	ldi	r24, 0x00	; 0
    3610:	08 95       	ret
    3612:	cf 01       	movw	r24, r30
    3614:	40 e0       	ldi	r20, 0x00	; 0
    3616:	50 e0       	ldi	r21, 0x00	; 0
    3618:	0e 94 de 1a 	call	0x35bc	;  0x35bc
    361c:	08 95       	ret
    361e:	df 92       	push	r13
    3620:	ef 92       	push	r14
    3622:	ff 92       	push	r15
    3624:	0f 93       	push	r16
    3626:	1f 93       	push	r17
    3628:	cf 93       	push	r28
    362a:	df 93       	push	r29
    362c:	ec 01       	movw	r28, r24
    362e:	8c 81       	ldd	r24, Y+4	; 0x04
    3630:	9d 81       	ldd	r25, Y+5	; 0x05
    3632:	48 17       	cp	r20, r24
    3634:	59 07       	cpc	r21, r25
    3636:	b8 f4       	brcc	.+46     	;  0x3666
    3638:	7a 01       	movw	r14, r20
    363a:	08 94       	sec
    363c:	e1 1c       	adc	r14, r1
    363e:	f1 1c       	adc	r15, r1
    3640:	e8 81       	ld	r30, Y
    3642:	f9 81       	ldd	r31, Y+1	; 0x01
    3644:	ee 0d       	add	r30, r14
    3646:	ff 1d       	adc	r31, r15
    3648:	d0 80       	ld	r13, Z
    364a:	10 82       	st	Z, r1
    364c:	08 81       	ld	r16, Y
    364e:	19 81       	ldd	r17, Y+1	; 0x01
    3650:	c8 01       	movw	r24, r16
    3652:	70 e0       	ldi	r23, 0x00	; 0
    3654:	0e 94 53 29 	call	0x52a6	;  0x52a6
    3658:	9c 01       	movw	r18, r24
    365a:	0e 0d       	add	r16, r14
    365c:	1f 1d       	adc	r17, r15
    365e:	f8 01       	movw	r30, r16
    3660:	d0 82       	st	Z, r13
    3662:	00 97       	sbiw	r24, 0x00	; 0
    3664:	19 f4       	brne	.+6      	;  0x366c
    3666:	ef ef       	ldi	r30, 0xFF	; 255
    3668:	ff ef       	ldi	r31, 0xFF	; 255
    366a:	05 c0       	rjmp	.+10     	;  0x3676
    366c:	88 81       	ld	r24, Y
    366e:	99 81       	ldd	r25, Y+1	; 0x01
    3670:	f9 01       	movw	r30, r18
    3672:	e8 1b       	sub	r30, r24
    3674:	f9 0b       	sbc	r31, r25
    3676:	cf 01       	movw	r24, r30
    3678:	df 91       	pop	r29
    367a:	cf 91       	pop	r28
    367c:	1f 91       	pop	r17
    367e:	0f 91       	pop	r16
    3680:	ff 90       	pop	r15
    3682:	ef 90       	pop	r14
    3684:	df 90       	pop	r13
    3686:	08 95       	ret
    3688:	fc 01       	movw	r30, r24
    368a:	44 81       	ldd	r20, Z+4	; 0x04
    368c:	55 81       	ldd	r21, Z+5	; 0x05
    368e:	41 50       	subi	r20, 0x01	; 1
    3690:	50 40       	sbci	r21, 0x00	; 0
    3692:	0e 94 0f 1b 	call	0x361e	;  0x361e
    3696:	08 95       	ret
    3698:	cf 93       	push	r28
    369a:	df 93       	push	r29
    369c:	fc 01       	movw	r30, r24
    369e:	db 01       	movw	r26, r22
    36a0:	84 81       	ldd	r24, Z+4	; 0x04
    36a2:	95 81       	ldd	r25, Z+5	; 0x05
    36a4:	48 17       	cp	r20, r24
    36a6:	59 07       	cpc	r21, r25
    36a8:	60 f4       	brcc	.+24     	;  0x36c2
    36aa:	c0 81       	ld	r28, Z
    36ac:	d1 81       	ldd	r29, Z+1	; 0x01
    36ae:	6d 91       	ld	r22, X+
    36b0:	7c 91       	ld	r23, X
    36b2:	ce 01       	movw	r24, r28
    36b4:	84 0f       	add	r24, r20
    36b6:	95 1f       	adc	r25, r21
    36b8:	0e 94 5e 29 	call	0x52bc	;  0x52bc
    36bc:	9c 01       	movw	r18, r24
    36be:	00 97       	sbiw	r24, 0x00	; 0
    36c0:	19 f4       	brne	.+6      	;  0x36c8
    36c2:	2f ef       	ldi	r18, 0xFF	; 255
    36c4:	3f ef       	ldi	r19, 0xFF	; 255
    36c6:	02 c0       	rjmp	.+4      	;  0x36cc
    36c8:	2c 1b       	sub	r18, r28
    36ca:	3d 0b       	sbc	r19, r29
    36cc:	c9 01       	movw	r24, r18
    36ce:	df 91       	pop	r29
    36d0:	cf 91       	pop	r28
    36d2:	08 95       	ret
    36d4:	40 e0       	ldi	r20, 0x00	; 0
    36d6:	50 e0       	ldi	r21, 0x00	; 0
    36d8:	0e 94 4c 1b 	call	0x3698	;  0x3698
    36dc:	08 95       	ret
    36de:	cf 93       	push	r28
    36e0:	df 93       	push	r29
    36e2:	fc 01       	movw	r30, r24
    36e4:	84 81       	ldd	r24, Z+4	; 0x04
    36e6:	95 81       	ldd	r25, Z+5	; 0x05
    36e8:	48 17       	cp	r20, r24
    36ea:	59 07       	cpc	r21, r25
    36ec:	58 f4       	brcc	.+22     	;  0x3704
    36ee:	c0 81       	ld	r28, Z
    36f0:	d1 81       	ldd	r29, Z+1	; 0x01
    36f2:	ce 01       	movw	r24, r28
    36f4:	84 0f       	add	r24, r20
    36f6:	95 1f       	adc	r25, r21
    36f8:	70 e0       	ldi	r23, 0x00	; 0
    36fa:	0e 94 1b 29 	call	0x5236	;  0x5236
    36fe:	9c 01       	movw	r18, r24
    3700:	00 97       	sbiw	r24, 0x00	; 0
    3702:	19 f4       	brne	.+6      	;  0x370a
    3704:	2f ef       	ldi	r18, 0xFF	; 255
    3706:	3f ef       	ldi	r19, 0xFF	; 255
    3708:	02 c0       	rjmp	.+4      	;  0x370e
    370a:	2c 1b       	sub	r18, r28
    370c:	3d 0b       	sbc	r19, r29
    370e:	c9 01       	movw	r24, r18
    3710:	df 91       	pop	r29
    3712:	cf 91       	pop	r28
    3714:	08 95       	ret
    3716:	40 e0       	ldi	r20, 0x00	; 0
    3718:	50 e0       	ldi	r21, 0x00	; 0
    371a:	0e 94 6f 1b 	call	0x36de	;  0x36de
    371e:	08 95       	ret
    3720:	dc 01       	movw	r26, r24
    3722:	fb 01       	movw	r30, r22
    3724:	14 96       	adiw	r26, 0x04	; 4
    3726:	2d 91       	ld	r18, X+
    3728:	3c 91       	ld	r19, X
    372a:	15 97       	sbiw	r26, 0x05	; 5
    372c:	84 81       	ldd	r24, Z+4	; 0x04
    372e:	95 81       	ldd	r25, Z+5	; 0x05
    3730:	28 17       	cp	r18, r24
    3732:	39 07       	cpc	r19, r25
    3734:	11 f0       	breq	.+4      	;  0x373a
    3736:	80 e0       	ldi	r24, 0x00	; 0
    3738:	08 95       	ret
    373a:	60 81       	ld	r22, Z
    373c:	71 81       	ldd	r23, Z+1	; 0x01
    373e:	8d 91       	ld	r24, X+
    3740:	9c 91       	ld	r25, X
    3742:	0e 94 26 29 	call	0x524c	;  0x524c
    3746:	9c 01       	movw	r18, r24
    3748:	80 e0       	ldi	r24, 0x00	; 0
    374a:	23 2b       	or	r18, r19
    374c:	09 f4       	brne	.+2      	;  0x3750
    374e:	81 e0       	ldi	r24, 0x01	; 1
    3750:	08 95       	ret
    3752:	fc 01       	movw	r30, r24
    3754:	db 01       	movw	r26, r22
    3756:	24 81       	ldd	r18, Z+4	; 0x04
    3758:	35 81       	ldd	r19, Z+5	; 0x05
    375a:	14 96       	adiw	r26, 0x04	; 4
    375c:	8d 91       	ld	r24, X+
    375e:	9c 91       	ld	r25, X
    3760:	15 97       	sbiw	r26, 0x05	; 5
    3762:	28 17       	cp	r18, r24
    3764:	39 07       	cpc	r19, r25
    3766:	10 f4       	brcc	.+4      	;  0x376c
    3768:	80 e0       	ldi	r24, 0x00	; 0
    376a:	08 95       	ret
    376c:	28 1b       	sub	r18, r24
    376e:	39 0b       	sbc	r19, r25
    3770:	80 81       	ld	r24, Z
    3772:	91 81       	ldd	r25, Z+1	; 0x01
    3774:	6d 91       	ld	r22, X+
    3776:	7c 91       	ld	r23, X
    3778:	82 0f       	add	r24, r18
    377a:	93 1f       	adc	r25, r19
    377c:	0e 94 26 29 	call	0x524c	;  0x524c
    3780:	9c 01       	movw	r18, r24
    3782:	80 e0       	ldi	r24, 0x00	; 0
    3784:	23 2b       	or	r18, r19
    3786:	09 f4       	brne	.+2      	;  0x378a
    3788:	81 e0       	ldi	r24, 0x01	; 1
    378a:	08 95       	ret
    378c:	dc 01       	movw	r26, r24
    378e:	fb 01       	movw	r30, r22
    3790:	60 81       	ld	r22, Z
    3792:	71 81       	ldd	r23, Z+1	; 0x01
    3794:	8d 91       	ld	r24, X+
    3796:	9c 91       	ld	r25, X
    3798:	0e 94 26 29 	call	0x524c	;  0x524c
    379c:	29 2f       	mov	r18, r25
    379e:	33 27       	eor	r19, r19
    37a0:	27 fd       	sbrc	r18, 7
    37a2:	30 95       	com	r19
    37a4:	20 95       	com	r18
    37a6:	30 95       	com	r19
    37a8:	22 27       	eor	r18, r18
    37aa:	33 0f       	add	r19, r19
    37ac:	22 1f       	adc	r18, r18
    37ae:	33 27       	eor	r19, r19
    37b0:	c9 01       	movw	r24, r18
    37b2:	08 95       	ret
    37b4:	dc 01       	movw	r26, r24
    37b6:	fb 01       	movw	r30, r22
    37b8:	60 81       	ld	r22, Z
    37ba:	71 81       	ldd	r23, Z+1	; 0x01
    37bc:	8d 91       	ld	r24, X+
    37be:	9c 91       	ld	r25, X
    37c0:	0e 94 26 29 	call	0x524c	;  0x524c
    37c4:	40 e0       	ldi	r20, 0x00	; 0
    37c6:	50 e0       	ldi	r21, 0x00	; 0
    37c8:	18 16       	cp	r1, r24
    37ca:	19 06       	cpc	r1, r25
    37cc:	14 f0       	brlt	.+4      	;  0x37d2
    37ce:	41 e0       	ldi	r20, 0x01	; 1
    37d0:	50 e0       	ldi	r21, 0x00	; 0
    37d2:	ca 01       	movw	r24, r20
    37d4:	08 95       	ret
    37d6:	dc 01       	movw	r26, r24
    37d8:	fb 01       	movw	r30, r22
    37da:	60 81       	ld	r22, Z
    37dc:	71 81       	ldd	r23, Z+1	; 0x01
    37de:	8d 91       	ld	r24, X+
    37e0:	9c 91       	ld	r25, X
    37e2:	0e 94 26 29 	call	0x524c	;  0x524c
    37e6:	40 e0       	ldi	r20, 0x00	; 0
    37e8:	50 e0       	ldi	r21, 0x00	; 0
    37ea:	18 16       	cp	r1, r24
    37ec:	19 06       	cpc	r1, r25
    37ee:	14 f4       	brge	.+4      	;  0x37f4
    37f0:	41 e0       	ldi	r20, 0x01	; 1
    37f2:	50 e0       	ldi	r21, 0x00	; 0
    37f4:	ca 01       	movw	r24, r20
    37f6:	08 95       	ret
    37f8:	dc 01       	movw	r26, r24
    37fa:	fb 01       	movw	r30, r22
    37fc:	60 81       	ld	r22, Z
    37fe:	71 81       	ldd	r23, Z+1	; 0x01
    3800:	8d 91       	ld	r24, X+
    3802:	9c 91       	ld	r25, X
    3804:	0e 94 26 29 	call	0x524c	;  0x524c
    3808:	29 2f       	mov	r18, r25
    380a:	33 27       	eor	r19, r19
    380c:	27 fd       	sbrc	r18, 7
    380e:	30 95       	com	r19
    3810:	22 27       	eor	r18, r18
    3812:	33 0f       	add	r19, r19
    3814:	22 1f       	adc	r18, r18
    3816:	33 27       	eor	r19, r19
    3818:	c9 01       	movw	r24, r18
    381a:	08 95       	ret
    381c:	dc 01       	movw	r26, r24
    381e:	fb 01       	movw	r30, r22
    3820:	14 96       	adiw	r26, 0x04	; 4
    3822:	2d 91       	ld	r18, X+
    3824:	3c 91       	ld	r19, X
    3826:	15 97       	sbiw	r26, 0x05	; 5
    3828:	84 81       	ldd	r24, Z+4	; 0x04
    382a:	95 81       	ldd	r25, Z+5	; 0x05
    382c:	28 17       	cp	r18, r24
    382e:	39 07       	cpc	r19, r25
    3830:	51 f4       	brne	.+20     	;  0x3846
    3832:	60 81       	ld	r22, Z
    3834:	71 81       	ldd	r23, Z+1	; 0x01
    3836:	8d 91       	ld	r24, X+
    3838:	9c 91       	ld	r25, X
    383a:	0e 94 26 29 	call	0x524c	;  0x524c
    383e:	9c 01       	movw	r18, r24
    3840:	80 e0       	ldi	r24, 0x00	; 0
    3842:	23 2b       	or	r18, r19
    3844:	09 f0       	breq	.+2      	;  0x3848
    3846:	81 e0       	ldi	r24, 0x01	; 1
    3848:	90 e0       	ldi	r25, 0x00	; 0
    384a:	08 95       	ret
    384c:	dc 01       	movw	r26, r24
    384e:	fb 01       	movw	r30, r22
    3850:	14 96       	adiw	r26, 0x04	; 4
    3852:	2d 91       	ld	r18, X+
    3854:	3c 91       	ld	r19, X
    3856:	15 97       	sbiw	r26, 0x05	; 5
    3858:	84 81       	ldd	r24, Z+4	; 0x04
    385a:	95 81       	ldd	r25, Z+5	; 0x05
    385c:	28 17       	cp	r18, r24
    385e:	39 07       	cpc	r19, r25
    3860:	11 f0       	breq	.+4      	;  0x3866
    3862:	80 e0       	ldi	r24, 0x00	; 0
    3864:	0b c0       	rjmp	.+22     	;  0x387c
    3866:	60 81       	ld	r22, Z
    3868:	71 81       	ldd	r23, Z+1	; 0x01
    386a:	8d 91       	ld	r24, X+
    386c:	9c 91       	ld	r25, X
    386e:	0e 94 26 29 	call	0x524c	;  0x524c
    3872:	9c 01       	movw	r18, r24
    3874:	80 e0       	ldi	r24, 0x00	; 0
    3876:	23 2b       	or	r18, r19
    3878:	09 f4       	brne	.+2      	;  0x387c
    387a:	81 e0       	ldi	r24, 0x01	; 1
    387c:	90 e0       	ldi	r25, 0x00	; 0
    387e:	08 95       	ret
    3880:	fc 01       	movw	r30, r24
    3882:	db 01       	movw	r26, r22
    3884:	6d 91       	ld	r22, X+
    3886:	7c 91       	ld	r23, X
    3888:	80 81       	ld	r24, Z
    388a:	91 81       	ldd	r25, Z+1	; 0x01
    388c:	0e 94 26 29 	call	0x524c	;  0x524c
    3890:	08 95       	ret
    3892:	0f 93       	push	r16
    3894:	1f 93       	push	r17
    3896:	cf 93       	push	r28
    3898:	df 93       	push	r29
    389a:	ec 01       	movw	r28, r24
    389c:	8b 01       	movw	r16, r22
    389e:	fb 01       	movw	r30, r22
    38a0:	64 81       	ldd	r22, Z+4	; 0x04
    38a2:	75 81       	ldd	r23, Z+5	; 0x05
    38a4:	8c 81       	ldd	r24, Y+4	; 0x04
    38a6:	9d 81       	ldd	r25, Y+5	; 0x05
    38a8:	68 0f       	add	r22, r24
    38aa:	79 1f       	adc	r23, r25
    38ac:	7d 83       	std	Y+5, r23	; 0x05
    38ae:	6c 83       	std	Y+4, r22	; 0x04
    38b0:	8a 81       	ldd	r24, Y+2	; 0x02
    38b2:	9b 81       	ldd	r25, Y+3	; 0x03
    38b4:	86 17       	cp	r24, r22
    38b6:	97 07       	cpc	r25, r23
    38b8:	b8 f4       	brcc	.+46     	;  0x38e8
    38ba:	6f 5f       	subi	r22, 0xFF	; 255
    38bc:	7f 4f       	sbci	r23, 0xFF	; 255
    38be:	88 81       	ld	r24, Y
    38c0:	99 81       	ldd	r25, Y+1	; 0x01
    38c2:	0e 94 f6 27 	call	0x4fec	;  0x4fec
    38c6:	4c 81       	ldd	r20, Y+4	; 0x04
    38c8:	5d 81       	ldd	r21, Y+5	; 0x05
    38ca:	00 97       	sbiw	r24, 0x00	; 0
    38cc:	29 f0       	breq	.+10     	;  0x38d8
    38ce:	99 83       	std	Y+1, r25	; 0x01
    38d0:	88 83       	st	Y, r24
    38d2:	5b 83       	std	Y+3, r21	; 0x03
    38d4:	4a 83       	std	Y+2, r20	; 0x02
    38d6:	08 c0       	rjmp	.+16     	;  0x38e8
    38d8:	f8 01       	movw	r30, r16
    38da:	84 81       	ldd	r24, Z+4	; 0x04
    38dc:	95 81       	ldd	r25, Z+5	; 0x05
    38de:	48 1b       	sub	r20, r24
    38e0:	59 0b       	sbc	r21, r25
    38e2:	5d 83       	std	Y+5, r21	; 0x05
    38e4:	4c 83       	std	Y+4, r20	; 0x04
    38e6:	07 c0       	rjmp	.+14     	;  0x38f6
    38e8:	f8 01       	movw	r30, r16
    38ea:	60 81       	ld	r22, Z
    38ec:	71 81       	ldd	r23, Z+1	; 0x01
    38ee:	88 81       	ld	r24, Y
    38f0:	99 81       	ldd	r25, Y+1	; 0x01
    38f2:	0e 94 10 29 	call	0x5220	;  0x5220
    38f6:	ce 01       	movw	r24, r28
    38f8:	df 91       	pop	r29
    38fa:	cf 91       	pop	r28
    38fc:	1f 91       	pop	r17
    38fe:	0f 91       	pop	r16
    3900:	08 95       	ret
    3902:	0e 94 49 1c 	call	0x3892	;  0x3892
    3906:	08 95       	ret
    3908:	cf 93       	push	r28
    390a:	df 93       	push	r29
    390c:	ec 01       	movw	r28, r24
    390e:	cb 01       	movw	r24, r22
    3910:	7b 83       	std	Y+3, r23	; 0x03
    3912:	6a 83       	std	Y+2, r22	; 0x02
    3914:	01 96       	adiw	r24, 0x01	; 1
    3916:	0e 94 f1 26 	call	0x4de2	;  0x4de2
    391a:	99 83       	std	Y+1, r25	; 0x01
    391c:	88 83       	st	Y, r24
    391e:	00 97       	sbiw	r24, 0x00	; 0
    3920:	21 f4       	brne	.+8      	;  0x392a
    3922:	1b 82       	std	Y+3, r1	; 0x03
    3924:	1a 82       	std	Y+2, r1	; 0x02
    3926:	1d 82       	std	Y+5, r1	; 0x05
    3928:	1c 82       	std	Y+4, r1	; 0x04
    392a:	df 91       	pop	r29
    392c:	cf 91       	pop	r28
    392e:	08 95       	ret
    3930:	0f 93       	push	r16
    3932:	1f 93       	push	r17
    3934:	cf 93       	push	r28
    3936:	df 93       	push	r29
    3938:	ec 01       	movw	r28, r24
    393a:	8b 01       	movw	r16, r22
    393c:	86 17       	cp	r24, r22
    393e:	97 07       	cpc	r25, r23
    3940:	09 f1       	breq	.+66     	;  0x3984
    3942:	fb 01       	movw	r30, r22
    3944:	24 81       	ldd	r18, Z+4	; 0x04
    3946:	35 81       	ldd	r19, Z+5	; 0x05
    3948:	8c 81       	ldd	r24, Y+4	; 0x04
    394a:	9d 81       	ldd	r25, Y+5	; 0x05
    394c:	82 17       	cp	r24, r18
    394e:	93 07       	cpc	r25, r19
    3950:	50 f4       	brcc	.+20     	;  0x3966
    3952:	88 81       	ld	r24, Y
    3954:	99 81       	ldd	r25, Y+1	; 0x01
    3956:	0e 94 9e 27 	call	0x4f3c	;  0x4f3c
    395a:	f8 01       	movw	r30, r16
    395c:	64 81       	ldd	r22, Z+4	; 0x04
    395e:	75 81       	ldd	r23, Z+5	; 0x05
    3960:	ce 01       	movw	r24, r28
    3962:	0e 94 84 1c 	call	0x3908	;  0x3908
    3966:	28 81       	ld	r18, Y
    3968:	39 81       	ldd	r19, Y+1	; 0x01
    396a:	21 15       	cp	r18, r1
    396c:	31 05       	cpc	r19, r1
    396e:	51 f0       	breq	.+20     	;  0x3984
    3970:	f8 01       	movw	r30, r16
    3972:	84 81       	ldd	r24, Z+4	; 0x04
    3974:	95 81       	ldd	r25, Z+5	; 0x05
    3976:	9d 83       	std	Y+5, r25	; 0x05
    3978:	8c 83       	std	Y+4, r24	; 0x04
    397a:	60 81       	ld	r22, Z
    397c:	71 81       	ldd	r23, Z+1	; 0x01
    397e:	c9 01       	movw	r24, r18
    3980:	0e 94 2f 29 	call	0x525e	;  0x525e
    3984:	ce 01       	movw	r24, r28
    3986:	df 91       	pop	r29
    3988:	cf 91       	pop	r28
    398a:	1f 91       	pop	r17
    398c:	0f 91       	pop	r16
    398e:	08 95       	ret
    3990:	1f 93       	push	r17
    3992:	cf 93       	push	r28
    3994:	df 93       	push	r29
    3996:	ec 01       	movw	r28, r24
    3998:	16 2f       	mov	r17, r22
    399a:	81 e0       	ldi	r24, 0x01	; 1
    399c:	90 e0       	ldi	r25, 0x00	; 0
    399e:	9d 83       	std	Y+5, r25	; 0x05
    39a0:	8c 83       	std	Y+4, r24	; 0x04
    39a2:	ce 01       	movw	r24, r28
    39a4:	61 e0       	ldi	r22, 0x01	; 1
    39a6:	70 e0       	ldi	r23, 0x00	; 0
    39a8:	0e 94 84 1c 	call	0x3908	;  0x3908
    39ac:	e8 81       	ld	r30, Y
    39ae:	f9 81       	ldd	r31, Y+1	; 0x01
    39b0:	30 97       	sbiw	r30, 0x00	; 0
    39b2:	21 f0       	breq	.+8      	;  0x39bc
    39b4:	10 83       	st	Z, r17
    39b6:	e8 81       	ld	r30, Y
    39b8:	f9 81       	ldd	r31, Y+1	; 0x01
    39ba:	11 82       	std	Z+1, r1	; 0x01
    39bc:	df 91       	pop	r29
    39be:	cf 91       	pop	r28
    39c0:	1f 91       	pop	r17
    39c2:	08 95       	ret
    39c4:	1f 93       	push	r17
    39c6:	cf 93       	push	r28
    39c8:	df 93       	push	r29
    39ca:	ec 01       	movw	r28, r24
    39cc:	16 2f       	mov	r17, r22
    39ce:	81 e0       	ldi	r24, 0x01	; 1
    39d0:	90 e0       	ldi	r25, 0x00	; 0
    39d2:	9d 83       	std	Y+5, r25	; 0x05
    39d4:	8c 83       	std	Y+4, r24	; 0x04
    39d6:	ce 01       	movw	r24, r28
    39d8:	61 e0       	ldi	r22, 0x01	; 1
    39da:	70 e0       	ldi	r23, 0x00	; 0
    39dc:	0e 94 84 1c 	call	0x3908	;  0x3908
    39e0:	e8 81       	ld	r30, Y
    39e2:	f9 81       	ldd	r31, Y+1	; 0x01
    39e4:	30 97       	sbiw	r30, 0x00	; 0
    39e6:	21 f0       	breq	.+8      	;  0x39f0
    39e8:	10 83       	st	Z, r17
    39ea:	e8 81       	ld	r30, Y
    39ec:	f9 81       	ldd	r31, Y+1	; 0x01
    39ee:	11 82       	std	Z+1, r1	; 0x01
    39f0:	df 91       	pop	r29
    39f2:	cf 91       	pop	r28
    39f4:	1f 91       	pop	r17
    39f6:	08 95       	ret
    39f8:	1f 93       	push	r17
    39fa:	cf 93       	push	r28
    39fc:	df 93       	push	r29
    39fe:	ec 01       	movw	r28, r24
    3a00:	16 2f       	mov	r17, r22
    3a02:	81 e0       	ldi	r24, 0x01	; 1
    3a04:	90 e0       	ldi	r25, 0x00	; 0
    3a06:	9d 83       	std	Y+5, r25	; 0x05
    3a08:	8c 83       	std	Y+4, r24	; 0x04
    3a0a:	ce 01       	movw	r24, r28
    3a0c:	61 e0       	ldi	r22, 0x01	; 1
    3a0e:	70 e0       	ldi	r23, 0x00	; 0
    3a10:	0e 94 84 1c 	call	0x3908	;  0x3908
    3a14:	e8 81       	ld	r30, Y
    3a16:	f9 81       	ldd	r31, Y+1	; 0x01
    3a18:	30 97       	sbiw	r30, 0x00	; 0
    3a1a:	21 f0       	breq	.+8      	;  0x3a24
    3a1c:	10 83       	st	Z, r17
    3a1e:	e8 81       	ld	r30, Y
    3a20:	f9 81       	ldd	r31, Y+1	; 0x01
    3a22:	11 82       	std	Z+1, r1	; 0x01
    3a24:	df 91       	pop	r29
    3a26:	cf 91       	pop	r28
    3a28:	1f 91       	pop	r17
    3a2a:	08 95       	ret
    3a2c:	1f 93       	push	r17
    3a2e:	cf 93       	push	r28
    3a30:	df 93       	push	r29
    3a32:	ec 01       	movw	r28, r24
    3a34:	16 2f       	mov	r17, r22
    3a36:	81 e0       	ldi	r24, 0x01	; 1
    3a38:	90 e0       	ldi	r25, 0x00	; 0
    3a3a:	9d 83       	std	Y+5, r25	; 0x05
    3a3c:	8c 83       	std	Y+4, r24	; 0x04
    3a3e:	ce 01       	movw	r24, r28
    3a40:	61 e0       	ldi	r22, 0x01	; 1
    3a42:	70 e0       	ldi	r23, 0x00	; 0
    3a44:	0e 94 84 1c 	call	0x3908	;  0x3908
    3a48:	e8 81       	ld	r30, Y
    3a4a:	f9 81       	ldd	r31, Y+1	; 0x01
    3a4c:	30 97       	sbiw	r30, 0x00	; 0
    3a4e:	21 f0       	breq	.+8      	;  0x3a58
    3a50:	10 83       	st	Z, r17
    3a52:	e8 81       	ld	r30, Y
    3a54:	f9 81       	ldd	r31, Y+1	; 0x01
    3a56:	11 82       	std	Z+1, r1	; 0x01
    3a58:	df 91       	pop	r29
    3a5a:	cf 91       	pop	r28
    3a5c:	1f 91       	pop	r17
    3a5e:	08 95       	ret
    3a60:	0f 93       	push	r16
    3a62:	1f 93       	push	r17
    3a64:	cf 93       	push	r28
    3a66:	df 93       	push	r29
    3a68:	8c 01       	movw	r16, r24
    3a6a:	eb 01       	movw	r28, r22
    3a6c:	6c 81       	ldd	r22, Y+4	; 0x04
    3a6e:	7d 81       	ldd	r23, Y+5	; 0x05
    3a70:	fc 01       	movw	r30, r24
    3a72:	75 83       	std	Z+5, r23	; 0x05
    3a74:	64 83       	std	Z+4, r22	; 0x04
    3a76:	0e 94 84 1c 	call	0x3908	;  0x3908
    3a7a:	f8 01       	movw	r30, r16
    3a7c:	80 81       	ld	r24, Z
    3a7e:	91 81       	ldd	r25, Z+1	; 0x01
    3a80:	00 97       	sbiw	r24, 0x00	; 0
    3a82:	21 f0       	breq	.+8      	;  0x3a8c
    3a84:	68 81       	ld	r22, Y
    3a86:	79 81       	ldd	r23, Y+1	; 0x01
    3a88:	0e 94 2f 29 	call	0x525e	;  0x525e
    3a8c:	df 91       	pop	r29
    3a8e:	cf 91       	pop	r28
    3a90:	1f 91       	pop	r17
    3a92:	0f 91       	pop	r16
    3a94:	08 95       	ret
    3a96:	0f 93       	push	r16
    3a98:	1f 93       	push	r17
    3a9a:	cf 93       	push	r28
    3a9c:	df 93       	push	r29
    3a9e:	8c 01       	movw	r16, r24
    3aa0:	eb 01       	movw	r28, r22
    3aa2:	6c 81       	ldd	r22, Y+4	; 0x04
    3aa4:	7d 81       	ldd	r23, Y+5	; 0x05
    3aa6:	fc 01       	movw	r30, r24
    3aa8:	75 83       	std	Z+5, r23	; 0x05
    3aaa:	64 83       	std	Z+4, r22	; 0x04
    3aac:	0e 94 84 1c 	call	0x3908	;  0x3908
    3ab0:	f8 01       	movw	r30, r16
    3ab2:	80 81       	ld	r24, Z
    3ab4:	91 81       	ldd	r25, Z+1	; 0x01
    3ab6:	00 97       	sbiw	r24, 0x00	; 0
    3ab8:	21 f0       	breq	.+8      	;  0x3ac2
    3aba:	68 81       	ld	r22, Y
    3abc:	79 81       	ldd	r23, Y+1	; 0x01
    3abe:	0e 94 2f 29 	call	0x525e	;  0x525e
    3ac2:	df 91       	pop	r29
    3ac4:	cf 91       	pop	r28
    3ac6:	1f 91       	pop	r17
    3ac8:	0f 91       	pop	r16
    3aca:	08 95       	ret
    3acc:	ef 92       	push	r14
    3ace:	ff 92       	push	r15
    3ad0:	0f 93       	push	r16
    3ad2:	1f 93       	push	r17
    3ad4:	df 93       	push	r29
    3ad6:	cf 93       	push	r28
    3ad8:	cd b7       	in	r28, 0x3d	; 61
    3ada:	de b7       	in	r29, 0x3e	; 62
    3adc:	a1 97       	sbiw	r28, 0x21	; 33
    3ade:	0f b6       	in	r0, 0x3f	; 63
    3ae0:	f8 94       	cli
    3ae2:	de bf       	out	0x3e, r29	; 62
    3ae4:	0f be       	out	0x3f, r0	; 63
    3ae6:	cd bf       	out	0x3d, r28	; 61
    3ae8:	8c 01       	movw	r16, r24
    3aea:	cb 01       	movw	r24, r22
    3aec:	ba 01       	movw	r22, r20
    3aee:	7e 01       	movw	r14, r28
    3af0:	08 94       	sec
    3af2:	e1 1c       	adc	r14, r1
    3af4:	f1 1c       	adc	r15, r1
    3af6:	a7 01       	movw	r20, r14
    3af8:	2a e0       	ldi	r18, 0x0A	; 10
    3afa:	30 e0       	ldi	r19, 0x00	; 0
    3afc:	0e 94 e2 29 	call	0x53c4	;  0x53c4
    3b00:	f7 01       	movw	r30, r14
    3b02:	01 90       	ld	r0, Z+
    3b04:	00 20       	and	r0, r0
    3b06:	e9 f7       	brne	.-6      	;  0x3b02
    3b08:	31 97       	sbiw	r30, 0x01	; 1
    3b0a:	ee 19       	sub	r30, r14
    3b0c:	ff 09       	sbc	r31, r15
    3b0e:	d8 01       	movw	r26, r16
    3b10:	15 96       	adiw	r26, 0x05	; 5
    3b12:	fc 93       	st	X, r31
    3b14:	ee 93       	st	-X, r30
    3b16:	14 97       	sbiw	r26, 0x04	; 4
    3b18:	c8 01       	movw	r24, r16
    3b1a:	bf 01       	movw	r22, r30
    3b1c:	0e 94 84 1c 	call	0x3908	;  0x3908
    3b20:	f8 01       	movw	r30, r16
    3b22:	80 81       	ld	r24, Z
    3b24:	91 81       	ldd	r25, Z+1	; 0x01
    3b26:	00 97       	sbiw	r24, 0x00	; 0
    3b28:	19 f0       	breq	.+6      	;  0x3b30
    3b2a:	b7 01       	movw	r22, r14
    3b2c:	0e 94 2f 29 	call	0x525e	;  0x525e
    3b30:	a1 96       	adiw	r28, 0x21	; 33
    3b32:	0f b6       	in	r0, 0x3f	; 63
    3b34:	f8 94       	cli
    3b36:	de bf       	out	0x3e, r29	; 62
    3b38:	0f be       	out	0x3f, r0	; 63
    3b3a:	cd bf       	out	0x3d, r28	; 61
    3b3c:	cf 91       	pop	r28
    3b3e:	df 91       	pop	r29
    3b40:	1f 91       	pop	r17
    3b42:	0f 91       	pop	r16
    3b44:	ff 90       	pop	r15
    3b46:	ef 90       	pop	r14
    3b48:	08 95       	ret
    3b4a:	ef 92       	push	r14
    3b4c:	ff 92       	push	r15
    3b4e:	0f 93       	push	r16
    3b50:	1f 93       	push	r17
    3b52:	df 93       	push	r29
    3b54:	cf 93       	push	r28
    3b56:	cd b7       	in	r28, 0x3d	; 61
    3b58:	de b7       	in	r29, 0x3e	; 62
    3b5a:	a1 97       	sbiw	r28, 0x21	; 33
    3b5c:	0f b6       	in	r0, 0x3f	; 63
    3b5e:	f8 94       	cli
    3b60:	de bf       	out	0x3e, r29	; 62
    3b62:	0f be       	out	0x3f, r0	; 63
    3b64:	cd bf       	out	0x3d, r28	; 61
    3b66:	8c 01       	movw	r16, r24
    3b68:	cb 01       	movw	r24, r22
    3b6a:	ba 01       	movw	r22, r20
    3b6c:	7e 01       	movw	r14, r28
    3b6e:	08 94       	sec
    3b70:	e1 1c       	adc	r14, r1
    3b72:	f1 1c       	adc	r15, r1
    3b74:	a7 01       	movw	r20, r14
    3b76:	2a e0       	ldi	r18, 0x0A	; 10
    3b78:	30 e0       	ldi	r19, 0x00	; 0
    3b7a:	0e 94 e2 29 	call	0x53c4	;  0x53c4
    3b7e:	f7 01       	movw	r30, r14
    3b80:	01 90       	ld	r0, Z+
    3b82:	00 20       	and	r0, r0
    3b84:	e9 f7       	brne	.-6      	;  0x3b80
    3b86:	31 97       	sbiw	r30, 0x01	; 1
    3b88:	ee 19       	sub	r30, r14
    3b8a:	ff 09       	sbc	r31, r15
    3b8c:	d8 01       	movw	r26, r16
    3b8e:	15 96       	adiw	r26, 0x05	; 5
    3b90:	fc 93       	st	X, r31
    3b92:	ee 93       	st	-X, r30
    3b94:	14 97       	sbiw	r26, 0x04	; 4
    3b96:	c8 01       	movw	r24, r16
    3b98:	bf 01       	movw	r22, r30
    3b9a:	0e 94 84 1c 	call	0x3908	;  0x3908
    3b9e:	f8 01       	movw	r30, r16
    3ba0:	80 81       	ld	r24, Z
    3ba2:	91 81       	ldd	r25, Z+1	; 0x01
    3ba4:	00 97       	sbiw	r24, 0x00	; 0
    3ba6:	19 f0       	breq	.+6      	;  0x3bae
    3ba8:	b7 01       	movw	r22, r14
    3baa:	0e 94 2f 29 	call	0x525e	;  0x525e
    3bae:	a1 96       	adiw	r28, 0x21	; 33
    3bb0:	0f b6       	in	r0, 0x3f	; 63
    3bb2:	f8 94       	cli
    3bb4:	de bf       	out	0x3e, r29	; 62
    3bb6:	0f be       	out	0x3f, r0	; 63
    3bb8:	cd bf       	out	0x3d, r28	; 61
    3bba:	cf 91       	pop	r28
    3bbc:	df 91       	pop	r29
    3bbe:	1f 91       	pop	r17
    3bc0:	0f 91       	pop	r16
    3bc2:	ff 90       	pop	r15
    3bc4:	ef 90       	pop	r14
    3bc6:	08 95       	ret
    3bc8:	ef 92       	push	r14
    3bca:	ff 92       	push	r15
    3bcc:	0f 93       	push	r16
    3bce:	1f 93       	push	r17
    3bd0:	df 93       	push	r29
    3bd2:	cf 93       	push	r28
    3bd4:	cd b7       	in	r28, 0x3d	; 61
    3bd6:	de b7       	in	r29, 0x3e	; 62
    3bd8:	a1 97       	sbiw	r28, 0x21	; 33
    3bda:	0f b6       	in	r0, 0x3f	; 63
    3bdc:	f8 94       	cli
    3bde:	de bf       	out	0x3e, r29	; 62
    3be0:	0f be       	out	0x3f, r0	; 63
    3be2:	cd bf       	out	0x3d, r28	; 61
    3be4:	8c 01       	movw	r16, r24
    3be6:	9a 01       	movw	r18, r20
    3be8:	80 e0       	ldi	r24, 0x00	; 0
    3bea:	90 e0       	ldi	r25, 0x00	; 0
    3bec:	7e 01       	movw	r14, r28
    3bee:	08 94       	sec
    3bf0:	e1 1c       	adc	r14, r1
    3bf2:	f1 1c       	adc	r15, r1
    3bf4:	a7 01       	movw	r20, r14
    3bf6:	0e 94 e2 29 	call	0x53c4	;  0x53c4
    3bfa:	f7 01       	movw	r30, r14
    3bfc:	01 90       	ld	r0, Z+
    3bfe:	00 20       	and	r0, r0
    3c00:	e9 f7       	brne	.-6      	;  0x3bfc
    3c02:	31 97       	sbiw	r30, 0x01	; 1
    3c04:	ee 19       	sub	r30, r14
    3c06:	ff 09       	sbc	r31, r15
    3c08:	d8 01       	movw	r26, r16
    3c0a:	15 96       	adiw	r26, 0x05	; 5
    3c0c:	fc 93       	st	X, r31
    3c0e:	ee 93       	st	-X, r30
    3c10:	14 97       	sbiw	r26, 0x04	; 4
    3c12:	c8 01       	movw	r24, r16
    3c14:	bf 01       	movw	r22, r30
    3c16:	0e 94 84 1c 	call	0x3908	;  0x3908
    3c1a:	f8 01       	movw	r30, r16
    3c1c:	80 81       	ld	r24, Z
    3c1e:	91 81       	ldd	r25, Z+1	; 0x01
    3c20:	00 97       	sbiw	r24, 0x00	; 0
    3c22:	19 f0       	breq	.+6      	;  0x3c2a
    3c24:	b7 01       	movw	r22, r14
    3c26:	0e 94 2f 29 	call	0x525e	;  0x525e
    3c2a:	a1 96       	adiw	r28, 0x21	; 33
    3c2c:	0f b6       	in	r0, 0x3f	; 63
    3c2e:	f8 94       	cli
    3c30:	de bf       	out	0x3e, r29	; 62
    3c32:	0f be       	out	0x3f, r0	; 63
    3c34:	cd bf       	out	0x3d, r28	; 61
    3c36:	cf 91       	pop	r28
    3c38:	df 91       	pop	r29
    3c3a:	1f 91       	pop	r17
    3c3c:	0f 91       	pop	r16
    3c3e:	ff 90       	pop	r15
    3c40:	ef 90       	pop	r14
    3c42:	08 95       	ret
    3c44:	ef 92       	push	r14
    3c46:	ff 92       	push	r15
    3c48:	0f 93       	push	r16
    3c4a:	1f 93       	push	r17
    3c4c:	df 93       	push	r29
    3c4e:	cf 93       	push	r28
    3c50:	cd b7       	in	r28, 0x3d	; 61
    3c52:	de b7       	in	r29, 0x3e	; 62
    3c54:	a1 97       	sbiw	r28, 0x21	; 33
    3c56:	0f b6       	in	r0, 0x3f	; 63
    3c58:	f8 94       	cli
    3c5a:	de bf       	out	0x3e, r29	; 62
    3c5c:	0f be       	out	0x3f, r0	; 63
    3c5e:	cd bf       	out	0x3d, r28	; 61
    3c60:	8c 01       	movw	r16, r24
    3c62:	9a 01       	movw	r18, r20
    3c64:	80 e0       	ldi	r24, 0x00	; 0
    3c66:	90 e0       	ldi	r25, 0x00	; 0
    3c68:	7e 01       	movw	r14, r28
    3c6a:	08 94       	sec
    3c6c:	e1 1c       	adc	r14, r1
    3c6e:	f1 1c       	adc	r15, r1
    3c70:	a7 01       	movw	r20, r14
    3c72:	0e 94 e2 29 	call	0x53c4	;  0x53c4
    3c76:	f7 01       	movw	r30, r14
    3c78:	01 90       	ld	r0, Z+
    3c7a:	00 20       	and	r0, r0
    3c7c:	e9 f7       	brne	.-6      	;  0x3c78
    3c7e:	31 97       	sbiw	r30, 0x01	; 1
    3c80:	ee 19       	sub	r30, r14
    3c82:	ff 09       	sbc	r31, r15
    3c84:	d8 01       	movw	r26, r16
    3c86:	15 96       	adiw	r26, 0x05	; 5
    3c88:	fc 93       	st	X, r31
    3c8a:	ee 93       	st	-X, r30
    3c8c:	14 97       	sbiw	r26, 0x04	; 4
    3c8e:	c8 01       	movw	r24, r16
    3c90:	bf 01       	movw	r22, r30
    3c92:	0e 94 84 1c 	call	0x3908	;  0x3908
    3c96:	f8 01       	movw	r30, r16
    3c98:	80 81       	ld	r24, Z
    3c9a:	91 81       	ldd	r25, Z+1	; 0x01
    3c9c:	00 97       	sbiw	r24, 0x00	; 0
    3c9e:	19 f0       	breq	.+6      	;  0x3ca6
    3ca0:	b7 01       	movw	r22, r14
    3ca2:	0e 94 2f 29 	call	0x525e	;  0x525e
    3ca6:	a1 96       	adiw	r28, 0x21	; 33
    3ca8:	0f b6       	in	r0, 0x3f	; 63
    3caa:	f8 94       	cli
    3cac:	de bf       	out	0x3e, r29	; 62
    3cae:	0f be       	out	0x3f, r0	; 63
    3cb0:	cd bf       	out	0x3d, r28	; 61
    3cb2:	cf 91       	pop	r28
    3cb4:	df 91       	pop	r29
    3cb6:	1f 91       	pop	r17
    3cb8:	0f 91       	pop	r16
    3cba:	ff 90       	pop	r15
    3cbc:	ef 90       	pop	r14
    3cbe:	08 95       	ret
    3cc0:	0f 93       	push	r16
    3cc2:	1f 93       	push	r17
    3cc4:	cf 93       	push	r28
    3cc6:	df 93       	push	r29
    3cc8:	8c 01       	movw	r16, r24
    3cca:	eb 01       	movw	r28, r22
    3ccc:	61 15       	cp	r22, r1
    3cce:	71 05       	cpc	r23, r1
    3cd0:	11 f4       	brne	.+4      	;  0x3cd6
    3cd2:	ce e7       	ldi	r28, 0x7E	; 126
    3cd4:	d5 e0       	ldi	r29, 0x05	; 5
    3cd6:	fe 01       	movw	r30, r28
    3cd8:	01 90       	ld	r0, Z+
    3cda:	00 20       	and	r0, r0
    3cdc:	e9 f7       	brne	.-6      	;  0x3cd8
    3cde:	31 97       	sbiw	r30, 0x01	; 1
    3ce0:	ec 1b       	sub	r30, r28
    3ce2:	fd 0b       	sbc	r31, r29
    3ce4:	d8 01       	movw	r26, r16
    3ce6:	15 96       	adiw	r26, 0x05	; 5
    3ce8:	fc 93       	st	X, r31
    3cea:	ee 93       	st	-X, r30
    3cec:	14 97       	sbiw	r26, 0x04	; 4
    3cee:	c8 01       	movw	r24, r16
    3cf0:	bf 01       	movw	r22, r30
    3cf2:	0e 94 84 1c 	call	0x3908	;  0x3908
    3cf6:	f8 01       	movw	r30, r16
    3cf8:	80 81       	ld	r24, Z
    3cfa:	91 81       	ldd	r25, Z+1	; 0x01
    3cfc:	00 97       	sbiw	r24, 0x00	; 0
    3cfe:	19 f0       	breq	.+6      	;  0x3d06
    3d00:	be 01       	movw	r22, r28
    3d02:	0e 94 2f 29 	call	0x525e	;  0x525e
    3d06:	df 91       	pop	r29
    3d08:	cf 91       	pop	r28
    3d0a:	1f 91       	pop	r17
    3d0c:	0f 91       	pop	r16
    3d0e:	08 95       	ret
    3d10:	af 92       	push	r10
    3d12:	bf 92       	push	r11
    3d14:	cf 92       	push	r12
    3d16:	df 92       	push	r13
    3d18:	ef 92       	push	r14
    3d1a:	ff 92       	push	r15
    3d1c:	0f 93       	push	r16
    3d1e:	1f 93       	push	r17
    3d20:	cf 93       	push	r28
    3d22:	df 93       	push	r29
    3d24:	b8 2e       	mov	r11, r24
    3d26:	a9 2e       	mov	r10, r25
    3d28:	6b 01       	movw	r12, r22
    3d2a:	c8 2f       	mov	r28, r24
    3d2c:	d9 2f       	mov	r29, r25
    3d2e:	fb 01       	movw	r30, r22
    3d30:	60 81       	ld	r22, Z
    3d32:	71 81       	ldd	r23, Z+1	; 0x01
    3d34:	ce 01       	movw	r24, r28
    3d36:	0e 94 60 1e 	call	0x3cc0	;  0x3cc0
    3d3a:	ee 24       	eor	r14, r14
    3d3c:	ff 24       	eor	r15, r15
    3d3e:	0e c0       	rjmp	.+28     	;  0x3d5c
    3d40:	08 81       	ld	r16, Y
    3d42:	19 81       	ldd	r17, Y+1	; 0x01
    3d44:	0e 0d       	add	r16, r14
    3d46:	1f 1d       	adc	r17, r15
    3d48:	f8 01       	movw	r30, r16
    3d4a:	80 81       	ld	r24, Z
    3d4c:	90 e0       	ldi	r25, 0x00	; 0
    3d4e:	0e 94 ff 28 	call	0x51fe	;  0x51fe
    3d52:	f8 01       	movw	r30, r16
    3d54:	80 83       	st	Z, r24
    3d56:	08 94       	sec
    3d58:	e1 1c       	adc	r14, r1
    3d5a:	f1 1c       	adc	r15, r1
    3d5c:	f6 01       	movw	r30, r12
    3d5e:	84 81       	ldd	r24, Z+4	; 0x04
    3d60:	95 81       	ldd	r25, Z+5	; 0x05
    3d62:	e8 16       	cp	r14, r24
    3d64:	f9 06       	cpc	r15, r25
    3d66:	60 f3       	brcs	.-40     	;  0x3d40
    3d68:	8b 2d       	mov	r24, r11
    3d6a:	9a 2d       	mov	r25, r10
    3d6c:	df 91       	pop	r29
    3d6e:	cf 91       	pop	r28
    3d70:	1f 91       	pop	r17
    3d72:	0f 91       	pop	r16
    3d74:	ff 90       	pop	r15
    3d76:	ef 90       	pop	r14
    3d78:	df 90       	pop	r13
    3d7a:	cf 90       	pop	r12
    3d7c:	bf 90       	pop	r11
    3d7e:	af 90       	pop	r10
    3d80:	08 95       	ret
    3d82:	af 92       	push	r10
    3d84:	bf 92       	push	r11
    3d86:	cf 92       	push	r12
    3d88:	df 92       	push	r13
    3d8a:	ef 92       	push	r14
    3d8c:	ff 92       	push	r15
    3d8e:	0f 93       	push	r16
    3d90:	1f 93       	push	r17
    3d92:	cf 93       	push	r28
    3d94:	df 93       	push	r29
    3d96:	b8 2e       	mov	r11, r24
    3d98:	a9 2e       	mov	r10, r25
    3d9a:	6b 01       	movw	r12, r22
    3d9c:	c8 2f       	mov	r28, r24
    3d9e:	d9 2f       	mov	r29, r25
    3da0:	fb 01       	movw	r30, r22
    3da2:	60 81       	ld	r22, Z
    3da4:	71 81       	ldd	r23, Z+1	; 0x01
    3da6:	ce 01       	movw	r24, r28
    3da8:	0e 94 60 1e 	call	0x3cc0	;  0x3cc0
    3dac:	ee 24       	eor	r14, r14
    3dae:	ff 24       	eor	r15, r15
    3db0:	0e c0       	rjmp	.+28     	;  0x3dce
    3db2:	08 81       	ld	r16, Y
    3db4:	19 81       	ldd	r17, Y+1	; 0x01
    3db6:	0e 0d       	add	r16, r14
    3db8:	1f 1d       	adc	r17, r15
    3dba:	f8 01       	movw	r30, r16
    3dbc:	80 81       	ld	r24, Z
    3dbe:	90 e0       	ldi	r25, 0x00	; 0
    3dc0:	0e 94 f7 28 	call	0x51ee	;  0x51ee
    3dc4:	f8 01       	movw	r30, r16
    3dc6:	80 83       	st	Z, r24
    3dc8:	08 94       	sec
    3dca:	e1 1c       	adc	r14, r1
    3dcc:	f1 1c       	adc	r15, r1
    3dce:	f6 01       	movw	r30, r12
    3dd0:	84 81       	ldd	r24, Z+4	; 0x04
    3dd2:	95 81       	ldd	r25, Z+5	; 0x05
    3dd4:	e8 16       	cp	r14, r24
    3dd6:	f9 06       	cpc	r15, r25
    3dd8:	60 f3       	brcs	.-40     	;  0x3db2
    3dda:	8b 2d       	mov	r24, r11
    3ddc:	9a 2d       	mov	r25, r10
    3dde:	df 91       	pop	r29
    3de0:	cf 91       	pop	r28
    3de2:	1f 91       	pop	r17
    3de4:	0f 91       	pop	r16
    3de6:	ff 90       	pop	r15
    3de8:	ef 90       	pop	r14
    3dea:	df 90       	pop	r13
    3dec:	cf 90       	pop	r12
    3dee:	bf 90       	pop	r11
    3df0:	af 90       	pop	r10
    3df2:	08 95       	ret
    3df4:	ef 92       	push	r14
    3df6:	ff 92       	push	r15
    3df8:	0f 93       	push	r16
    3dfa:	1f 93       	push	r17
    3dfc:	df 93       	push	r29
    3dfe:	cf 93       	push	r28
    3e00:	cd b7       	in	r28, 0x3d	; 61
    3e02:	de b7       	in	r29, 0x3e	; 62
    3e04:	2c 97       	sbiw	r28, 0x0c	; 12
    3e06:	0f b6       	in	r0, 0x3f	; 63
    3e08:	f8 94       	cli
    3e0a:	de bf       	out	0x3e, r29	; 62
    3e0c:	0f be       	out	0x3f, r0	; 63
    3e0e:	cd bf       	out	0x3d, r28	; 61
    3e10:	fc 01       	movw	r30, r24
    3e12:	7b 01       	movw	r14, r22
    3e14:	86 17       	cp	r24, r22
    3e16:	97 07       	cpc	r25, r23
    3e18:	11 f4       	brne	.+4      	;  0x3e1e
    3e1a:	01 e0       	ldi	r16, 0x01	; 1
    3e1c:	29 c0       	rjmp	.+82     	;  0x3e70
    3e1e:	24 81       	ldd	r18, Z+4	; 0x04
    3e20:	35 81       	ldd	r19, Z+5	; 0x05
    3e22:	db 01       	movw	r26, r22
    3e24:	14 96       	adiw	r26, 0x04	; 4
    3e26:	8d 91       	ld	r24, X+
    3e28:	9c 91       	ld	r25, X
    3e2a:	15 97       	sbiw	r26, 0x05	; 5
    3e2c:	28 17       	cp	r18, r24
    3e2e:	39 07       	cpc	r19, r25
    3e30:	11 f0       	breq	.+4      	;  0x3e36
    3e32:	00 e0       	ldi	r16, 0x00	; 0
    3e34:	1d c0       	rjmp	.+58     	;  0x3e70
    3e36:	ce 01       	movw	r24, r28
    3e38:	01 96       	adiw	r24, 0x01	; 1
    3e3a:	bf 01       	movw	r22, r30
    3e3c:	0e 94 c1 1e 	call	0x3d82	;  0x3d82
    3e40:	09 81       	ldd	r16, Y+1	; 0x01
    3e42:	1a 81       	ldd	r17, Y+2	; 0x02
    3e44:	ce 01       	movw	r24, r28
    3e46:	07 96       	adiw	r24, 0x07	; 7
    3e48:	b7 01       	movw	r22, r14
    3e4a:	0e 94 c1 1e 	call	0x3d82	;  0x3d82
    3e4e:	6f 81       	ldd	r22, Y+7	; 0x07
    3e50:	78 85       	ldd	r23, Y+8	; 0x08
    3e52:	c8 01       	movw	r24, r16
    3e54:	0e 94 26 29 	call	0x524c	;  0x524c
    3e58:	00 e0       	ldi	r16, 0x00	; 0
    3e5a:	00 97       	sbiw	r24, 0x00	; 0
    3e5c:	09 f4       	brne	.+2      	;  0x3e60
    3e5e:	01 e0       	ldi	r16, 0x01	; 1
    3e60:	ce 01       	movw	r24, r28
    3e62:	07 96       	adiw	r24, 0x07	; 7
    3e64:	0e 94 ce 1a 	call	0x359c	;  0x359c
    3e68:	ce 01       	movw	r24, r28
    3e6a:	01 96       	adiw	r24, 0x01	; 1
    3e6c:	0e 94 ce 1a 	call	0x359c	;  0x359c
    3e70:	80 2f       	mov	r24, r16
    3e72:	2c 96       	adiw	r28, 0x0c	; 12
    3e74:	0f b6       	in	r0, 0x3f	; 63
    3e76:	f8 94       	cli
    3e78:	de bf       	out	0x3e, r29	; 62
    3e7a:	0f be       	out	0x3f, r0	; 63
    3e7c:	cd bf       	out	0x3d, r28	; 61
    3e7e:	cf 91       	pop	r28
    3e80:	df 91       	pop	r29
    3e82:	1f 91       	pop	r17
    3e84:	0f 91       	pop	r16
    3e86:	ff 90       	pop	r15
    3e88:	ef 90       	pop	r14
    3e8a:	08 95       	ret
    3e8c:	cf 92       	push	r12
    3e8e:	df 92       	push	r13
    3e90:	ef 92       	push	r14
    3e92:	ff 92       	push	r15
    3e94:	1f 93       	push	r17
    3e96:	cf 93       	push	r28
    3e98:	df 93       	push	r29
    3e9a:	6c 01       	movw	r12, r24
    3e9c:	7b 01       	movw	r14, r22
    3e9e:	b9 01       	movw	r22, r18
    3ea0:	24 17       	cp	r18, r20
    3ea2:	35 07       	cpc	r19, r21
    3ea4:	10 f4       	brcc	.+4      	;  0x3eaa
    3ea6:	ba 01       	movw	r22, r20
    3ea8:	a9 01       	movw	r20, r18
    3eaa:	d7 01       	movw	r26, r14
    3eac:	14 96       	adiw	r26, 0x04	; 4
    3eae:	8d 91       	ld	r24, X+
    3eb0:	9c 91       	ld	r25, X
    3eb2:	15 97       	sbiw	r26, 0x05	; 5
    3eb4:	eb 01       	movw	r28, r22
    3eb6:	86 17       	cp	r24, r22
    3eb8:	97 07       	cpc	r25, r23
    3eba:	08 f4       	brcc	.+2      	;  0x3ebe
    3ebc:	ec 01       	movw	r28, r24
    3ebe:	d7 01       	movw	r26, r14
    3ec0:	ed 91       	ld	r30, X+
    3ec2:	fc 91       	ld	r31, X
    3ec4:	11 97       	sbiw	r26, 0x01	; 1
    3ec6:	ec 0f       	add	r30, r28
    3ec8:	fd 1f       	adc	r31, r29
    3eca:	10 81       	ld	r17, Z
    3ecc:	10 82       	st	Z, r1
    3ece:	6d 91       	ld	r22, X+
    3ed0:	7c 91       	ld	r23, X
    3ed2:	64 0f       	add	r22, r20
    3ed4:	75 1f       	adc	r23, r21
    3ed6:	c6 01       	movw	r24, r12
    3ed8:	0e 94 60 1e 	call	0x3cc0	;  0x3cc0
    3edc:	d7 01       	movw	r26, r14
    3ede:	ed 91       	ld	r30, X+
    3ee0:	fc 91       	ld	r31, X
    3ee2:	ec 0f       	add	r30, r28
    3ee4:	fd 1f       	adc	r31, r29
    3ee6:	10 83       	st	Z, r17
    3ee8:	c6 01       	movw	r24, r12
    3eea:	df 91       	pop	r29
    3eec:	cf 91       	pop	r28
    3eee:	1f 91       	pop	r17
    3ef0:	ff 90       	pop	r15
    3ef2:	ef 90       	pop	r14
    3ef4:	df 90       	pop	r13
    3ef6:	cf 90       	pop	r12
    3ef8:	08 95       	ret
    3efa:	0f 93       	push	r16
    3efc:	1f 93       	push	r17
    3efe:	8c 01       	movw	r16, r24
    3f00:	fb 01       	movw	r30, r22
    3f02:	24 81       	ldd	r18, Z+4	; 0x04
    3f04:	35 81       	ldd	r19, Z+5	; 0x05
    3f06:	0e 94 46 1f 	call	0x3e8c	;  0x3e8c
    3f0a:	c8 01       	movw	r24, r16
    3f0c:	1f 91       	pop	r17
    3f0e:	0f 91       	pop	r16
    3f10:	08 95       	ret
    3f12:	8f 92       	push	r8
    3f14:	9f 92       	push	r9
    3f16:	af 92       	push	r10
    3f18:	bf 92       	push	r11
    3f1a:	cf 92       	push	r12
    3f1c:	df 92       	push	r13
    3f1e:	ef 92       	push	r14
    3f20:	ff 92       	push	r15
    3f22:	0f 93       	push	r16
    3f24:	1f 93       	push	r17
    3f26:	df 93       	push	r29
    3f28:	cf 93       	push	r28
    3f2a:	00 d0       	rcall	.+0      	;  0x3f2c
    3f2c:	00 d0       	rcall	.+0      	;  0x3f2e
    3f2e:	00 d0       	rcall	.+0      	;  0x3f30
    3f30:	cd b7       	in	r28, 0x3d	; 61
    3f32:	de b7       	in	r29, 0x3e	; 62
    3f34:	5c 01       	movw	r10, r24
    3f36:	6b 01       	movw	r12, r22
    3f38:	db 01       	movw	r26, r22
    3f3a:	14 96       	adiw	r26, 0x04	; 4
    3f3c:	8d 91       	ld	r24, X+
    3f3e:	9c 91       	ld	r25, X
    3f40:	15 97       	sbiw	r26, 0x05	; 5
    3f42:	00 97       	sbiw	r24, 0x00	; 0
    3f44:	a1 f1       	breq	.+104    	;  0x3fae
    3f46:	01 97       	sbiw	r24, 0x01	; 1
    3f48:	48 17       	cp	r20, r24
    3f4a:	59 07       	cpc	r21, r25
    3f4c:	80 f1       	brcs	.+96     	;  0x3fae
    3f4e:	f5 01       	movw	r30, r10
    3f50:	84 81       	ldd	r24, Z+4	; 0x04
    3f52:	95 81       	ldd	r25, Z+5	; 0x05
    3f54:	48 17       	cp	r20, r24
    3f56:	59 07       	cpc	r21, r25
    3f58:	50 f5       	brcc	.+84     	;  0x3fae
    3f5a:	ed 91       	ld	r30, X+
    3f5c:	fc 91       	ld	r31, X
    3f5e:	00 81       	ld	r16, Z
    3f60:	7a 01       	movw	r14, r20
    3f62:	4e 01       	movw	r8, r28
    3f64:	08 94       	sec
    3f66:	81 1c       	adc	r8, r1
    3f68:	91 1c       	adc	r9, r1
    3f6a:	1f c0       	rjmp	.+62     	;  0x3faa
    3f6c:	d5 01       	movw	r26, r10
    3f6e:	ed 91       	ld	r30, X+
    3f70:	fc 91       	ld	r31, X
    3f72:	ee 0d       	add	r30, r14
    3f74:	ff 1d       	adc	r31, r15
    3f76:	80 81       	ld	r24, Z
    3f78:	80 17       	cp	r24, r16
    3f7a:	a1 f4       	brne	.+40     	;  0x3fa4
    3f7c:	f6 01       	movw	r30, r12
    3f7e:	24 81       	ldd	r18, Z+4	; 0x04
    3f80:	35 81       	ldd	r19, Z+5	; 0x05
    3f82:	2e 0d       	add	r18, r14
    3f84:	3f 1d       	adc	r19, r15
    3f86:	c4 01       	movw	r24, r8
    3f88:	b5 01       	movw	r22, r10
    3f8a:	a7 01       	movw	r20, r14
    3f8c:	0e 94 46 1f 	call	0x3e8c	;  0x3e8c
    3f90:	c4 01       	movw	r24, r8
    3f92:	b6 01       	movw	r22, r12
    3f94:	0e 94 90 1b 	call	0x3720	;  0x3720
    3f98:	18 2f       	mov	r17, r24
    3f9a:	c4 01       	movw	r24, r8
    3f9c:	0e 94 ce 1a 	call	0x359c	;  0x359c
    3fa0:	11 23       	and	r17, r17
    3fa2:	41 f4       	brne	.+16     	;  0x3fb4
    3fa4:	08 94       	sec
    3fa6:	e1 08       	sbc	r14, r1
    3fa8:	f1 08       	sbc	r15, r1
    3faa:	f7 fe       	sbrs	r15, 7
    3fac:	df cf       	rjmp	.-66     	;  0x3f6c
    3fae:	ee 24       	eor	r14, r14
    3fb0:	ea 94       	dec	r14
    3fb2:	fe 2c       	mov	r15, r14
    3fb4:	c7 01       	movw	r24, r14
    3fb6:	26 96       	adiw	r28, 0x06	; 6
    3fb8:	0f b6       	in	r0, 0x3f	; 63
    3fba:	f8 94       	cli
    3fbc:	de bf       	out	0x3e, r29	; 62
    3fbe:	0f be       	out	0x3f, r0	; 63
    3fc0:	cd bf       	out	0x3d, r28	; 61
    3fc2:	cf 91       	pop	r28
    3fc4:	df 91       	pop	r29
    3fc6:	1f 91       	pop	r17
    3fc8:	0f 91       	pop	r16
    3fca:	ff 90       	pop	r15
    3fcc:	ef 90       	pop	r14
    3fce:	df 90       	pop	r13
    3fd0:	cf 90       	pop	r12
    3fd2:	bf 90       	pop	r11
    3fd4:	af 90       	pop	r10
    3fd6:	9f 90       	pop	r9
    3fd8:	8f 90       	pop	r8
    3fda:	08 95       	ret
    3fdc:	fc 01       	movw	r30, r24
    3fde:	db 01       	movw	r26, r22
    3fe0:	44 81       	ldd	r20, Z+4	; 0x04
    3fe2:	55 81       	ldd	r21, Z+5	; 0x05
    3fe4:	14 96       	adiw	r26, 0x04	; 4
    3fe6:	8d 91       	ld	r24, X+
    3fe8:	9c 91       	ld	r25, X
    3fea:	15 97       	sbiw	r26, 0x05	; 5
    3fec:	48 1b       	sub	r20, r24
    3fee:	59 0b       	sbc	r21, r25
    3ff0:	cf 01       	movw	r24, r30
    3ff2:	0e 94 89 1f 	call	0x3f12	;  0x3f12
    3ff6:	08 95       	ret
    3ff8:	af 92       	push	r10
    3ffa:	bf 92       	push	r11
    3ffc:	cf 92       	push	r12
    3ffe:	df 92       	push	r13
    4000:	ef 92       	push	r14
    4002:	ff 92       	push	r15
    4004:	0f 93       	push	r16
    4006:	1f 93       	push	r17
    4008:	df 93       	push	r29
    400a:	cf 93       	push	r28
    400c:	00 d0       	rcall	.+0      	;  0x400e
    400e:	00 d0       	rcall	.+0      	;  0x4010
    4010:	00 d0       	rcall	.+0      	;  0x4012
    4012:	cd b7       	in	r28, 0x3d	; 61
    4014:	de b7       	in	r29, 0x3e	; 62
    4016:	5c 01       	movw	r10, r24
    4018:	8b 01       	movw	r16, r22
    401a:	db 01       	movw	r26, r22
    401c:	6d 91       	ld	r22, X+
    401e:	7c 91       	ld	r23, X
    4020:	61 15       	cp	r22, r1
    4022:	71 05       	cpc	r23, r1
    4024:	21 f4       	brne	.+8      	;  0x402e
    4026:	b8 01       	movw	r22, r16
    4028:	0e 94 30 1d 	call	0x3a60	;  0x3a60
    402c:	3e c0       	rjmp	.+124    	;  0x40aa
    402e:	ce 01       	movw	r24, r28
    4030:	01 96       	adiw	r24, 0x01	; 1
    4032:	0e 94 60 1e 	call	0x3cc0	;  0x3cc0
    4036:	f8 01       	movw	r30, r16
    4038:	e4 80       	ldd	r14, Z+4	; 0x04
    403a:	f5 80       	ldd	r15, Z+5	; 0x05
    403c:	cc 24       	eor	r12, r12
    403e:	dd 24       	eor	r13, r13
    4040:	0e c0       	rjmp	.+28     	;  0x405e
    4042:	d8 01       	movw	r26, r16
    4044:	ed 91       	ld	r30, X+
    4046:	fc 91       	ld	r31, X
    4048:	ec 0d       	add	r30, r12
    404a:	fd 1d       	adc	r31, r13
    404c:	80 81       	ld	r24, Z
    404e:	90 e0       	ldi	r25, 0x00	; 0
    4050:	0e 94 ef 28 	call	0x51de	;  0x51de
    4054:	89 2b       	or	r24, r25
    4056:	31 f0       	breq	.+12     	;  0x4064
    4058:	08 94       	sec
    405a:	c1 1c       	adc	r12, r1
    405c:	d1 1c       	adc	r13, r1
    405e:	ce 14       	cp	r12, r14
    4060:	df 04       	cpc	r13, r15
    4062:	78 f3       	brcs	.-34     	;  0x4042
    4064:	ed 80       	ldd	r14, Y+5	; 0x05
    4066:	fe 80       	ldd	r15, Y+6	; 0x06
    4068:	0b c0       	rjmp	.+22     	;  0x4080
    406a:	d8 01       	movw	r26, r16
    406c:	ed 91       	ld	r30, X+
    406e:	fc 91       	ld	r31, X
    4070:	ee 0d       	add	r30, r14
    4072:	ff 1d       	adc	r31, r15
    4074:	80 81       	ld	r24, Z
    4076:	90 e0       	ldi	r25, 0x00	; 0
    4078:	0e 94 ef 28 	call	0x51de	;  0x51de
    407c:	89 2b       	or	r24, r25
    407e:	31 f0       	breq	.+12     	;  0x408c
    4080:	08 94       	sec
    4082:	e1 08       	sbc	r14, r1
    4084:	f1 08       	sbc	r15, r1
    4086:	ce 14       	cp	r12, r14
    4088:	df 04       	cpc	r13, r15
    408a:	78 f3       	brcs	.-34     	;  0x406a
    408c:	08 94       	sec
    408e:	e1 1c       	adc	r14, r1
    4090:	f1 1c       	adc	r15, r1
    4092:	c5 01       	movw	r24, r10
    4094:	8e 01       	movw	r16, r28
    4096:	0f 5f       	subi	r16, 0xFF	; 255
    4098:	1f 4f       	sbci	r17, 0xFF	; 255
    409a:	b8 01       	movw	r22, r16
    409c:	a6 01       	movw	r20, r12
    409e:	97 01       	movw	r18, r14
    40a0:	0e 94 46 1f 	call	0x3e8c	;  0x3e8c
    40a4:	c8 01       	movw	r24, r16
    40a6:	0e 94 ce 1a 	call	0x359c	;  0x359c
    40aa:	c5 01       	movw	r24, r10
    40ac:	26 96       	adiw	r28, 0x06	; 6
    40ae:	0f b6       	in	r0, 0x3f	; 63
    40b0:	f8 94       	cli
    40b2:	de bf       	out	0x3e, r29	; 62
    40b4:	0f be       	out	0x3f, r0	; 63
    40b6:	cd bf       	out	0x3d, r28	; 61
    40b8:	cf 91       	pop	r28
    40ba:	df 91       	pop	r29
    40bc:	1f 91       	pop	r17
    40be:	0f 91       	pop	r16
    40c0:	ff 90       	pop	r15
    40c2:	ef 90       	pop	r14
    40c4:	df 90       	pop	r13
    40c6:	cf 90       	pop	r12
    40c8:	bf 90       	pop	r11
    40ca:	af 90       	pop	r10
    40cc:	08 95       	ret
    40ce:	2f 92       	push	r2
    40d0:	3f 92       	push	r3
    40d2:	4f 92       	push	r4
    40d4:	5f 92       	push	r5
    40d6:	6f 92       	push	r6
    40d8:	7f 92       	push	r7
    40da:	8f 92       	push	r8
    40dc:	9f 92       	push	r9
    40de:	af 92       	push	r10
    40e0:	bf 92       	push	r11
    40e2:	cf 92       	push	r12
    40e4:	df 92       	push	r13
    40e6:	ef 92       	push	r14
    40e8:	ff 92       	push	r15
    40ea:	0f 93       	push	r16
    40ec:	1f 93       	push	r17
    40ee:	df 93       	push	r29
    40f0:	cf 93       	push	r28
    40f2:	cd b7       	in	r28, 0x3d	; 61
    40f4:	de b7       	in	r29, 0x3e	; 62
    40f6:	68 97       	sbiw	r28, 0x18	; 24
    40f8:	0f b6       	in	r0, 0x3f	; 63
    40fa:	f8 94       	cli
    40fc:	de bf       	out	0x3e, r29	; 62
    40fe:	0f be       	out	0x3f, r0	; 63
    4100:	cd bf       	out	0x3d, r28	; 61
    4102:	3c 01       	movw	r6, r24
    4104:	fb 01       	movw	r30, r22
    4106:	2a 01       	movw	r4, r20
    4108:	19 01       	movw	r2, r18
    410a:	60 81       	ld	r22, Z
    410c:	71 81       	ldd	r23, Z+1	; 0x01
    410e:	61 15       	cp	r22, r1
    4110:	71 05       	cpc	r23, r1
    4112:	21 f4       	brne	.+8      	;  0x411c
    4114:	bf 01       	movw	r22, r30
    4116:	0e 94 30 1d 	call	0x3a60	;  0x3a60
    411a:	5a c0       	rjmp	.+180    	;  0x41d0
    411c:	7e 01       	movw	r14, r28
    411e:	08 94       	sec
    4120:	e1 1c       	adc	r14, r1
    4122:	f1 1c       	adc	r15, r1
    4124:	c7 01       	movw	r24, r14
    4126:	0e 94 60 1e 	call	0x3cc0	;  0x3cc0
    412a:	8e 01       	movw	r16, r28
    412c:	09 5f       	subi	r16, 0xF9	; 249
    412e:	1f 4f       	sbci	r17, 0xFF	; 255
    4130:	c8 01       	movw	r24, r16
    4132:	6e e7       	ldi	r22, 0x7E	; 126
    4134:	75 e0       	ldi	r23, 0x05	; 5
    4136:	0e 94 60 1e 	call	0x3cc0	;  0x3cc0
    413a:	d0 2e       	mov	r13, r16
    413c:	c1 2e       	mov	r12, r17
    413e:	3d e0       	ldi	r19, 0x0D	; 13
    4140:	83 2e       	mov	r8, r19
    4142:	91 2c       	mov	r9, r1
    4144:	8c 0e       	add	r8, r28
    4146:	9d 1e       	adc	r9, r29
    4148:	23 e1       	ldi	r18, 0x13	; 19
    414a:	a2 2e       	mov	r10, r18
    414c:	b1 2c       	mov	r11, r1
    414e:	ac 0e       	add	r10, r28
    4150:	bd 1e       	adc	r11, r29
    4152:	24 c0       	rjmp	.+72     	;  0x419c
    4154:	c4 01       	movw	r24, r8
    4156:	b7 01       	movw	r22, r14
    4158:	40 e0       	ldi	r20, 0x00	; 0
    415a:	50 e0       	ldi	r21, 0x00	; 0
    415c:	98 01       	movw	r18, r16
    415e:	0e 94 46 1f 	call	0x3e8c	;  0x3e8c
    4162:	8d 2d       	mov	r24, r13
    4164:	9c 2d       	mov	r25, r12
    4166:	b4 01       	movw	r22, r8
    4168:	0e 94 49 1c 	call	0x3892	;  0x3892
    416c:	c4 01       	movw	r24, r8
    416e:	0e 94 ce 1a 	call	0x359c	;  0x359c
    4172:	8d 2d       	mov	r24, r13
    4174:	9c 2d       	mov	r25, r12
    4176:	b1 01       	movw	r22, r2
    4178:	0e 94 49 1c 	call	0x3892	;  0x3892
    417c:	f2 01       	movw	r30, r4
    417e:	44 81       	ldd	r20, Z+4	; 0x04
    4180:	55 81       	ldd	r21, Z+5	; 0x05
    4182:	40 0f       	add	r20, r16
    4184:	51 1f       	adc	r21, r17
    4186:	c5 01       	movw	r24, r10
    4188:	b7 01       	movw	r22, r14
    418a:	0e 94 7d 1f 	call	0x3efa	;  0x3efa
    418e:	c7 01       	movw	r24, r14
    4190:	b5 01       	movw	r22, r10
    4192:	0e 94 98 1c 	call	0x3930	;  0x3930
    4196:	c5 01       	movw	r24, r10
    4198:	0e 94 ce 1a 	call	0x359c	;  0x359c
    419c:	c7 01       	movw	r24, r14
    419e:	b2 01       	movw	r22, r4
    41a0:	0e 94 6a 1b 	call	0x36d4	;  0x36d4
    41a4:	8c 01       	movw	r16, r24
    41a6:	ff ef       	ldi	r31, 0xFF	; 255
    41a8:	8f 3f       	cpi	r24, 0xFF	; 255
    41aa:	9f 07       	cpc	r25, r31
    41ac:	99 f6       	brne	.-90     	;  0x4154
    41ae:	8d 2d       	mov	r24, r13
    41b0:	9c 2d       	mov	r25, r12
    41b2:	b7 01       	movw	r22, r14
    41b4:	0e 94 49 1c 	call	0x3892	;  0x3892
    41b8:	c3 01       	movw	r24, r6
    41ba:	6d 2d       	mov	r22, r13
    41bc:	7c 2d       	mov	r23, r12
    41be:	0e 94 30 1d 	call	0x3a60	;  0x3a60
    41c2:	8d 2d       	mov	r24, r13
    41c4:	9c 2d       	mov	r25, r12
    41c6:	0e 94 ce 1a 	call	0x359c	;  0x359c
    41ca:	c7 01       	movw	r24, r14
    41cc:	0e 94 ce 1a 	call	0x359c	;  0x359c
    41d0:	c3 01       	movw	r24, r6
    41d2:	68 96       	adiw	r28, 0x18	; 24
    41d4:	0f b6       	in	r0, 0x3f	; 63
    41d6:	f8 94       	cli
    41d8:	de bf       	out	0x3e, r29	; 62
    41da:	0f be       	out	0x3f, r0	; 63
    41dc:	cd bf       	out	0x3d, r28	; 61
    41de:	cf 91       	pop	r28
    41e0:	df 91       	pop	r29
    41e2:	1f 91       	pop	r17
    41e4:	0f 91       	pop	r16
    41e6:	ff 90       	pop	r15
    41e8:	ef 90       	pop	r14
    41ea:	df 90       	pop	r13
    41ec:	cf 90       	pop	r12
    41ee:	bf 90       	pop	r11
    41f0:	af 90       	pop	r10
    41f2:	9f 90       	pop	r9
    41f4:	8f 90       	pop	r8
    41f6:	7f 90       	pop	r7
    41f8:	6f 90       	pop	r6
    41fa:	5f 90       	pop	r5
    41fc:	4f 90       	pop	r4
    41fe:	3f 90       	pop	r3
    4200:	2f 90       	pop	r2
    4202:	08 95       	ret
    4204:	ef 92       	push	r14
    4206:	ff 92       	push	r15
    4208:	0f 93       	push	r16
    420a:	1f 93       	push	r17
    420c:	df 93       	push	r29
    420e:	cf 93       	push	r28
    4210:	00 d0       	rcall	.+0      	;  0x4212
    4212:	00 d0       	rcall	.+0      	;  0x4214
    4214:	00 d0       	rcall	.+0      	;  0x4216
    4216:	cd b7       	in	r28, 0x3d	; 61
    4218:	de b7       	in	r29, 0x3e	; 62
    421a:	7c 01       	movw	r14, r24
    421c:	fb 01       	movw	r30, r22
    421e:	14 2f       	mov	r17, r20
    4220:	02 2f       	mov	r16, r18
    4222:	60 81       	ld	r22, Z
    4224:	71 81       	ldd	r23, Z+1	; 0x01
    4226:	61 15       	cp	r22, r1
    4228:	71 05       	cpc	r23, r1
    422a:	21 f4       	brne	.+8      	;  0x4234
    422c:	bf 01       	movw	r22, r30
    422e:	0e 94 30 1d 	call	0x3a60	;  0x3a60
    4232:	19 c0       	rjmp	.+50     	;  0x4266
    4234:	ce 01       	movw	r24, r28
    4236:	01 96       	adiw	r24, 0x01	; 1
    4238:	0e 94 60 1e 	call	0x3cc0	;  0x3cc0
    423c:	89 81       	ldd	r24, Y+1	; 0x01
    423e:	9a 81       	ldd	r25, Y+2	; 0x02
    4240:	01 c0       	rjmp	.+2      	;  0x4244
    4242:	00 83       	st	Z, r16
    4244:	61 2f       	mov	r22, r17
    4246:	70 e0       	ldi	r23, 0x00	; 0
    4248:	0e 94 1b 29 	call	0x5236	;  0x5236
    424c:	fc 01       	movw	r30, r24
    424e:	00 97       	sbiw	r24, 0x00	; 0
    4250:	c1 f7       	brne	.-16     	;  0x4242
    4252:	c7 01       	movw	r24, r14
    4254:	8e 01       	movw	r16, r28
    4256:	0f 5f       	subi	r16, 0xFF	; 255
    4258:	1f 4f       	sbci	r17, 0xFF	; 255
    425a:	b8 01       	movw	r22, r16
    425c:	0e 94 30 1d 	call	0x3a60	;  0x3a60
    4260:	c8 01       	movw	r24, r16
    4262:	0e 94 ce 1a 	call	0x359c	;  0x359c
    4266:	c7 01       	movw	r24, r14
    4268:	26 96       	adiw	r28, 0x06	; 6
    426a:	0f b6       	in	r0, 0x3f	; 63
    426c:	f8 94       	cli
    426e:	de bf       	out	0x3e, r29	; 62
    4270:	0f be       	out	0x3f, r0	; 63
    4272:	cd bf       	out	0x3d, r28	; 61
    4274:	cf 91       	pop	r28
    4276:	df 91       	pop	r29
    4278:	1f 91       	pop	r17
    427a:	0f 91       	pop	r16
    427c:	ff 90       	pop	r15
    427e:	ef 90       	pop	r14
    4280:	08 95       	ret
    4282:	0f 93       	push	r16
    4284:	1f 93       	push	r17
    4286:	cf 93       	push	r28
    4288:	df 93       	push	r29
    428a:	8c 01       	movw	r16, r24
    428c:	eb 01       	movw	r28, r22
    428e:	61 15       	cp	r22, r1
    4290:	71 05       	cpc	r23, r1
    4292:	11 f4       	brne	.+4      	;  0x4298
    4294:	ce e7       	ldi	r28, 0x7E	; 126
    4296:	d5 e0       	ldi	r29, 0x05	; 5
    4298:	fe 01       	movw	r30, r28
    429a:	01 90       	ld	r0, Z+
    429c:	00 20       	and	r0, r0
    429e:	e9 f7       	brne	.-6      	;  0x429a
    42a0:	31 97       	sbiw	r30, 0x01	; 1
    42a2:	ec 1b       	sub	r30, r28
    42a4:	fd 0b       	sbc	r31, r29
    42a6:	d8 01       	movw	r26, r16
    42a8:	15 96       	adiw	r26, 0x05	; 5
    42aa:	fc 93       	st	X, r31
    42ac:	ee 93       	st	-X, r30
    42ae:	14 97       	sbiw	r26, 0x04	; 4
    42b0:	c8 01       	movw	r24, r16
    42b2:	bf 01       	movw	r22, r30
    42b4:	0e 94 84 1c 	call	0x3908	;  0x3908
    42b8:	f8 01       	movw	r30, r16
    42ba:	80 81       	ld	r24, Z
    42bc:	91 81       	ldd	r25, Z+1	; 0x01
    42be:	00 97       	sbiw	r24, 0x00	; 0
    42c0:	19 f0       	breq	.+6      	;  0x42c8
    42c2:	be 01       	movw	r22, r28
    42c4:	0e 94 2f 29 	call	0x525e	;  0x525e
    42c8:	df 91       	pop	r29
    42ca:	cf 91       	pop	r28
    42cc:	1f 91       	pop	r17
    42ce:	0f 91       	pop	r16
    42d0:	08 95       	ret
    42d2:	ef 92       	push	r14
    42d4:	ff 92       	push	r15
    42d6:	0f 93       	push	r16
    42d8:	1f 93       	push	r17
    42da:	df 93       	push	r29
    42dc:	cf 93       	push	r28
    42de:	cd b7       	in	r28, 0x3d	; 61
    42e0:	de b7       	in	r29, 0x3e	; 62
    42e2:	a1 97       	sbiw	r28, 0x21	; 33
    42e4:	0f b6       	in	r0, 0x3f	; 63
    42e6:	f8 94       	cli
    42e8:	de bf       	out	0x3e, r29	; 62
    42ea:	0f be       	out	0x3f, r0	; 63
    42ec:	cd bf       	out	0x3d, r28	; 61
    42ee:	8c 01       	movw	r16, r24
    42f0:	cb 01       	movw	r24, r22
    42f2:	ba 01       	movw	r22, r20
    42f4:	7e 01       	movw	r14, r28
    42f6:	08 94       	sec
    42f8:	e1 1c       	adc	r14, r1
    42fa:	f1 1c       	adc	r15, r1
    42fc:	a7 01       	movw	r20, r14
    42fe:	0e 94 99 29 	call	0x5332	;  0x5332
    4302:	f7 01       	movw	r30, r14
    4304:	01 90       	ld	r0, Z+
    4306:	00 20       	and	r0, r0
    4308:	e9 f7       	brne	.-6      	;  0x4304
    430a:	31 97       	sbiw	r30, 0x01	; 1
    430c:	ee 19       	sub	r30, r14
    430e:	ff 09       	sbc	r31, r15
    4310:	d8 01       	movw	r26, r16
    4312:	15 96       	adiw	r26, 0x05	; 5
    4314:	fc 93       	st	X, r31
    4316:	ee 93       	st	-X, r30
    4318:	14 97       	sbiw	r26, 0x04	; 4
    431a:	c8 01       	movw	r24, r16
    431c:	bf 01       	movw	r22, r30
    431e:	0e 94 84 1c 	call	0x3908	;  0x3908
    4322:	f8 01       	movw	r30, r16
    4324:	80 81       	ld	r24, Z
    4326:	91 81       	ldd	r25, Z+1	; 0x01
    4328:	00 97       	sbiw	r24, 0x00	; 0
    432a:	19 f0       	breq	.+6      	;  0x4332
    432c:	b7 01       	movw	r22, r14
    432e:	0e 94 2f 29 	call	0x525e	;  0x525e
    4332:	a1 96       	adiw	r28, 0x21	; 33
    4334:	0f b6       	in	r0, 0x3f	; 63
    4336:	f8 94       	cli
    4338:	de bf       	out	0x3e, r29	; 62
    433a:	0f be       	out	0x3f, r0	; 63
    433c:	cd bf       	out	0x3d, r28	; 61
    433e:	cf 91       	pop	r28
    4340:	df 91       	pop	r29
    4342:	1f 91       	pop	r17
    4344:	0f 91       	pop	r16
    4346:	ff 90       	pop	r15
    4348:	ef 90       	pop	r14
    434a:	08 95       	ret
    434c:	ef 92       	push	r14
    434e:	ff 92       	push	r15
    4350:	0f 93       	push	r16
    4352:	1f 93       	push	r17
    4354:	df 93       	push	r29
    4356:	cf 93       	push	r28
    4358:	cd b7       	in	r28, 0x3d	; 61
    435a:	de b7       	in	r29, 0x3e	; 62
    435c:	a1 97       	sbiw	r28, 0x21	; 33
    435e:	0f b6       	in	r0, 0x3f	; 63
    4360:	f8 94       	cli
    4362:	de bf       	out	0x3e, r29	; 62
    4364:	0f be       	out	0x3f, r0	; 63
    4366:	cd bf       	out	0x3d, r28	; 61
    4368:	8c 01       	movw	r16, r24
    436a:	cb 01       	movw	r24, r22
    436c:	ba 01       	movw	r22, r20
    436e:	7e 01       	movw	r14, r28
    4370:	08 94       	sec
    4372:	e1 1c       	adc	r14, r1
    4374:	f1 1c       	adc	r15, r1
    4376:	a7 01       	movw	r20, r14
    4378:	0e 94 99 29 	call	0x5332	;  0x5332
    437c:	f7 01       	movw	r30, r14
    437e:	01 90       	ld	r0, Z+
    4380:	00 20       	and	r0, r0
    4382:	e9 f7       	brne	.-6      	;  0x437e
    4384:	31 97       	sbiw	r30, 0x01	; 1
    4386:	ee 19       	sub	r30, r14
    4388:	ff 09       	sbc	r31, r15
    438a:	d8 01       	movw	r26, r16
    438c:	15 96       	adiw	r26, 0x05	; 5
    438e:	fc 93       	st	X, r31
    4390:	ee 93       	st	-X, r30
    4392:	14 97       	sbiw	r26, 0x04	; 4
    4394:	c8 01       	movw	r24, r16
    4396:	bf 01       	movw	r22, r30
    4398:	0e 94 84 1c 	call	0x3908	;  0x3908
    439c:	f8 01       	movw	r30, r16
    439e:	80 81       	ld	r24, Z
    43a0:	91 81       	ldd	r25, Z+1	; 0x01
    43a2:	00 97       	sbiw	r24, 0x00	; 0
    43a4:	19 f0       	breq	.+6      	;  0x43ac
    43a6:	b7 01       	movw	r22, r14
    43a8:	0e 94 2f 29 	call	0x525e	;  0x525e
    43ac:	a1 96       	adiw	r28, 0x21	; 33
    43ae:	0f b6       	in	r0, 0x3f	; 63
    43b0:	f8 94       	cli
    43b2:	de bf       	out	0x3e, r29	; 62
    43b4:	0f be       	out	0x3f, r0	; 63
    43b6:	cd bf       	out	0x3d, r28	; 61
    43b8:	cf 91       	pop	r28
    43ba:	df 91       	pop	r29
    43bc:	1f 91       	pop	r17
    43be:	0f 91       	pop	r16
    43c0:	ff 90       	pop	r15
    43c2:	ef 90       	pop	r14
    43c4:	08 95       	ret
    43c6:	ef 92       	push	r14
    43c8:	ff 92       	push	r15
    43ca:	0f 93       	push	r16
    43cc:	1f 93       	push	r17
    43ce:	df 93       	push	r29
    43d0:	cf 93       	push	r28
    43d2:	cd b7       	in	r28, 0x3d	; 61
    43d4:	de b7       	in	r29, 0x3e	; 62
    43d6:	a1 97       	sbiw	r28, 0x21	; 33
    43d8:	0f b6       	in	r0, 0x3f	; 63
    43da:	f8 94       	cli
    43dc:	de bf       	out	0x3e, r29	; 62
    43de:	0f be       	out	0x3f, r0	; 63
    43e0:	cd bf       	out	0x3d, r28	; 61
    43e2:	8c 01       	movw	r16, r24
    43e4:	cb 01       	movw	r24, r22
    43e6:	7e 01       	movw	r14, r28
    43e8:	08 94       	sec
    43ea:	e1 1c       	adc	r14, r1
    43ec:	f1 1c       	adc	r15, r1
    43ee:	b7 01       	movw	r22, r14
    43f0:	0e 94 78 29 	call	0x52f0	;  0x52f0
    43f4:	f7 01       	movw	r30, r14
    43f6:	01 90       	ld	r0, Z+
    43f8:	00 20       	and	r0, r0
    43fa:	e9 f7       	brne	.-6      	;  0x43f6
    43fc:	31 97       	sbiw	r30, 0x01	; 1
    43fe:	ee 19       	sub	r30, r14
    4400:	ff 09       	sbc	r31, r15
    4402:	d8 01       	movw	r26, r16
    4404:	15 96       	adiw	r26, 0x05	; 5
    4406:	fc 93       	st	X, r31
    4408:	ee 93       	st	-X, r30
    440a:	14 97       	sbiw	r26, 0x04	; 4
    440c:	c8 01       	movw	r24, r16
    440e:	bf 01       	movw	r22, r30
    4410:	0e 94 84 1c 	call	0x3908	;  0x3908
    4414:	f8 01       	movw	r30, r16
    4416:	80 81       	ld	r24, Z
    4418:	91 81       	ldd	r25, Z+1	; 0x01
    441a:	00 97       	sbiw	r24, 0x00	; 0
    441c:	19 f0       	breq	.+6      	;  0x4424
    441e:	b7 01       	movw	r22, r14
    4420:	0e 94 2f 29 	call	0x525e	;  0x525e
    4424:	a1 96       	adiw	r28, 0x21	; 33
    4426:	0f b6       	in	r0, 0x3f	; 63
    4428:	f8 94       	cli
    442a:	de bf       	out	0x3e, r29	; 62
    442c:	0f be       	out	0x3f, r0	; 63
    442e:	cd bf       	out	0x3d, r28	; 61
    4430:	cf 91       	pop	r28
    4432:	df 91       	pop	r29
    4434:	1f 91       	pop	r17
    4436:	0f 91       	pop	r16
    4438:	ff 90       	pop	r15
    443a:	ef 90       	pop	r14
    443c:	08 95       	ret
    443e:	ef 92       	push	r14
    4440:	ff 92       	push	r15
    4442:	0f 93       	push	r16
    4444:	1f 93       	push	r17
    4446:	df 93       	push	r29
    4448:	cf 93       	push	r28
    444a:	cd b7       	in	r28, 0x3d	; 61
    444c:	de b7       	in	r29, 0x3e	; 62
    444e:	a1 97       	sbiw	r28, 0x21	; 33
    4450:	0f b6       	in	r0, 0x3f	; 63
    4452:	f8 94       	cli
    4454:	de bf       	out	0x3e, r29	; 62
    4456:	0f be       	out	0x3f, r0	; 63
    4458:	cd bf       	out	0x3d, r28	; 61
    445a:	8c 01       	movw	r16, r24
    445c:	cb 01       	movw	r24, r22
    445e:	7e 01       	movw	r14, r28
    4460:	08 94       	sec
    4462:	e1 1c       	adc	r14, r1
    4464:	f1 1c       	adc	r15, r1
    4466:	b7 01       	movw	r22, r14
    4468:	0e 94 78 29 	call	0x52f0	;  0x52f0
    446c:	f7 01       	movw	r30, r14
    446e:	01 90       	ld	r0, Z+
    4470:	00 20       	and	r0, r0
    4472:	e9 f7       	brne	.-6      	;  0x446e
    4474:	31 97       	sbiw	r30, 0x01	; 1
    4476:	ee 19       	sub	r30, r14
    4478:	ff 09       	sbc	r31, r15
    447a:	d8 01       	movw	r26, r16
    447c:	15 96       	adiw	r26, 0x05	; 5
    447e:	fc 93       	st	X, r31
    4480:	ee 93       	st	-X, r30
    4482:	14 97       	sbiw	r26, 0x04	; 4
    4484:	c8 01       	movw	r24, r16
    4486:	bf 01       	movw	r22, r30
    4488:	0e 94 84 1c 	call	0x3908	;  0x3908
    448c:	f8 01       	movw	r30, r16
    448e:	80 81       	ld	r24, Z
    4490:	91 81       	ldd	r25, Z+1	; 0x01
    4492:	00 97       	sbiw	r24, 0x00	; 0
    4494:	19 f0       	breq	.+6      	;  0x449c
    4496:	b7 01       	movw	r22, r14
    4498:	0e 94 2f 29 	call	0x525e	;  0x525e
    449c:	a1 96       	adiw	r28, 0x21	; 33
    449e:	0f b6       	in	r0, 0x3f	; 63
    44a0:	f8 94       	cli
    44a2:	de bf       	out	0x3e, r29	; 62
    44a4:	0f be       	out	0x3f, r0	; 63
    44a6:	cd bf       	out	0x3d, r28	; 61
    44a8:	cf 91       	pop	r28
    44aa:	df 91       	pop	r29
    44ac:	1f 91       	pop	r17
    44ae:	0f 91       	pop	r16
    44b0:	ff 90       	pop	r15
    44b2:	ef 90       	pop	r14
    44b4:	08 95       	ret
    44b6:	1f 92       	push	r1
    44b8:	0f 92       	push	r0
    44ba:	0f b6       	in	r0, 0x3f	; 63
    44bc:	0f 92       	push	r0
    44be:	11 24       	eor	r1, r1
    44c0:	2f 93       	push	r18
    44c2:	3f 93       	push	r19
    44c4:	8f 93       	push	r24
    44c6:	9f 93       	push	r25
    44c8:	af 93       	push	r26
    44ca:	bf 93       	push	r27
    44cc:	80 91 b2 07 	lds	r24, 0x07B2
    44d0:	90 91 b3 07 	lds	r25, 0x07B3
    44d4:	a0 91 b4 07 	lds	r26, 0x07B4
    44d8:	b0 91 b5 07 	lds	r27, 0x07B5
    44dc:	30 91 b6 07 	lds	r19, 0x07B6
    44e0:	01 96       	adiw	r24, 0x01	; 1
    44e2:	a1 1d       	adc	r26, r1
    44e4:	b1 1d       	adc	r27, r1
    44e6:	23 2f       	mov	r18, r19
    44e8:	2d 5f       	subi	r18, 0xFD	; 253
    44ea:	2d 37       	cpi	r18, 0x7D	; 125
    44ec:	20 f0       	brcs	.+8      	;  0x44f6
    44ee:	2d 57       	subi	r18, 0x7D	; 125
    44f0:	01 96       	adiw	r24, 0x01	; 1
    44f2:	a1 1d       	adc	r26, r1
    44f4:	b1 1d       	adc	r27, r1
    44f6:	20 93 b6 07 	sts	0x07B6, r18
    44fa:	80 93 b2 07 	sts	0x07B2, r24
    44fe:	90 93 b3 07 	sts	0x07B3, r25
    4502:	a0 93 b4 07 	sts	0x07B4, r26
    4506:	b0 93 b5 07 	sts	0x07B5, r27
    450a:	80 91 ae 07 	lds	r24, 0x07AE
    450e:	90 91 af 07 	lds	r25, 0x07AF
    4512:	a0 91 b0 07 	lds	r26, 0x07B0
    4516:	b0 91 b1 07 	lds	r27, 0x07B1
    451a:	01 96       	adiw	r24, 0x01	; 1
    451c:	a1 1d       	adc	r26, r1
    451e:	b1 1d       	adc	r27, r1
    4520:	80 93 ae 07 	sts	0x07AE, r24
    4524:	90 93 af 07 	sts	0x07AF, r25
    4528:	a0 93 b0 07 	sts	0x07B0, r26
    452c:	b0 93 b1 07 	sts	0x07B1, r27
    4530:	bf 91       	pop	r27
    4532:	af 91       	pop	r26
    4534:	9f 91       	pop	r25
    4536:	8f 91       	pop	r24
    4538:	3f 91       	pop	r19
    453a:	2f 91       	pop	r18
    453c:	0f 90       	pop	r0
    453e:	0f be       	out	0x3f, r0	; 63
    4540:	0f 90       	pop	r0
    4542:	1f 90       	pop	r1
    4544:	18 95       	reti
    4546:	8f b7       	in	r24, 0x3f	; 63
    4548:	f8 94       	cli
    454a:	20 91 b2 07 	lds	r18, 0x07B2
    454e:	30 91 b3 07 	lds	r19, 0x07B3
    4552:	40 91 b4 07 	lds	r20, 0x07B4
    4556:	50 91 b5 07 	lds	r21, 0x07B5
    455a:	8f bf       	out	0x3f, r24	; 63
    455c:	b9 01       	movw	r22, r18
    455e:	ca 01       	movw	r24, r20
    4560:	08 95       	ret
    4562:	9f b7       	in	r25, 0x3f	; 63
    4564:	f8 94       	cli
    4566:	20 91 ae 07 	lds	r18, 0x07AE
    456a:	30 91 af 07 	lds	r19, 0x07AF
    456e:	40 91 b0 07 	lds	r20, 0x07B0
    4572:	50 91 b1 07 	lds	r21, 0x07B1
    4576:	86 b5       	in	r24, 0x26	; 38
    4578:	a8 9b       	sbis	0x15, 0	; 21
    457a:	06 c0       	rjmp	.+12     	;  0x4588
    457c:	8f 3f       	cpi	r24, 0xFF	; 255
    457e:	21 f0       	breq	.+8      	;  0x4588
    4580:	2f 5f       	subi	r18, 0xFF	; 255
    4582:	3f 4f       	sbci	r19, 0xFF	; 255
    4584:	4f 4f       	sbci	r20, 0xFF	; 255
    4586:	5f 4f       	sbci	r21, 0xFF	; 255
    4588:	9f bf       	out	0x3f, r25	; 63
    458a:	54 2f       	mov	r21, r20
    458c:	43 2f       	mov	r20, r19
    458e:	32 2f       	mov	r19, r18
    4590:	22 27       	eor	r18, r18
    4592:	28 0f       	add	r18, r24
    4594:	31 1d       	adc	r19, r1
    4596:	41 1d       	adc	r20, r1
    4598:	51 1d       	adc	r21, r1
    459a:	82 e0       	ldi	r24, 0x02	; 2
    459c:	22 0f       	add	r18, r18
    459e:	33 1f       	adc	r19, r19
    45a0:	44 1f       	adc	r20, r20
    45a2:	55 1f       	adc	r21, r21
    45a4:	8a 95       	dec	r24
    45a6:	d1 f7       	brne	.-12     	;  0x459c
    45a8:	b9 01       	movw	r22, r18
    45aa:	ca 01       	movw	r24, r20
    45ac:	08 95       	ret
    45ae:	ef 92       	push	r14
    45b0:	ff 92       	push	r15
    45b2:	0f 93       	push	r16
    45b4:	1f 93       	push	r17
    45b6:	cf 93       	push	r28
    45b8:	df 93       	push	r29
    45ba:	7b 01       	movw	r14, r22
    45bc:	8c 01       	movw	r16, r24
    45be:	0e 94 b1 22 	call	0x4562	;  0x4562
    45c2:	eb 01       	movw	r28, r22
    45c4:	0e c0       	rjmp	.+28     	;  0x45e2
    45c6:	0e 94 b1 22 	call	0x4562	;  0x4562
    45ca:	6c 1b       	sub	r22, r28
    45cc:	7d 0b       	sbc	r23, r29
    45ce:	68 5e       	subi	r22, 0xE8	; 232
    45d0:	73 40       	sbci	r23, 0x03	; 3
    45d2:	c8 f3       	brcs	.-14     	;  0x45c6
    45d4:	08 94       	sec
    45d6:	e1 08       	sbc	r14, r1
    45d8:	f1 08       	sbc	r15, r1
    45da:	01 09       	sbc	r16, r1
    45dc:	11 09       	sbc	r17, r1
    45de:	c8 51       	subi	r28, 0x18	; 24
    45e0:	dc 4f       	sbci	r29, 0xFC	; 252
    45e2:	e1 14       	cp	r14, r1
    45e4:	f1 04       	cpc	r15, r1
    45e6:	01 05       	cpc	r16, r1
    45e8:	11 05       	cpc	r17, r1
    45ea:	69 f7       	brne	.-38     	;  0x45c6
    45ec:	df 91       	pop	r29
    45ee:	cf 91       	pop	r28
    45f0:	1f 91       	pop	r17
    45f2:	0f 91       	pop	r16
    45f4:	ff 90       	pop	r15
    45f6:	ef 90       	pop	r14
    45f8:	08 95       	ret
    45fa:	01 97       	sbiw	r24, 0x01	; 1
    45fc:	39 f0       	breq	.+14     	;  0x460c
    45fe:	88 0f       	add	r24, r24
    4600:	99 1f       	adc	r25, r25
    4602:	88 0f       	add	r24, r24
    4604:	99 1f       	adc	r25, r25
    4606:	02 97       	sbiw	r24, 0x02	; 2
    4608:	01 97       	sbiw	r24, 0x01	; 1
    460a:	f1 f7       	brne	.-4      	;  0x4608
    460c:	08 95       	ret
    460e:	78 94       	sei
    4610:	84 b5       	in	r24, 0x24	; 36
    4612:	82 60       	ori	r24, 0x02	; 2
    4614:	84 bd       	out	0x24, r24	; 36
    4616:	84 b5       	in	r24, 0x24	; 36
    4618:	81 60       	ori	r24, 0x01	; 1
    461a:	84 bd       	out	0x24, r24	; 36
    461c:	85 b5       	in	r24, 0x25	; 37
    461e:	82 60       	ori	r24, 0x02	; 2
    4620:	85 bd       	out	0x25, r24	; 37
    4622:	85 b5       	in	r24, 0x25	; 37
    4624:	81 60       	ori	r24, 0x01	; 1
    4626:	85 bd       	out	0x25, r24	; 37
    4628:	ee e6       	ldi	r30, 0x6E	; 110
    462a:	f0 e0       	ldi	r31, 0x00	; 0
    462c:	80 81       	ld	r24, Z
    462e:	81 60       	ori	r24, 0x01	; 1
    4630:	80 83       	st	Z, r24
    4632:	e1 e8       	ldi	r30, 0x81	; 129
    4634:	f0 e0       	ldi	r31, 0x00	; 0
    4636:	10 82       	st	Z, r1
    4638:	80 81       	ld	r24, Z
    463a:	82 60       	ori	r24, 0x02	; 2
    463c:	80 83       	st	Z, r24
    463e:	80 81       	ld	r24, Z
    4640:	81 60       	ori	r24, 0x01	; 1
    4642:	80 83       	st	Z, r24
    4644:	e0 e8       	ldi	r30, 0x80	; 128
    4646:	f0 e0       	ldi	r31, 0x00	; 0
    4648:	80 81       	ld	r24, Z
    464a:	81 60       	ori	r24, 0x01	; 1
    464c:	80 83       	st	Z, r24
    464e:	e1 eb       	ldi	r30, 0xB1	; 177
    4650:	f0 e0       	ldi	r31, 0x00	; 0
    4652:	80 81       	ld	r24, Z
    4654:	84 60       	ori	r24, 0x04	; 4
    4656:	80 83       	st	Z, r24
    4658:	e0 eb       	ldi	r30, 0xB0	; 176
    465a:	f0 e0       	ldi	r31, 0x00	; 0
    465c:	80 81       	ld	r24, Z
    465e:	81 60       	ori	r24, 0x01	; 1
    4660:	80 83       	st	Z, r24
    4662:	ea e7       	ldi	r30, 0x7A	; 122
    4664:	f0 e0       	ldi	r31, 0x00	; 0
    4666:	80 81       	ld	r24, Z
    4668:	84 60       	ori	r24, 0x04	; 4
    466a:	80 83       	st	Z, r24
    466c:	80 81       	ld	r24, Z
    466e:	82 60       	ori	r24, 0x02	; 2
    4670:	80 83       	st	Z, r24
    4672:	80 81       	ld	r24, Z
    4674:	81 60       	ori	r24, 0x01	; 1
    4676:	80 83       	st	Z, r24
    4678:	80 81       	ld	r24, Z
    467a:	80 68       	ori	r24, 0x80	; 128
    467c:	80 83       	st	Z, r24
    467e:	10 92 c1 00 	sts	0x00C1, r1
    4682:	08 95       	ret
    4684:	80 93 7f 05 	sts	0x057F, r24
    4688:	08 95       	ret
    468a:	98 2f       	mov	r25, r24
    468c:	8e 30       	cpi	r24, 0x0E	; 14
    468e:	08 f0       	brcs	.+2      	;  0x4692
    4690:	9e 50       	subi	r25, 0x0E	; 14
    4692:	97 70       	andi	r25, 0x07	; 7
    4694:	80 91 7f 05 	lds	r24, 0x057F
    4698:	82 95       	swap	r24
    469a:	88 0f       	add	r24, r24
    469c:	88 0f       	add	r24, r24
    469e:	80 7c       	andi	r24, 0xC0	; 192
    46a0:	89 2b       	or	r24, r25
    46a2:	80 93 7c 00 	sts	0x007C, r24
    46a6:	80 91 7a 00 	lds	r24, 0x007A
    46aa:	80 64       	ori	r24, 0x40	; 64
    46ac:	80 93 7a 00 	sts	0x007A, r24
    46b0:	80 91 7a 00 	lds	r24, 0x007A
    46b4:	86 fd       	sbrc	r24, 6
    46b6:	fc cf       	rjmp	.-8      	;  0x46b0
    46b8:	20 91 78 00 	lds	r18, 0x0078
    46bc:	40 91 79 00 	lds	r20, 0x0079
    46c0:	94 2f       	mov	r25, r20
    46c2:	80 e0       	ldi	r24, 0x00	; 0
    46c4:	30 e0       	ldi	r19, 0x00	; 0
    46c6:	28 2b       	or	r18, r24
    46c8:	39 2b       	or	r19, r25
    46ca:	c9 01       	movw	r24, r18
    46cc:	08 95       	ret
    46ce:	1f 93       	push	r17
    46d0:	cf 93       	push	r28
    46d2:	df 93       	push	r29
    46d4:	18 2f       	mov	r17, r24
    46d6:	eb 01       	movw	r28, r22
    46d8:	61 e0       	ldi	r22, 0x01	; 1
    46da:	0e 94 c7 23 	call	0x478e	;  0x478e
    46de:	20 97       	sbiw	r28, 0x00	; 0
    46e0:	09 f4       	brne	.+2      	;  0x46e4
    46e2:	4a c0       	rjmp	.+148    	;  0x4778
    46e4:	cf 3f       	cpi	r28, 0xFF	; 255
    46e6:	d1 05       	cpc	r29, r1
    46e8:	09 f4       	brne	.+2      	;  0x46ec
    46ea:	49 c0       	rjmp	.+146    	;  0x477e
    46ec:	e1 2f       	mov	r30, r17
    46ee:	f0 e0       	ldi	r31, 0x00	; 0
    46f0:	e4 54       	subi	r30, 0x44	; 68
    46f2:	fe 4f       	sbci	r31, 0xFE	; 254
    46f4:	84 91       	lpm	r24, Z+
    46f6:	83 30       	cpi	r24, 0x03	; 3
    46f8:	c1 f0       	breq	.+48     	;  0x472a
    46fa:	84 30       	cpi	r24, 0x04	; 4
    46fc:	28 f4       	brcc	.+10     	;  0x4708
    46fe:	81 30       	cpi	r24, 0x01	; 1
    4700:	51 f0       	breq	.+20     	;  0x4716
    4702:	82 30       	cpi	r24, 0x02	; 2
    4704:	b1 f5       	brne	.+108    	;  0x4772
    4706:	0c c0       	rjmp	.+24     	;  0x4720
    4708:	86 30       	cpi	r24, 0x06	; 6
    470a:	19 f1       	breq	.+70     	;  0x4752
    470c:	87 30       	cpi	r24, 0x07	; 7
    470e:	49 f1       	breq	.+82     	;  0x4762
    4710:	84 30       	cpi	r24, 0x04	; 4
    4712:	79 f5       	brne	.+94     	;  0x4772
    4714:	14 c0       	rjmp	.+40     	;  0x473e
    4716:	84 b5       	in	r24, 0x24	; 36
    4718:	80 68       	ori	r24, 0x80	; 128
    471a:	84 bd       	out	0x24, r24	; 36
    471c:	c7 bd       	out	0x27, r28	; 39
    471e:	33 c0       	rjmp	.+102    	;  0x4786
    4720:	84 b5       	in	r24, 0x24	; 36
    4722:	80 62       	ori	r24, 0x20	; 32
    4724:	84 bd       	out	0x24, r24	; 36
    4726:	c8 bd       	out	0x28, r28	; 40
    4728:	2e c0       	rjmp	.+92     	;  0x4786
    472a:	80 91 80 00 	lds	r24, 0x0080
    472e:	80 68       	ori	r24, 0x80	; 128
    4730:	80 93 80 00 	sts	0x0080, r24
    4734:	d0 93 89 00 	sts	0x0089, r29
    4738:	c0 93 88 00 	sts	0x0088, r28
    473c:	24 c0       	rjmp	.+72     	;  0x4786
    473e:	80 91 80 00 	lds	r24, 0x0080
    4742:	80 62       	ori	r24, 0x20	; 32
    4744:	80 93 80 00 	sts	0x0080, r24
    4748:	d0 93 8b 00 	sts	0x008B, r29
    474c:	c0 93 8a 00 	sts	0x008A, r28
    4750:	1a c0       	rjmp	.+52     	;  0x4786
    4752:	80 91 b0 00 	lds	r24, 0x00B0
    4756:	80 68       	ori	r24, 0x80	; 128
    4758:	80 93 b0 00 	sts	0x00B0, r24
    475c:	c0 93 b3 00 	sts	0x00B3, r28
    4760:	12 c0       	rjmp	.+36     	;  0x4786
    4762:	80 91 b0 00 	lds	r24, 0x00B0
    4766:	80 62       	ori	r24, 0x20	; 32
    4768:	80 93 b0 00 	sts	0x00B0, r24
    476c:	c0 93 b4 00 	sts	0x00B4, r28
    4770:	0a c0       	rjmp	.+20     	;  0x4786
    4772:	c0 38       	cpi	r28, 0x80	; 128
    4774:	d1 05       	cpc	r29, r1
    4776:	1c f4       	brge	.+6      	;  0x477e
    4778:	81 2f       	mov	r24, r17
    477a:	60 e0       	ldi	r22, 0x00	; 0
    477c:	02 c0       	rjmp	.+4      	;  0x4782
    477e:	81 2f       	mov	r24, r17
    4780:	61 e0       	ldi	r22, 0x01	; 1
    4782:	0e 94 1a 24 	call	0x4834	;  0x4834
    4786:	df 91       	pop	r29
    4788:	cf 91       	pop	r28
    478a:	1f 91       	pop	r17
    478c:	08 95       	ret
    478e:	48 2f       	mov	r20, r24
    4790:	50 e0       	ldi	r21, 0x00	; 0
    4792:	ca 01       	movw	r24, r20
    4794:	88 55       	subi	r24, 0x58	; 88
    4796:	9e 4f       	sbci	r25, 0xFE	; 254
    4798:	fc 01       	movw	r30, r24
    479a:	24 91       	lpm	r18, Z+
    479c:	4c 56       	subi	r20, 0x6C	; 108
    479e:	5e 4f       	sbci	r21, 0xFE	; 254
    47a0:	fa 01       	movw	r30, r20
    47a2:	84 91       	lpm	r24, Z+
    47a4:	88 23       	and	r24, r24
    47a6:	c1 f0       	breq	.+48     	;  0x47d8
    47a8:	e8 2f       	mov	r30, r24
    47aa:	f0 e0       	ldi	r31, 0x00	; 0
    47ac:	ee 0f       	add	r30, r30
    47ae:	ff 1f       	adc	r31, r31
    47b0:	ea 58       	subi	r30, 0x8A	; 138
    47b2:	fe 4f       	sbci	r31, 0xFE	; 254
    47b4:	a5 91       	lpm	r26, Z+
    47b6:	b4 91       	lpm	r27, Z+
    47b8:	66 23       	and	r22, r22
    47ba:	41 f4       	brne	.+16     	;  0x47cc
    47bc:	9f b7       	in	r25, 0x3f	; 63
    47be:	f8 94       	cli
    47c0:	8c 91       	ld	r24, X
    47c2:	20 95       	com	r18
    47c4:	82 23       	and	r24, r18
    47c6:	8c 93       	st	X, r24
    47c8:	9f bf       	out	0x3f, r25	; 63
    47ca:	08 95       	ret
    47cc:	9f b7       	in	r25, 0x3f	; 63
    47ce:	f8 94       	cli
    47d0:	8c 91       	ld	r24, X
    47d2:	82 2b       	or	r24, r18
    47d4:	8c 93       	st	X, r24
    47d6:	9f bf       	out	0x3f, r25	; 63
    47d8:	08 95       	ret
    47da:	83 30       	cpi	r24, 0x03	; 3
    47dc:	71 f0       	breq	.+28     	;  0x47fa
    47de:	84 30       	cpi	r24, 0x04	; 4
    47e0:	28 f4       	brcc	.+10     	;  0x47ec
    47e2:	81 30       	cpi	r24, 0x01	; 1
    47e4:	a1 f0       	breq	.+40     	;  0x480e
    47e6:	82 30       	cpi	r24, 0x02	; 2
    47e8:	21 f5       	brne	.+72     	;  0x4832
    47ea:	14 c0       	rjmp	.+40     	;  0x4814
    47ec:	86 30       	cpi	r24, 0x06	; 6
    47ee:	b1 f0       	breq	.+44     	;  0x481c
    47f0:	87 30       	cpi	r24, 0x07	; 7
    47f2:	d1 f0       	breq	.+52     	;  0x4828
    47f4:	84 30       	cpi	r24, 0x04	; 4
    47f6:	e9 f4       	brne	.+58     	;  0x4832
    47f8:	04 c0       	rjmp	.+8      	;  0x4802
    47fa:	80 91 80 00 	lds	r24, 0x0080
    47fe:	8f 77       	andi	r24, 0x7F	; 127
    4800:	03 c0       	rjmp	.+6      	;  0x4808
    4802:	80 91 80 00 	lds	r24, 0x0080
    4806:	8f 7d       	andi	r24, 0xDF	; 223
    4808:	80 93 80 00 	sts	0x0080, r24
    480c:	08 95       	ret
    480e:	84 b5       	in	r24, 0x24	; 36
    4810:	8f 77       	andi	r24, 0x7F	; 127
    4812:	02 c0       	rjmp	.+4      	;  0x4818
    4814:	84 b5       	in	r24, 0x24	; 36
    4816:	8f 7d       	andi	r24, 0xDF	; 223
    4818:	84 bd       	out	0x24, r24	; 36
    481a:	08 95       	ret
    481c:	80 91 b0 00 	lds	r24, 0x00B0
    4820:	8f 77       	andi	r24, 0x7F	; 127
    4822:	80 93 b0 00 	sts	0x00B0, r24
    4826:	08 95       	ret
    4828:	80 91 b0 00 	lds	r24, 0x00B0
    482c:	8f 7d       	andi	r24, 0xDF	; 223
    482e:	80 93 b0 00 	sts	0x00B0, r24
    4832:	08 95       	ret
    4834:	ff 92       	push	r15
    4836:	0f 93       	push	r16
    4838:	1f 93       	push	r17
    483a:	f6 2e       	mov	r15, r22
    483c:	48 2f       	mov	r20, r24
    483e:	50 e0       	ldi	r21, 0x00	; 0
    4840:	ca 01       	movw	r24, r20
    4842:	84 54       	subi	r24, 0x44	; 68
    4844:	9e 4f       	sbci	r25, 0xFE	; 254
    4846:	fc 01       	movw	r30, r24
    4848:	24 91       	lpm	r18, Z+
    484a:	ca 01       	movw	r24, r20
    484c:	88 55       	subi	r24, 0x58	; 88
    484e:	9e 4f       	sbci	r25, 0xFE	; 254
    4850:	fc 01       	movw	r30, r24
    4852:	14 91       	lpm	r17, Z+
    4854:	4c 56       	subi	r20, 0x6C	; 108
    4856:	5e 4f       	sbci	r21, 0xFE	; 254
    4858:	fa 01       	movw	r30, r20
    485a:	04 91       	lpm	r16, Z+
    485c:	00 23       	and	r16, r16
    485e:	d9 f0       	breq	.+54     	;  0x4896
    4860:	22 23       	and	r18, r18
    4862:	19 f0       	breq	.+6      	;  0x486a
    4864:	82 2f       	mov	r24, r18
    4866:	0e 94 ed 23 	call	0x47da	;  0x47da
    486a:	e0 2f       	mov	r30, r16
    486c:	f0 e0       	ldi	r31, 0x00	; 0
    486e:	ee 0f       	add	r30, r30
    4870:	ff 1f       	adc	r31, r31
    4872:	e0 58       	subi	r30, 0x80	; 128
    4874:	fe 4f       	sbci	r31, 0xFE	; 254
    4876:	a5 91       	lpm	r26, Z+
    4878:	b4 91       	lpm	r27, Z+
    487a:	ff 20       	and	r15, r15
    487c:	31 f4       	brne	.+12     	;  0x488a
    487e:	9f b7       	in	r25, 0x3f	; 63
    4880:	f8 94       	cli
    4882:	8c 91       	ld	r24, X
    4884:	10 95       	com	r17
    4886:	81 23       	and	r24, r17
    4888:	04 c0       	rjmp	.+8      	;  0x4892
    488a:	9f b7       	in	r25, 0x3f	; 63
    488c:	f8 94       	cli
    488e:	8c 91       	ld	r24, X
    4890:	81 2b       	or	r24, r17
    4892:	8c 93       	st	X, r24
    4894:	9f bf       	out	0x3f, r25	; 63
    4896:	1f 91       	pop	r17
    4898:	0f 91       	pop	r16
    489a:	ff 90       	pop	r15
    489c:	08 95       	ret
    489e:	0f 93       	push	r16
    48a0:	1f 93       	push	r17
    48a2:	48 2f       	mov	r20, r24
    48a4:	50 e0       	ldi	r21, 0x00	; 0
    48a6:	ca 01       	movw	r24, r20
    48a8:	84 54       	subi	r24, 0x44	; 68
    48aa:	9e 4f       	sbci	r25, 0xFE	; 254
    48ac:	fc 01       	movw	r30, r24
    48ae:	24 91       	lpm	r18, Z+
    48b0:	ca 01       	movw	r24, r20
    48b2:	88 55       	subi	r24, 0x58	; 88
    48b4:	9e 4f       	sbci	r25, 0xFE	; 254
    48b6:	fc 01       	movw	r30, r24
    48b8:	04 91       	lpm	r16, Z+
    48ba:	4c 56       	subi	r20, 0x6C	; 108
    48bc:	5e 4f       	sbci	r21, 0xFE	; 254
    48be:	fa 01       	movw	r30, r20
    48c0:	14 91       	lpm	r17, Z+
    48c2:	11 23       	and	r17, r17
    48c4:	19 f4       	brne	.+6      	;  0x48cc
    48c6:	20 e0       	ldi	r18, 0x00	; 0
    48c8:	30 e0       	ldi	r19, 0x00	; 0
    48ca:	15 c0       	rjmp	.+42     	;  0x48f6
    48cc:	22 23       	and	r18, r18
    48ce:	19 f0       	breq	.+6      	;  0x48d6
    48d0:	82 2f       	mov	r24, r18
    48d2:	0e 94 ed 23 	call	0x47da	;  0x47da
    48d6:	81 2f       	mov	r24, r17
    48d8:	90 e0       	ldi	r25, 0x00	; 0
    48da:	88 0f       	add	r24, r24
    48dc:	99 1f       	adc	r25, r25
    48de:	86 57       	subi	r24, 0x76	; 118
    48e0:	9e 4f       	sbci	r25, 0xFE	; 254
    48e2:	fc 01       	movw	r30, r24
    48e4:	a5 91       	lpm	r26, Z+
    48e6:	b4 91       	lpm	r27, Z+
    48e8:	8c 91       	ld	r24, X
    48ea:	20 e0       	ldi	r18, 0x00	; 0
    48ec:	30 e0       	ldi	r19, 0x00	; 0
    48ee:	80 23       	and	r24, r16
    48f0:	11 f0       	breq	.+4      	;  0x48f6
    48f2:	21 e0       	ldi	r18, 0x01	; 1
    48f4:	30 e0       	ldi	r19, 0x00	; 0
    48f6:	c9 01       	movw	r24, r18
    48f8:	1f 91       	pop	r17
    48fa:	0f 91       	pop	r16
    48fc:	08 95       	ret
    48fe:	50 58       	subi	r21, 0x80	; 128
    4900:	bb 27       	eor	r27, r27
    4902:	aa 27       	eor	r26, r26
    4904:	0e d0       	rcall	.+28     	;  0x4922
    4906:	75 c1       	rjmp	.+746    	;  0x4bf2
    4908:	66 d1       	rcall	.+716    	;  0x4bd6
    490a:	30 f0       	brcs	.+12     	;  0x4918
    490c:	6b d1       	rcall	.+726    	;  0x4be4
    490e:	20 f0       	brcs	.+8      	;  0x4918
    4910:	31 f4       	brne	.+12     	;  0x491e
    4912:	9f 3f       	cpi	r25, 0xFF	; 255
    4914:	11 f4       	brne	.+4      	;  0x491a
    4916:	1e f4       	brtc	.+6      	;  0x491e
    4918:	5b c1       	rjmp	.+694    	;  0x4bd0
    491a:	0e f4       	brtc	.+2      	;  0x491e
    491c:	e0 95       	com	r30
    491e:	e7 fb       	bst	r30, 7
    4920:	51 c1       	rjmp	.+674    	;  0x4bc4
    4922:	e9 2f       	mov	r30, r25
    4924:	77 d1       	rcall	.+750    	;  0x4c14
    4926:	80 f3       	brcs	.-32     	;  0x4908
    4928:	ba 17       	cp	r27, r26
    492a:	62 07       	cpc	r22, r18
    492c:	73 07       	cpc	r23, r19
    492e:	84 07       	cpc	r24, r20
    4930:	95 07       	cpc	r25, r21
    4932:	18 f0       	brcs	.+6      	;  0x493a
    4934:	71 f4       	brne	.+28     	;  0x4952
    4936:	9e f5       	brtc	.+102    	;  0x499e
    4938:	8f c1       	rjmp	.+798    	;  0x4c58
    493a:	0e f4       	brtc	.+2      	;  0x493e
    493c:	e0 95       	com	r30
    493e:	0b 2e       	mov	r0, r27
    4940:	ba 2f       	mov	r27, r26
    4942:	a0 2d       	mov	r26, r0
    4944:	0b 01       	movw	r0, r22
    4946:	b9 01       	movw	r22, r18
    4948:	90 01       	movw	r18, r0
    494a:	0c 01       	movw	r0, r24
    494c:	ca 01       	movw	r24, r20
    494e:	a0 01       	movw	r20, r0
    4950:	11 24       	eor	r1, r1
    4952:	ff 27       	eor	r31, r31
    4954:	59 1b       	sub	r21, r25
    4956:	99 f0       	breq	.+38     	;  0x497e
    4958:	59 3f       	cpi	r21, 0xF9	; 249
    495a:	50 f4       	brcc	.+20     	;  0x4970
    495c:	50 3e       	cpi	r21, 0xE0	; 224
    495e:	68 f1       	brcs	.+90     	;  0x49ba
    4960:	1a 16       	cp	r1, r26
    4962:	f0 40       	sbci	r31, 0x00	; 0
    4964:	a2 2f       	mov	r26, r18
    4966:	23 2f       	mov	r18, r19
    4968:	34 2f       	mov	r19, r20
    496a:	44 27       	eor	r20, r20
    496c:	58 5f       	subi	r21, 0xF8	; 248
    496e:	f3 cf       	rjmp	.-26     	;  0x4956
    4970:	46 95       	lsr	r20
    4972:	37 95       	ror	r19
    4974:	27 95       	ror	r18
    4976:	a7 95       	ror	r26
    4978:	f0 40       	sbci	r31, 0x00	; 0
    497a:	53 95       	inc	r21
    497c:	c9 f7       	brne	.-14     	;  0x4970
    497e:	7e f4       	brtc	.+30     	;  0x499e
    4980:	1f 16       	cp	r1, r31
    4982:	ba 0b       	sbc	r27, r26
    4984:	62 0b       	sbc	r22, r18
    4986:	73 0b       	sbc	r23, r19
    4988:	84 0b       	sbc	r24, r20
    498a:	ba f0       	brmi	.+46     	;  0x49ba
    498c:	91 50       	subi	r25, 0x01	; 1
    498e:	a1 f0       	breq	.+40     	;  0x49b8
    4990:	ff 0f       	add	r31, r31
    4992:	bb 1f       	adc	r27, r27
    4994:	66 1f       	adc	r22, r22
    4996:	77 1f       	adc	r23, r23
    4998:	88 1f       	adc	r24, r24
    499a:	c2 f7       	brpl	.-16     	;  0x498c
    499c:	0e c0       	rjmp	.+28     	;  0x49ba
    499e:	ba 0f       	add	r27, r26
    49a0:	62 1f       	adc	r22, r18
    49a2:	73 1f       	adc	r23, r19
    49a4:	84 1f       	adc	r24, r20
    49a6:	48 f4       	brcc	.+18     	;  0x49ba
    49a8:	87 95       	ror	r24
    49aa:	77 95       	ror	r23
    49ac:	67 95       	ror	r22
    49ae:	b7 95       	ror	r27
    49b0:	f7 95       	ror	r31
    49b2:	9e 3f       	cpi	r25, 0xFE	; 254
    49b4:	08 f0       	brcs	.+2      	;  0x49b8
    49b6:	b3 cf       	rjmp	.-154    	;  0x491e
    49b8:	93 95       	inc	r25
    49ba:	88 0f       	add	r24, r24
    49bc:	08 f0       	brcs	.+2      	;  0x49c0
    49be:	99 27       	eor	r25, r25
    49c0:	ee 0f       	add	r30, r30
    49c2:	97 95       	ror	r25
    49c4:	87 95       	ror	r24
    49c6:	08 95       	ret
    49c8:	d9 d0       	rcall	.+434    	;  0x4b7c
    49ca:	08 f4       	brcc	.+2      	;  0x49ce
    49cc:	81 e0       	ldi	r24, 0x01	; 1
    49ce:	08 95       	ret
    49d0:	0c d0       	rcall	.+24     	;  0x49ea
    49d2:	0f c1       	rjmp	.+542    	;  0x4bf2
    49d4:	07 d1       	rcall	.+526    	;  0x4be4
    49d6:	40 f0       	brcs	.+16     	;  0x49e8
    49d8:	fe d0       	rcall	.+508    	;  0x4bd6
    49da:	30 f0       	brcs	.+12     	;  0x49e8
    49dc:	21 f4       	brne	.+8      	;  0x49e6
    49de:	5f 3f       	cpi	r21, 0xFF	; 255
    49e0:	19 f0       	breq	.+6      	;  0x49e8
    49e2:	f0 c0       	rjmp	.+480    	;  0x4bc4
    49e4:	51 11       	cpse	r21, r1
    49e6:	39 c1       	rjmp	.+626    	;  0x4c5a
    49e8:	f3 c0       	rjmp	.+486    	;  0x4bd0
    49ea:	14 d1       	rcall	.+552    	;  0x4c14
    49ec:	98 f3       	brcs	.-26     	;  0x49d4
    49ee:	99 23       	and	r25, r25
    49f0:	c9 f3       	breq	.-14     	;  0x49e4
    49f2:	55 23       	and	r21, r21
    49f4:	b1 f3       	breq	.-20     	;  0x49e2
    49f6:	95 1b       	sub	r25, r21
    49f8:	55 0b       	sbc	r21, r21
    49fa:	bb 27       	eor	r27, r27
    49fc:	aa 27       	eor	r26, r26
    49fe:	62 17       	cp	r22, r18
    4a00:	73 07       	cpc	r23, r19
    4a02:	84 07       	cpc	r24, r20
    4a04:	38 f0       	brcs	.+14     	;  0x4a14
    4a06:	9f 5f       	subi	r25, 0xFF	; 255
    4a08:	5f 4f       	sbci	r21, 0xFF	; 255
    4a0a:	22 0f       	add	r18, r18
    4a0c:	33 1f       	adc	r19, r19
    4a0e:	44 1f       	adc	r20, r20
    4a10:	aa 1f       	adc	r26, r26
    4a12:	a9 f3       	breq	.-22     	;  0x49fe
    4a14:	33 d0       	rcall	.+102    	;  0x4a7c
    4a16:	0e 2e       	mov	r0, r30
    4a18:	3a f0       	brmi	.+14     	;  0x4a28
    4a1a:	e0 e8       	ldi	r30, 0x80	; 128
    4a1c:	30 d0       	rcall	.+96     	;  0x4a7e
    4a1e:	91 50       	subi	r25, 0x01	; 1
    4a20:	50 40       	sbci	r21, 0x00	; 0
    4a22:	e6 95       	lsr	r30
    4a24:	00 1c       	adc	r0, r0
    4a26:	ca f7       	brpl	.-14     	;  0x4a1a
    4a28:	29 d0       	rcall	.+82     	;  0x4a7c
    4a2a:	fe 2f       	mov	r31, r30
    4a2c:	27 d0       	rcall	.+78     	;  0x4a7c
    4a2e:	66 0f       	add	r22, r22
    4a30:	77 1f       	adc	r23, r23
    4a32:	88 1f       	adc	r24, r24
    4a34:	bb 1f       	adc	r27, r27
    4a36:	26 17       	cp	r18, r22
    4a38:	37 07       	cpc	r19, r23
    4a3a:	48 07       	cpc	r20, r24
    4a3c:	ab 07       	cpc	r26, r27
    4a3e:	b0 e8       	ldi	r27, 0x80	; 128
    4a40:	09 f0       	breq	.+2      	;  0x4a44
    4a42:	bb 0b       	sbc	r27, r27
    4a44:	80 2d       	mov	r24, r0
    4a46:	bf 01       	movw	r22, r30
    4a48:	ff 27       	eor	r31, r31
    4a4a:	93 58       	subi	r25, 0x83	; 131
    4a4c:	5f 4f       	sbci	r21, 0xFF	; 255
    4a4e:	2a f0       	brmi	.+10     	;  0x4a5a
    4a50:	9e 3f       	cpi	r25, 0xFE	; 254
    4a52:	51 05       	cpc	r21, r1
    4a54:	68 f0       	brcs	.+26     	;  0x4a70
    4a56:	b6 c0       	rjmp	.+364    	;  0x4bc4
    4a58:	00 c1       	rjmp	.+512    	;  0x4c5a
    4a5a:	5f 3f       	cpi	r21, 0xFF	; 255
    4a5c:	ec f3       	brlt	.-6      	;  0x4a58
    4a5e:	98 3e       	cpi	r25, 0xE8	; 232
    4a60:	dc f3       	brlt	.-10     	;  0x4a58
    4a62:	86 95       	lsr	r24
    4a64:	77 95       	ror	r23
    4a66:	67 95       	ror	r22
    4a68:	b7 95       	ror	r27
    4a6a:	f7 95       	ror	r31
    4a6c:	9f 5f       	subi	r25, 0xFF	; 255
    4a6e:	c9 f7       	brne	.-14     	;  0x4a62
    4a70:	88 0f       	add	r24, r24
    4a72:	91 1d       	adc	r25, r1
    4a74:	96 95       	lsr	r25
    4a76:	87 95       	ror	r24
    4a78:	97 f9       	bld	r25, 7
    4a7a:	08 95       	ret
    4a7c:	e1 e0       	ldi	r30, 0x01	; 1
    4a7e:	66 0f       	add	r22, r22
    4a80:	77 1f       	adc	r23, r23
    4a82:	88 1f       	adc	r24, r24
    4a84:	bb 1f       	adc	r27, r27
    4a86:	62 17       	cp	r22, r18
    4a88:	73 07       	cpc	r23, r19
    4a8a:	84 07       	cpc	r24, r20
    4a8c:	ba 07       	cpc	r27, r26
    4a8e:	20 f0       	brcs	.+8      	;  0x4a98
    4a90:	62 1b       	sub	r22, r18
    4a92:	73 0b       	sbc	r23, r19
    4a94:	84 0b       	sbc	r24, r20
    4a96:	ba 0b       	sbc	r27, r26
    4a98:	ee 1f       	adc	r30, r30
    4a9a:	88 f7       	brcc	.-30     	;  0x4a7e
    4a9c:	e0 95       	com	r30
    4a9e:	08 95       	ret
    4aa0:	04 d0       	rcall	.+8      	;  0x4aaa
    4aa2:	68 94       	set
    4aa4:	b1 11       	cpse	r27, r1
    4aa6:	d9 c0       	rjmp	.+434    	;  0x4c5a
    4aa8:	08 95       	ret
    4aaa:	bc d0       	rcall	.+376    	;  0x4c24
    4aac:	88 f0       	brcs	.+34     	;  0x4ad0
    4aae:	9f 57       	subi	r25, 0x7F	; 127
    4ab0:	90 f0       	brcs	.+36     	;  0x4ad6
    4ab2:	b9 2f       	mov	r27, r25
    4ab4:	99 27       	eor	r25, r25
    4ab6:	b7 51       	subi	r27, 0x17	; 23
    4ab8:	a0 f0       	brcs	.+40     	;  0x4ae2
    4aba:	d1 f0       	breq	.+52     	;  0x4af0
    4abc:	66 0f       	add	r22, r22
    4abe:	77 1f       	adc	r23, r23
    4ac0:	88 1f       	adc	r24, r24
    4ac2:	99 1f       	adc	r25, r25
    4ac4:	1a f0       	brmi	.+6      	;  0x4acc
    4ac6:	ba 95       	dec	r27
    4ac8:	c9 f7       	brne	.-14     	;  0x4abc
    4aca:	12 c0       	rjmp	.+36     	;  0x4af0
    4acc:	b1 30       	cpi	r27, 0x01	; 1
    4ace:	81 f0       	breq	.+32     	;  0x4af0
    4ad0:	c3 d0       	rcall	.+390    	;  0x4c58
    4ad2:	b1 e0       	ldi	r27, 0x01	; 1
    4ad4:	08 95       	ret
    4ad6:	c0 c0       	rjmp	.+384    	;  0x4c58
    4ad8:	67 2f       	mov	r22, r23
    4ada:	78 2f       	mov	r23, r24
    4adc:	88 27       	eor	r24, r24
    4ade:	b8 5f       	subi	r27, 0xF8	; 248
    4ae0:	39 f0       	breq	.+14     	;  0x4af0
    4ae2:	b9 3f       	cpi	r27, 0xF9	; 249
    4ae4:	cc f3       	brlt	.-14     	;  0x4ad8
    4ae6:	86 95       	lsr	r24
    4ae8:	77 95       	ror	r23
    4aea:	67 95       	ror	r22
    4aec:	b3 95       	inc	r27
    4aee:	d9 f7       	brne	.-10     	;  0x4ae6
    4af0:	3e f4       	brtc	.+14     	;  0x4b00
    4af2:	90 95       	com	r25
    4af4:	80 95       	com	r24
    4af6:	70 95       	com	r23
    4af8:	61 95       	neg	r22
    4afa:	7f 4f       	sbci	r23, 0xFF	; 255
    4afc:	8f 4f       	sbci	r24, 0xFF	; 255
    4afe:	9f 4f       	sbci	r25, 0xFF	; 255
    4b00:	08 95       	ret
    4b02:	e8 94       	clt
    4b04:	09 c0       	rjmp	.+18     	;  0x4b18
    4b06:	97 fb       	bst	r25, 7
    4b08:	3e f4       	brtc	.+14     	;  0x4b18
    4b0a:	90 95       	com	r25
    4b0c:	80 95       	com	r24
    4b0e:	70 95       	com	r23
    4b10:	61 95       	neg	r22
    4b12:	7f 4f       	sbci	r23, 0xFF	; 255
    4b14:	8f 4f       	sbci	r24, 0xFF	; 255
    4b16:	9f 4f       	sbci	r25, 0xFF	; 255
    4b18:	99 23       	and	r25, r25
    4b1a:	a9 f0       	breq	.+42     	;  0x4b46
    4b1c:	f9 2f       	mov	r31, r25
    4b1e:	96 e9       	ldi	r25, 0x96	; 150
    4b20:	bb 27       	eor	r27, r27
    4b22:	93 95       	inc	r25
    4b24:	f6 95       	lsr	r31
    4b26:	87 95       	ror	r24
    4b28:	77 95       	ror	r23
    4b2a:	67 95       	ror	r22
    4b2c:	b7 95       	ror	r27
    4b2e:	f1 11       	cpse	r31, r1
    4b30:	f8 cf       	rjmp	.-16     	;  0x4b22
    4b32:	fa f4       	brpl	.+62     	;  0x4b72
    4b34:	bb 0f       	add	r27, r27
    4b36:	11 f4       	brne	.+4      	;  0x4b3c
    4b38:	60 ff       	sbrs	r22, 0
    4b3a:	1b c0       	rjmp	.+54     	;  0x4b72
    4b3c:	6f 5f       	subi	r22, 0xFF	; 255
    4b3e:	7f 4f       	sbci	r23, 0xFF	; 255
    4b40:	8f 4f       	sbci	r24, 0xFF	; 255
    4b42:	9f 4f       	sbci	r25, 0xFF	; 255
    4b44:	16 c0       	rjmp	.+44     	;  0x4b72
    4b46:	88 23       	and	r24, r24
    4b48:	11 f0       	breq	.+4      	;  0x4b4e
    4b4a:	96 e9       	ldi	r25, 0x96	; 150
    4b4c:	11 c0       	rjmp	.+34     	;  0x4b70
    4b4e:	77 23       	and	r23, r23
    4b50:	21 f0       	breq	.+8      	;  0x4b5a
    4b52:	9e e8       	ldi	r25, 0x8E	; 142
    4b54:	87 2f       	mov	r24, r23
    4b56:	76 2f       	mov	r23, r22
    4b58:	05 c0       	rjmp	.+10     	;  0x4b64
    4b5a:	66 23       	and	r22, r22
    4b5c:	71 f0       	breq	.+28     	;  0x4b7a
    4b5e:	96 e8       	ldi	r25, 0x86	; 134
    4b60:	86 2f       	mov	r24, r22
    4b62:	70 e0       	ldi	r23, 0x00	; 0
    4b64:	60 e0       	ldi	r22, 0x00	; 0
    4b66:	2a f0       	brmi	.+10     	;  0x4b72
    4b68:	9a 95       	dec	r25
    4b6a:	66 0f       	add	r22, r22
    4b6c:	77 1f       	adc	r23, r23
    4b6e:	88 1f       	adc	r24, r24
    4b70:	da f7       	brpl	.-10     	;  0x4b68
    4b72:	88 0f       	add	r24, r24
    4b74:	96 95       	lsr	r25
    4b76:	87 95       	ror	r24
    4b78:	97 f9       	bld	r25, 7
    4b7a:	08 95       	ret
    4b7c:	99 0f       	add	r25, r25
    4b7e:	00 08       	sbc	r0, r0
    4b80:	55 0f       	add	r21, r21
    4b82:	aa 0b       	sbc	r26, r26
    4b84:	e0 e8       	ldi	r30, 0x80	; 128
    4b86:	fe ef       	ldi	r31, 0xFE	; 254
    4b88:	16 16       	cp	r1, r22
    4b8a:	17 06       	cpc	r1, r23
    4b8c:	e8 07       	cpc	r30, r24
    4b8e:	f9 07       	cpc	r31, r25
    4b90:	c0 f0       	brcs	.+48     	;  0x4bc2
    4b92:	12 16       	cp	r1, r18
    4b94:	13 06       	cpc	r1, r19
    4b96:	e4 07       	cpc	r30, r20
    4b98:	f5 07       	cpc	r31, r21
    4b9a:	98 f0       	brcs	.+38     	;  0x4bc2
    4b9c:	62 1b       	sub	r22, r18
    4b9e:	73 0b       	sbc	r23, r19
    4ba0:	84 0b       	sbc	r24, r20
    4ba2:	95 0b       	sbc	r25, r21
    4ba4:	39 f4       	brne	.+14     	;  0x4bb4
    4ba6:	0a 26       	eor	r0, r26
    4ba8:	61 f0       	breq	.+24     	;  0x4bc2
    4baa:	23 2b       	or	r18, r19
    4bac:	24 2b       	or	r18, r20
    4bae:	25 2b       	or	r18, r21
    4bb0:	21 f4       	brne	.+8      	;  0x4bba
    4bb2:	08 95       	ret
    4bb4:	0a 26       	eor	r0, r26
    4bb6:	09 f4       	brne	.+2      	;  0x4bba
    4bb8:	a1 40       	sbci	r26, 0x01	; 1
    4bba:	a6 95       	lsr	r26
    4bbc:	8f ef       	ldi	r24, 0xFF	; 255
    4bbe:	81 1d       	adc	r24, r1
    4bc0:	81 1d       	adc	r24, r1
    4bc2:	08 95       	ret
    4bc4:	97 f9       	bld	r25, 7
    4bc6:	9f 67       	ori	r25, 0x7F	; 127
    4bc8:	80 e8       	ldi	r24, 0x80	; 128
    4bca:	70 e0       	ldi	r23, 0x00	; 0
    4bcc:	60 e0       	ldi	r22, 0x00	; 0
    4bce:	08 95       	ret
    4bd0:	9f ef       	ldi	r25, 0xFF	; 255
    4bd2:	80 ec       	ldi	r24, 0xC0	; 192
    4bd4:	08 95       	ret
    4bd6:	00 24       	eor	r0, r0
    4bd8:	0a 94       	dec	r0
    4bda:	16 16       	cp	r1, r22
    4bdc:	17 06       	cpc	r1, r23
    4bde:	18 06       	cpc	r1, r24
    4be0:	09 06       	cpc	r0, r25
    4be2:	08 95       	ret
    4be4:	00 24       	eor	r0, r0
    4be6:	0a 94       	dec	r0
    4be8:	12 16       	cp	r1, r18
    4bea:	13 06       	cpc	r1, r19
    4bec:	14 06       	cpc	r1, r20
    4bee:	05 06       	cpc	r0, r21
    4bf0:	08 95       	ret
    4bf2:	09 2e       	mov	r0, r25
    4bf4:	03 94       	inc	r0
    4bf6:	00 0c       	add	r0, r0
    4bf8:	11 f4       	brne	.+4      	;  0x4bfe
    4bfa:	88 23       	and	r24, r24
    4bfc:	52 f0       	brmi	.+20     	;  0x4c12
    4bfe:	bb 0f       	add	r27, r27
    4c00:	40 f4       	brcc	.+16     	;  0x4c12
    4c02:	bf 2b       	or	r27, r31
    4c04:	11 f4       	brne	.+4      	;  0x4c0a
    4c06:	60 ff       	sbrs	r22, 0
    4c08:	04 c0       	rjmp	.+8      	;  0x4c12
    4c0a:	6f 5f       	subi	r22, 0xFF	; 255
    4c0c:	7f 4f       	sbci	r23, 0xFF	; 255
    4c0e:	8f 4f       	sbci	r24, 0xFF	; 255
    4c10:	9f 4f       	sbci	r25, 0xFF	; 255
    4c12:	08 95       	ret
    4c14:	57 fd       	sbrc	r21, 7
    4c16:	90 58       	subi	r25, 0x80	; 128
    4c18:	44 0f       	add	r20, r20
    4c1a:	55 1f       	adc	r21, r21
    4c1c:	59 f0       	breq	.+22     	;  0x4c34
    4c1e:	5f 3f       	cpi	r21, 0xFF	; 255
    4c20:	71 f0       	breq	.+28     	;  0x4c3e
    4c22:	47 95       	ror	r20
    4c24:	88 0f       	add	r24, r24
    4c26:	97 fb       	bst	r25, 7
    4c28:	99 1f       	adc	r25, r25
    4c2a:	61 f0       	breq	.+24     	;  0x4c44
    4c2c:	9f 3f       	cpi	r25, 0xFF	; 255
    4c2e:	79 f0       	breq	.+30     	;  0x4c4e
    4c30:	87 95       	ror	r24
    4c32:	08 95       	ret
    4c34:	12 16       	cp	r1, r18
    4c36:	13 06       	cpc	r1, r19
    4c38:	14 06       	cpc	r1, r20
    4c3a:	55 1f       	adc	r21, r21
    4c3c:	f2 cf       	rjmp	.-28     	;  0x4c22
    4c3e:	46 95       	lsr	r20
    4c40:	f1 df       	rcall	.-30     	;  0x4c24
    4c42:	08 c0       	rjmp	.+16     	;  0x4c54
    4c44:	16 16       	cp	r1, r22
    4c46:	17 06       	cpc	r1, r23
    4c48:	18 06       	cpc	r1, r24
    4c4a:	99 1f       	adc	r25, r25
    4c4c:	f1 cf       	rjmp	.-30     	;  0x4c30
    4c4e:	86 95       	lsr	r24
    4c50:	71 05       	cpc	r23, r1
    4c52:	61 05       	cpc	r22, r1
    4c54:	08 94       	sec
    4c56:	08 95       	ret
    4c58:	e8 94       	clt
    4c5a:	bb 27       	eor	r27, r27
    4c5c:	66 27       	eor	r22, r22
    4c5e:	77 27       	eor	r23, r23
    4c60:	cb 01       	movw	r24, r22
    4c62:	97 f9       	bld	r25, 7
    4c64:	08 95       	ret
    4c66:	0b d0       	rcall	.+22     	;  0x4c7e
    4c68:	c4 cf       	rjmp	.-120    	;  0x4bf2
    4c6a:	b5 df       	rcall	.-150    	;  0x4bd6
    4c6c:	28 f0       	brcs	.+10     	;  0x4c78
    4c6e:	ba df       	rcall	.-140    	;  0x4be4
    4c70:	18 f0       	brcs	.+6      	;  0x4c78
    4c72:	95 23       	and	r25, r21
    4c74:	09 f0       	breq	.+2      	;  0x4c78
    4c76:	a6 cf       	rjmp	.-180    	;  0x4bc4
    4c78:	ab cf       	rjmp	.-170    	;  0x4bd0
    4c7a:	11 24       	eor	r1, r1
    4c7c:	ee cf       	rjmp	.-36     	;  0x4c5a
    4c7e:	ca df       	rcall	.-108    	;  0x4c14
    4c80:	a0 f3       	brcs	.-24     	;  0x4c6a
    4c82:	95 9f       	mul	r25, r21
    4c84:	d1 f3       	breq	.-12     	;  0x4c7a
    4c86:	95 0f       	add	r25, r21
    4c88:	50 e0       	ldi	r21, 0x00	; 0
    4c8a:	55 1f       	adc	r21, r21
    4c8c:	62 9f       	mul	r22, r18
    4c8e:	f0 01       	movw	r30, r0
    4c90:	72 9f       	mul	r23, r18
    4c92:	bb 27       	eor	r27, r27
    4c94:	f0 0d       	add	r31, r0
    4c96:	b1 1d       	adc	r27, r1
    4c98:	63 9f       	mul	r22, r19
    4c9a:	aa 27       	eor	r26, r26
    4c9c:	f0 0d       	add	r31, r0
    4c9e:	b1 1d       	adc	r27, r1
    4ca0:	aa 1f       	adc	r26, r26
    4ca2:	64 9f       	mul	r22, r20
    4ca4:	66 27       	eor	r22, r22
    4ca6:	b0 0d       	add	r27, r0
    4ca8:	a1 1d       	adc	r26, r1
    4caa:	66 1f       	adc	r22, r22
    4cac:	82 9f       	mul	r24, r18
    4cae:	22 27       	eor	r18, r18
    4cb0:	b0 0d       	add	r27, r0
    4cb2:	a1 1d       	adc	r26, r1
    4cb4:	62 1f       	adc	r22, r18
    4cb6:	73 9f       	mul	r23, r19
    4cb8:	b0 0d       	add	r27, r0
    4cba:	a1 1d       	adc	r26, r1
    4cbc:	62 1f       	adc	r22, r18
    4cbe:	83 9f       	mul	r24, r19
    4cc0:	a0 0d       	add	r26, r0
    4cc2:	61 1d       	adc	r22, r1
    4cc4:	22 1f       	adc	r18, r18
    4cc6:	74 9f       	mul	r23, r20
    4cc8:	33 27       	eor	r19, r19
    4cca:	a0 0d       	add	r26, r0
    4ccc:	61 1d       	adc	r22, r1
    4cce:	23 1f       	adc	r18, r19
    4cd0:	84 9f       	mul	r24, r20
    4cd2:	60 0d       	add	r22, r0
    4cd4:	21 1d       	adc	r18, r1
    4cd6:	82 2f       	mov	r24, r18
    4cd8:	76 2f       	mov	r23, r22
    4cda:	6a 2f       	mov	r22, r26
    4cdc:	11 24       	eor	r1, r1
    4cde:	9f 57       	subi	r25, 0x7F	; 127
    4ce0:	50 40       	sbci	r21, 0x00	; 0
    4ce2:	8a f0       	brmi	.+34     	;  0x4d06
    4ce4:	e1 f0       	breq	.+56     	;  0x4d1e
    4ce6:	88 23       	and	r24, r24
    4ce8:	4a f0       	brmi	.+18     	;  0x4cfc
    4cea:	ee 0f       	add	r30, r30
    4cec:	ff 1f       	adc	r31, r31
    4cee:	bb 1f       	adc	r27, r27
    4cf0:	66 1f       	adc	r22, r22
    4cf2:	77 1f       	adc	r23, r23
    4cf4:	88 1f       	adc	r24, r24
    4cf6:	91 50       	subi	r25, 0x01	; 1
    4cf8:	50 40       	sbci	r21, 0x00	; 0
    4cfa:	a9 f7       	brne	.-22     	;  0x4ce6
    4cfc:	9e 3f       	cpi	r25, 0xFE	; 254
    4cfe:	51 05       	cpc	r21, r1
    4d00:	70 f0       	brcs	.+28     	;  0x4d1e
    4d02:	60 cf       	rjmp	.-320    	;  0x4bc4
    4d04:	aa cf       	rjmp	.-172    	;  0x4c5a
    4d06:	5f 3f       	cpi	r21, 0xFF	; 255
    4d08:	ec f3       	brlt	.-6      	;  0x4d04
    4d0a:	98 3e       	cpi	r25, 0xE8	; 232
    4d0c:	dc f3       	brlt	.-10     	;  0x4d04
    4d0e:	86 95       	lsr	r24
    4d10:	77 95       	ror	r23
    4d12:	67 95       	ror	r22
    4d14:	b7 95       	ror	r27
    4d16:	f7 95       	ror	r31
    4d18:	e7 95       	ror	r30
    4d1a:	9f 5f       	subi	r25, 0xFF	; 255
    4d1c:	c1 f7       	brne	.-16     	;  0x4d0e
    4d1e:	fe 2b       	or	r31, r30
    4d20:	88 0f       	add	r24, r24
    4d22:	91 1d       	adc	r25, r1
    4d24:	96 95       	lsr	r25
    4d26:	87 95       	ror	r24
    4d28:	97 f9       	bld	r25, 7
    4d2a:	08 95       	ret
    4d2c:	99 1b       	sub	r25, r25
    4d2e:	79 e0       	ldi	r23, 0x09	; 9
    4d30:	04 c0       	rjmp	.+8      	;  0x4d3a
    4d32:	99 1f       	adc	r25, r25
    4d34:	96 17       	cp	r25, r22
    4d36:	08 f0       	brcs	.+2      	;  0x4d3a
    4d38:	96 1b       	sub	r25, r22
    4d3a:	88 1f       	adc	r24, r24
    4d3c:	7a 95       	dec	r23
    4d3e:	c9 f7       	brne	.-14     	;  0x4d32
    4d40:	80 95       	com	r24
    4d42:	08 95       	ret
    4d44:	97 fb       	bst	r25, 7
    4d46:	09 2e       	mov	r0, r25
    4d48:	07 26       	eor	r0, r23
    4d4a:	0a d0       	rcall	.+20     	;  0x4d60
    4d4c:	77 fd       	sbrc	r23, 7
    4d4e:	04 d0       	rcall	.+8      	;  0x4d58
    4d50:	2e d0       	rcall	.+92     	;  0x4dae
    4d52:	06 d0       	rcall	.+12     	;  0x4d60
    4d54:	00 20       	and	r0, r0
    4d56:	1a f4       	brpl	.+6      	;  0x4d5e
    4d58:	70 95       	com	r23
    4d5a:	61 95       	neg	r22
    4d5c:	7f 4f       	sbci	r23, 0xFF	; 255
    4d5e:	08 95       	ret
    4d60:	f6 f7       	brtc	.-4      	;  0x4d5e
    4d62:	90 95       	com	r25
    4d64:	81 95       	neg	r24
    4d66:	9f 4f       	sbci	r25, 0xFF	; 255
    4d68:	08 95       	ret
    4d6a:	a1 e2       	ldi	r26, 0x21	; 33
    4d6c:	1a 2e       	mov	r1, r26
    4d6e:	aa 1b       	sub	r26, r26
    4d70:	bb 1b       	sub	r27, r27
    4d72:	fd 01       	movw	r30, r26
    4d74:	0d c0       	rjmp	.+26     	;  0x4d90
    4d76:	aa 1f       	adc	r26, r26
    4d78:	bb 1f       	adc	r27, r27
    4d7a:	ee 1f       	adc	r30, r30
    4d7c:	ff 1f       	adc	r31, r31
    4d7e:	a2 17       	cp	r26, r18
    4d80:	b3 07       	cpc	r27, r19
    4d82:	e4 07       	cpc	r30, r20
    4d84:	f5 07       	cpc	r31, r21
    4d86:	20 f0       	brcs	.+8      	;  0x4d90
    4d88:	a2 1b       	sub	r26, r18
    4d8a:	b3 0b       	sbc	r27, r19
    4d8c:	e4 0b       	sbc	r30, r20
    4d8e:	f5 0b       	sbc	r31, r21
    4d90:	66 1f       	adc	r22, r22
    4d92:	77 1f       	adc	r23, r23
    4d94:	88 1f       	adc	r24, r24
    4d96:	99 1f       	adc	r25, r25
    4d98:	1a 94       	dec	r1
    4d9a:	69 f7       	brne	.-38     	;  0x4d76
    4d9c:	60 95       	com	r22
    4d9e:	70 95       	com	r23
    4da0:	80 95       	com	r24
    4da2:	90 95       	com	r25
    4da4:	9b 01       	movw	r18, r22
    4da6:	ac 01       	movw	r20, r24
    4da8:	bd 01       	movw	r22, r26
    4daa:	cf 01       	movw	r24, r30
    4dac:	08 95       	ret
    4dae:	aa 1b       	sub	r26, r26
    4db0:	bb 1b       	sub	r27, r27
    4db2:	51 e1       	ldi	r21, 0x11	; 17
    4db4:	07 c0       	rjmp	.+14     	;  0x4dc4
    4db6:	aa 1f       	adc	r26, r26
    4db8:	bb 1f       	adc	r27, r27
    4dba:	a6 17       	cp	r26, r22
    4dbc:	b7 07       	cpc	r27, r23
    4dbe:	10 f0       	brcs	.+4      	;  0x4dc4
    4dc0:	a6 1b       	sub	r26, r22
    4dc2:	b7 0b       	sbc	r27, r23
    4dc4:	88 1f       	adc	r24, r24
    4dc6:	99 1f       	adc	r25, r25
    4dc8:	5a 95       	dec	r21
    4dca:	a9 f7       	brne	.-22     	;  0x4db6
    4dcc:	80 95       	com	r24
    4dce:	90 95       	com	r25
    4dd0:	bc 01       	movw	r22, r24
    4dd2:	cd 01       	movw	r24, r26
    4dd4:	08 95       	ret
    4dd6:	ee 0f       	add	r30, r30
    4dd8:	ff 1f       	adc	r31, r31
    4dda:	05 90       	lpm	r0, Z+
    4ddc:	f4 91       	lpm	r31, Z+
    4dde:	e0 2d       	mov	r30, r0
    4de0:	09 94       	ijmp
    4de2:	cf 93       	push	r28
    4de4:	df 93       	push	r29
    4de6:	bc 01       	movw	r22, r24
    4de8:	82 30       	cpi	r24, 0x02	; 2
    4dea:	91 05       	cpc	r25, r1
    4dec:	10 f4       	brcc	.+4      	;  0x4df2
    4dee:	62 e0       	ldi	r22, 0x02	; 2
    4df0:	70 e0       	ldi	r23, 0x00	; 0
    4df2:	a0 91 b9 07 	lds	r26, 0x07B9
    4df6:	b0 91 ba 07 	lds	r27, 0x07BA
    4dfa:	ed 01       	movw	r28, r26
    4dfc:	e0 e0       	ldi	r30, 0x00	; 0
    4dfe:	f0 e0       	ldi	r31, 0x00	; 0
    4e00:	40 e0       	ldi	r20, 0x00	; 0
    4e02:	50 e0       	ldi	r21, 0x00	; 0
    4e04:	21 c0       	rjmp	.+66     	;  0x4e48
    4e06:	88 81       	ld	r24, Y
    4e08:	99 81       	ldd	r25, Y+1	; 0x01
    4e0a:	86 17       	cp	r24, r22
    4e0c:	97 07       	cpc	r25, r23
    4e0e:	69 f4       	brne	.+26     	;  0x4e2a
    4e10:	8a 81       	ldd	r24, Y+2	; 0x02
    4e12:	9b 81       	ldd	r25, Y+3	; 0x03
    4e14:	30 97       	sbiw	r30, 0x00	; 0
    4e16:	19 f0       	breq	.+6      	;  0x4e1e
    4e18:	93 83       	std	Z+3, r25	; 0x03
    4e1a:	82 83       	std	Z+2, r24	; 0x02
    4e1c:	04 c0       	rjmp	.+8      	;  0x4e26
    4e1e:	90 93 ba 07 	sts	0x07BA, r25
    4e22:	80 93 b9 07 	sts	0x07B9, r24
    4e26:	fe 01       	movw	r30, r28
    4e28:	34 c0       	rjmp	.+104    	;  0x4e92
    4e2a:	68 17       	cp	r22, r24
    4e2c:	79 07       	cpc	r23, r25
    4e2e:	38 f4       	brcc	.+14     	;  0x4e3e
    4e30:	41 15       	cp	r20, r1
    4e32:	51 05       	cpc	r21, r1
    4e34:	19 f0       	breq	.+6      	;  0x4e3c
    4e36:	84 17       	cp	r24, r20
    4e38:	95 07       	cpc	r25, r21
    4e3a:	08 f4       	brcc	.+2      	;  0x4e3e
    4e3c:	ac 01       	movw	r20, r24
    4e3e:	fe 01       	movw	r30, r28
    4e40:	8a 81       	ldd	r24, Y+2	; 0x02
    4e42:	9b 81       	ldd	r25, Y+3	; 0x03
    4e44:	9c 01       	movw	r18, r24
    4e46:	e9 01       	movw	r28, r18
    4e48:	20 97       	sbiw	r28, 0x00	; 0
    4e4a:	e9 f6       	brne	.-70     	;  0x4e06
    4e4c:	41 15       	cp	r20, r1
    4e4e:	51 05       	cpc	r21, r1
    4e50:	a9 f1       	breq	.+106    	;  0x4ebc
    4e52:	ca 01       	movw	r24, r20
    4e54:	86 1b       	sub	r24, r22
    4e56:	97 0b       	sbc	r25, r23
    4e58:	04 97       	sbiw	r24, 0x04	; 4
    4e5a:	08 f4       	brcc	.+2      	;  0x4e5e
    4e5c:	ba 01       	movw	r22, r20
    4e5e:	e0 e0       	ldi	r30, 0x00	; 0
    4e60:	f0 e0       	ldi	r31, 0x00	; 0
    4e62:	2a c0       	rjmp	.+84     	;  0x4eb8
    4e64:	8d 91       	ld	r24, X+
    4e66:	9c 91       	ld	r25, X
    4e68:	11 97       	sbiw	r26, 0x01	; 1
    4e6a:	84 17       	cp	r24, r20
    4e6c:	95 07       	cpc	r25, r21
    4e6e:	f9 f4       	brne	.+62     	;  0x4eae
    4e70:	64 17       	cp	r22, r20
    4e72:	75 07       	cpc	r23, r21
    4e74:	81 f4       	brne	.+32     	;  0x4e96
    4e76:	12 96       	adiw	r26, 0x02	; 2
    4e78:	8d 91       	ld	r24, X+
    4e7a:	9c 91       	ld	r25, X
    4e7c:	13 97       	sbiw	r26, 0x03	; 3
    4e7e:	30 97       	sbiw	r30, 0x00	; 0
    4e80:	19 f0       	breq	.+6      	;  0x4e88
    4e82:	93 83       	std	Z+3, r25	; 0x03
    4e84:	82 83       	std	Z+2, r24	; 0x02
    4e86:	04 c0       	rjmp	.+8      	;  0x4e90
    4e88:	90 93 ba 07 	sts	0x07BA, r25
    4e8c:	80 93 b9 07 	sts	0x07B9, r24
    4e90:	fd 01       	movw	r30, r26
    4e92:	32 96       	adiw	r30, 0x02	; 2
    4e94:	4f c0       	rjmp	.+158    	;  0x4f34
    4e96:	ca 01       	movw	r24, r20
    4e98:	86 1b       	sub	r24, r22
    4e9a:	97 0b       	sbc	r25, r23
    4e9c:	fd 01       	movw	r30, r26
    4e9e:	e8 0f       	add	r30, r24
    4ea0:	f9 1f       	adc	r31, r25
    4ea2:	61 93       	st	Z+, r22
    4ea4:	71 93       	st	Z+, r23
    4ea6:	02 97       	sbiw	r24, 0x02	; 2
    4ea8:	8d 93       	st	X+, r24
    4eaa:	9c 93       	st	X, r25
    4eac:	43 c0       	rjmp	.+134    	;  0x4f34
    4eae:	fd 01       	movw	r30, r26
    4eb0:	82 81       	ldd	r24, Z+2	; 0x02
    4eb2:	93 81       	ldd	r25, Z+3	; 0x03
    4eb4:	9c 01       	movw	r18, r24
    4eb6:	d9 01       	movw	r26, r18
    4eb8:	10 97       	sbiw	r26, 0x00	; 0
    4eba:	a1 f6       	brne	.-88     	;  0x4e64
    4ebc:	80 91 b7 07 	lds	r24, 0x07B7
    4ec0:	90 91 b8 07 	lds	r25, 0x07B8
    4ec4:	89 2b       	or	r24, r25
    4ec6:	41 f4       	brne	.+16     	;  0x4ed8
    4ec8:	80 91 82 05 	lds	r24, 0x0582
    4ecc:	90 91 83 05 	lds	r25, 0x0583
    4ed0:	90 93 b8 07 	sts	0x07B8, r25
    4ed4:	80 93 b7 07 	sts	0x07B7, r24
    4ed8:	40 91 84 05 	lds	r20, 0x0584
    4edc:	50 91 85 05 	lds	r21, 0x0585
    4ee0:	41 15       	cp	r20, r1
    4ee2:	51 05       	cpc	r21, r1
    4ee4:	41 f4       	brne	.+16     	;  0x4ef6
    4ee6:	4d b7       	in	r20, 0x3d	; 61
    4ee8:	5e b7       	in	r21, 0x3e	; 62
    4eea:	80 91 80 05 	lds	r24, 0x0580
    4eee:	90 91 81 05 	lds	r25, 0x0581
    4ef2:	48 1b       	sub	r20, r24
    4ef4:	59 0b       	sbc	r21, r25
    4ef6:	20 91 b7 07 	lds	r18, 0x07B7
    4efa:	30 91 b8 07 	lds	r19, 0x07B8
    4efe:	24 17       	cp	r18, r20
    4f00:	35 07       	cpc	r19, r21
    4f02:	b0 f4       	brcc	.+44     	;  0x4f30
    4f04:	ca 01       	movw	r24, r20
    4f06:	82 1b       	sub	r24, r18
    4f08:	93 0b       	sbc	r25, r19
    4f0a:	86 17       	cp	r24, r22
    4f0c:	97 07       	cpc	r25, r23
    4f0e:	80 f0       	brcs	.+32     	;  0x4f30
    4f10:	ab 01       	movw	r20, r22
    4f12:	4e 5f       	subi	r20, 0xFE	; 254
    4f14:	5f 4f       	sbci	r21, 0xFF	; 255
    4f16:	84 17       	cp	r24, r20
    4f18:	95 07       	cpc	r25, r21
    4f1a:	50 f0       	brcs	.+20     	;  0x4f30
    4f1c:	42 0f       	add	r20, r18
    4f1e:	53 1f       	adc	r21, r19
    4f20:	50 93 b8 07 	sts	0x07B8, r21
    4f24:	40 93 b7 07 	sts	0x07B7, r20
    4f28:	f9 01       	movw	r30, r18
    4f2a:	61 93       	st	Z+, r22
    4f2c:	71 93       	st	Z+, r23
    4f2e:	02 c0       	rjmp	.+4      	;  0x4f34
    4f30:	e0 e0       	ldi	r30, 0x00	; 0
    4f32:	f0 e0       	ldi	r31, 0x00	; 0
    4f34:	cf 01       	movw	r24, r30
    4f36:	df 91       	pop	r29
    4f38:	cf 91       	pop	r28
    4f3a:	08 95       	ret
    4f3c:	cf 93       	push	r28
    4f3e:	df 93       	push	r29
    4f40:	00 97       	sbiw	r24, 0x00	; 0
    4f42:	09 f4       	brne	.+2      	;  0x4f46
    4f44:	50 c0       	rjmp	.+160    	;  0x4fe6
    4f46:	ec 01       	movw	r28, r24
    4f48:	22 97       	sbiw	r28, 0x02	; 2
    4f4a:	1b 82       	std	Y+3, r1	; 0x03
    4f4c:	1a 82       	std	Y+2, r1	; 0x02
    4f4e:	a0 91 b9 07 	lds	r26, 0x07B9
    4f52:	b0 91 ba 07 	lds	r27, 0x07BA
    4f56:	10 97       	sbiw	r26, 0x00	; 0
    4f58:	09 f1       	breq	.+66     	;  0x4f9c
    4f5a:	40 e0       	ldi	r20, 0x00	; 0
    4f5c:	50 e0       	ldi	r21, 0x00	; 0
    4f5e:	ac 17       	cp	r26, r28
    4f60:	bd 07       	cpc	r27, r29
    4f62:	08 f1       	brcs	.+66     	;  0x4fa6
    4f64:	bb 83       	std	Y+3, r27	; 0x03
    4f66:	aa 83       	std	Y+2, r26	; 0x02
    4f68:	fe 01       	movw	r30, r28
    4f6a:	21 91       	ld	r18, Z+
    4f6c:	31 91       	ld	r19, Z+
    4f6e:	e2 0f       	add	r30, r18
    4f70:	f3 1f       	adc	r31, r19
    4f72:	ae 17       	cp	r26, r30
    4f74:	bf 07       	cpc	r27, r31
    4f76:	79 f4       	brne	.+30     	;  0x4f96
    4f78:	8d 91       	ld	r24, X+
    4f7a:	9c 91       	ld	r25, X
    4f7c:	11 97       	sbiw	r26, 0x01	; 1
    4f7e:	28 0f       	add	r18, r24
    4f80:	39 1f       	adc	r19, r25
    4f82:	2e 5f       	subi	r18, 0xFE	; 254
    4f84:	3f 4f       	sbci	r19, 0xFF	; 255
    4f86:	39 83       	std	Y+1, r19	; 0x01
    4f88:	28 83       	st	Y, r18
    4f8a:	12 96       	adiw	r26, 0x02	; 2
    4f8c:	8d 91       	ld	r24, X+
    4f8e:	9c 91       	ld	r25, X
    4f90:	13 97       	sbiw	r26, 0x03	; 3
    4f92:	9b 83       	std	Y+3, r25	; 0x03
    4f94:	8a 83       	std	Y+2, r24	; 0x02
    4f96:	41 15       	cp	r20, r1
    4f98:	51 05       	cpc	r21, r1
    4f9a:	71 f4       	brne	.+28     	;  0x4fb8
    4f9c:	d0 93 ba 07 	sts	0x07BA, r29
    4fa0:	c0 93 b9 07 	sts	0x07B9, r28
    4fa4:	20 c0       	rjmp	.+64     	;  0x4fe6
    4fa6:	12 96       	adiw	r26, 0x02	; 2
    4fa8:	8d 91       	ld	r24, X+
    4faa:	9c 91       	ld	r25, X
    4fac:	13 97       	sbiw	r26, 0x03	; 3
    4fae:	ad 01       	movw	r20, r26
    4fb0:	00 97       	sbiw	r24, 0x00	; 0
    4fb2:	11 f0       	breq	.+4      	;  0x4fb8
    4fb4:	dc 01       	movw	r26, r24
    4fb6:	d3 cf       	rjmp	.-90     	;  0x4f5e
    4fb8:	fa 01       	movw	r30, r20
    4fba:	d3 83       	std	Z+3, r29	; 0x03
    4fbc:	c2 83       	std	Z+2, r28	; 0x02
    4fbe:	21 91       	ld	r18, Z+
    4fc0:	31 91       	ld	r19, Z+
    4fc2:	e2 0f       	add	r30, r18
    4fc4:	f3 1f       	adc	r31, r19
    4fc6:	ce 17       	cp	r28, r30
    4fc8:	df 07       	cpc	r29, r31
    4fca:	69 f4       	brne	.+26     	;  0x4fe6
    4fcc:	88 81       	ld	r24, Y
    4fce:	99 81       	ldd	r25, Y+1	; 0x01
    4fd0:	28 0f       	add	r18, r24
    4fd2:	39 1f       	adc	r19, r25
    4fd4:	2e 5f       	subi	r18, 0xFE	; 254
    4fd6:	3f 4f       	sbci	r19, 0xFF	; 255
    4fd8:	fa 01       	movw	r30, r20
    4fda:	31 83       	std	Z+1, r19	; 0x01
    4fdc:	20 83       	st	Z, r18
    4fde:	8a 81       	ldd	r24, Y+2	; 0x02
    4fe0:	9b 81       	ldd	r25, Y+3	; 0x03
    4fe2:	93 83       	std	Z+3, r25	; 0x03
    4fe4:	82 83       	std	Z+2, r24	; 0x02
    4fe6:	df 91       	pop	r29
    4fe8:	cf 91       	pop	r28
    4fea:	08 95       	ret
    4fec:	a0 e0       	ldi	r26, 0x00	; 0
    4fee:	b0 e0       	ldi	r27, 0x00	; 0
    4ff0:	ec ef       	ldi	r30, 0xFC	; 252
    4ff2:	f7 e2       	ldi	r31, 0x27	; 39
    4ff4:	0c 94 98 2b 	jmp	0x5730	;  0x5730
    4ff8:	8c 01       	movw	r16, r24
    4ffa:	00 97       	sbiw	r24, 0x00	; 0
    4ffc:	29 f4       	brne	.+10     	;  0x5008
    4ffe:	cb 01       	movw	r24, r22
    5000:	0e 94 f1 26 	call	0x4de2	;  0x4de2
    5004:	8c 01       	movw	r16, r24
    5006:	ba c0       	rjmp	.+372    	;  0x517c
    5008:	9e ef       	ldi	r25, 0xFE	; 254
    500a:	e9 2e       	mov	r14, r25
    500c:	9f ef       	ldi	r25, 0xFF	; 255
    500e:	f9 2e       	mov	r15, r25
    5010:	e0 0e       	add	r14, r16
    5012:	f1 1e       	adc	r15, r17
    5014:	58 01       	movw	r10, r16
    5016:	a6 0e       	add	r10, r22
    5018:	b7 1e       	adc	r11, r23
    501a:	ae 14       	cp	r10, r14
    501c:	bf 04       	cpc	r11, r15
    501e:	08 f4       	brcc	.+2      	;  0x5022
    5020:	ab c0       	rjmp	.+342    	;  0x5178
    5022:	8e ef       	ldi	r24, 0xFE	; 254
    5024:	88 2e       	mov	r8, r24
    5026:	8f ef       	ldi	r24, 0xFF	; 255
    5028:	98 2e       	mov	r9, r24
    502a:	8a 0c       	add	r8, r10
    502c:	9b 1c       	adc	r9, r11
    502e:	e7 01       	movw	r28, r14
    5030:	48 81       	ld	r20, Y
    5032:	59 81       	ldd	r21, Y+1	; 0x01
    5034:	46 17       	cp	r20, r22
    5036:	57 07       	cpc	r21, r23
    5038:	b8 f0       	brcs	.+46     	;  0x5068
    503a:	45 30       	cpi	r20, 0x05	; 5
    503c:	51 05       	cpc	r21, r1
    503e:	08 f4       	brcc	.+2      	;  0x5042
    5040:	9d c0       	rjmp	.+314    	;  0x517c
    5042:	ca 01       	movw	r24, r20
    5044:	04 97       	sbiw	r24, 0x04	; 4
    5046:	86 17       	cp	r24, r22
    5048:	97 07       	cpc	r25, r23
    504a:	08 f4       	brcc	.+2      	;  0x504e
    504c:	97 c0       	rjmp	.+302    	;  0x517c
    504e:	42 50       	subi	r20, 0x02	; 2
    5050:	50 40       	sbci	r21, 0x00	; 0
    5052:	46 1b       	sub	r20, r22
    5054:	57 0b       	sbc	r21, r23
    5056:	f4 01       	movw	r30, r8
    5058:	51 83       	std	Z+1, r21	; 0x01
    505a:	40 83       	st	Z, r20
    505c:	79 83       	std	Y+1, r23	; 0x01
    505e:	68 83       	st	Y, r22
    5060:	c5 01       	movw	r24, r10
    5062:	0e 94 9e 27 	call	0x4f3c	;  0x4f3c
    5066:	8a c0       	rjmp	.+276    	;  0x517c
    5068:	6b 01       	movw	r12, r22
    506a:	c4 1a       	sub	r12, r20
    506c:	d5 0a       	sbc	r13, r21
    506e:	e0 91 b9 07 	lds	r30, 0x07B9
    5072:	f0 91 ba 07 	lds	r31, 0x07BA
    5076:	a0 e0       	ldi	r26, 0x00	; 0
    5078:	b0 e0       	ldi	r27, 0x00	; 0
    507a:	c0 e0       	ldi	r28, 0x00	; 0
    507c:	d0 e0       	ldi	r29, 0x00	; 0
    507e:	42 c0       	rjmp	.+132    	;  0x5104
    5080:	e8 15       	cp	r30, r8
    5082:	f9 05       	cpc	r31, r9
    5084:	a1 f5       	brne	.+104    	;  0x50ee
    5086:	20 81       	ld	r18, Z
    5088:	31 81       	ldd	r19, Z+1	; 0x01
    508a:	2c 15       	cp	r18, r12
    508c:	3d 05       	cpc	r19, r13
    508e:	78 f1       	brcs	.+94     	;  0x50ee
    5090:	c9 01       	movw	r24, r18
    5092:	02 96       	adiw	r24, 0x02	; 2
    5094:	8c 15       	cp	r24, r12
    5096:	9d 05       	cpc	r25, r13
    5098:	a8 f0       	brcs	.+42     	;  0x50c4
    509a:	4e 5f       	subi	r20, 0xFE	; 254
    509c:	5f 4f       	sbci	r21, 0xFF	; 255
    509e:	42 0f       	add	r20, r18
    50a0:	53 1f       	adc	r21, r19
    50a2:	e7 01       	movw	r28, r14
    50a4:	59 83       	std	Y+1, r21	; 0x01
    50a6:	48 83       	st	Y, r20
    50a8:	22 81       	ldd	r18, Z+2	; 0x02
    50aa:	33 81       	ldd	r19, Z+3	; 0x03
    50ac:	10 97       	sbiw	r26, 0x00	; 0
    50ae:	29 f0       	breq	.+10     	;  0x50ba
    50b0:	13 96       	adiw	r26, 0x03	; 3
    50b2:	3c 93       	st	X, r19
    50b4:	2e 93       	st	-X, r18
    50b6:	12 97       	sbiw	r26, 0x02	; 2
    50b8:	61 c0       	rjmp	.+194    	;  0x517c
    50ba:	30 93 ba 07 	sts	0x07BA, r19
    50be:	20 93 b9 07 	sts	0x07B9, r18
    50c2:	5c c0       	rjmp	.+184    	;  0x517c
    50c4:	22 50       	subi	r18, 0x02	; 2
    50c6:	30 40       	sbci	r19, 0x00	; 0
    50c8:	2c 19       	sub	r18, r12
    50ca:	3d 09       	sbc	r19, r13
    50cc:	31 83       	std	Z+1, r19	; 0x01
    50ce:	20 83       	st	Z, r18
    50d0:	10 97       	sbiw	r26, 0x00	; 0
    50d2:	29 f0       	breq	.+10     	;  0x50de
    50d4:	13 96       	adiw	r26, 0x03	; 3
    50d6:	fc 93       	st	X, r31
    50d8:	ee 93       	st	-X, r30
    50da:	12 97       	sbiw	r26, 0x02	; 2
    50dc:	04 c0       	rjmp	.+8      	;  0x50e6
    50de:	f0 93 ba 07 	sts	0x07BA, r31
    50e2:	e0 93 b9 07 	sts	0x07B9, r30
    50e6:	f7 01       	movw	r30, r14
    50e8:	71 83       	std	Z+1, r23	; 0x01
    50ea:	60 83       	st	Z, r22
    50ec:	47 c0       	rjmp	.+142    	;  0x517c
    50ee:	80 81       	ld	r24, Z
    50f0:	91 81       	ldd	r25, Z+1	; 0x01
    50f2:	c8 17       	cp	r28, r24
    50f4:	d9 07       	cpc	r29, r25
    50f6:	08 f4       	brcc	.+2      	;  0x50fa
    50f8:	ec 01       	movw	r28, r24
    50fa:	df 01       	movw	r26, r30
    50fc:	82 81       	ldd	r24, Z+2	; 0x02
    50fe:	93 81       	ldd	r25, Z+3	; 0x03
    5100:	9c 01       	movw	r18, r24
    5102:	f9 01       	movw	r30, r18
    5104:	30 97       	sbiw	r30, 0x00	; 0
    5106:	09 f0       	breq	.+2      	;  0x510a
    5108:	bb cf       	rjmp	.-138    	;  0x5080
    510a:	40 0f       	add	r20, r16
    510c:	51 1f       	adc	r21, r17
    510e:	80 91 b7 07 	lds	r24, 0x07B7
    5112:	90 91 b8 07 	lds	r25, 0x07B8
    5116:	84 17       	cp	r24, r20
    5118:	95 07       	cpc	r25, r21
    511a:	e9 f4       	brne	.+58     	;  0x5156
    511c:	c6 17       	cp	r28, r22
    511e:	d7 07       	cpc	r29, r23
    5120:	d0 f4       	brcc	.+52     	;  0x5156
    5122:	20 91 84 05 	lds	r18, 0x0584
    5126:	30 91 85 05 	lds	r19, 0x0585
    512a:	21 15       	cp	r18, r1
    512c:	31 05       	cpc	r19, r1
    512e:	41 f4       	brne	.+16     	;  0x5140
    5130:	2d b7       	in	r18, 0x3d	; 61
    5132:	3e b7       	in	r19, 0x3e	; 62
    5134:	80 91 80 05 	lds	r24, 0x0580
    5138:	90 91 81 05 	lds	r25, 0x0581
    513c:	28 1b       	sub	r18, r24
    513e:	39 0b       	sbc	r19, r25
    5140:	a2 16       	cp	r10, r18
    5142:	b3 06       	cpc	r11, r19
    5144:	c8 f4       	brcc	.+50     	;  0x5178
    5146:	b0 92 b8 07 	sts	0x07B8, r11
    514a:	a0 92 b7 07 	sts	0x07B7, r10
    514e:	e7 01       	movw	r28, r14
    5150:	79 83       	std	Y+1, r23	; 0x01
    5152:	68 83       	st	Y, r22
    5154:	13 c0       	rjmp	.+38     	;  0x517c
    5156:	cb 01       	movw	r24, r22
    5158:	0e 94 f1 26 	call	0x4de2	;  0x4de2
    515c:	ec 01       	movw	r28, r24
    515e:	00 97       	sbiw	r24, 0x00	; 0
    5160:	59 f0       	breq	.+22     	;  0x5178
    5162:	f7 01       	movw	r30, r14
    5164:	40 81       	ld	r20, Z
    5166:	51 81       	ldd	r21, Z+1	; 0x01
    5168:	b8 01       	movw	r22, r16
    516a:	0e 94 07 29 	call	0x520e	;  0x520e
    516e:	c8 01       	movw	r24, r16
    5170:	0e 94 9e 27 	call	0x4f3c	;  0x4f3c
    5174:	8e 01       	movw	r16, r28
    5176:	02 c0       	rjmp	.+4      	;  0x517c
    5178:	00 e0       	ldi	r16, 0x00	; 0
    517a:	10 e0       	ldi	r17, 0x00	; 0
    517c:	c8 01       	movw	r24, r16
    517e:	cd b7       	in	r28, 0x3d	; 61
    5180:	de b7       	in	r29, 0x3e	; 62
    5182:	ec e0       	ldi	r30, 0x0C	; 12
    5184:	0c 94 b4 2b 	jmp	0x5768	;  0x5768
    5188:	66 27       	eor	r22, r22
    518a:	77 27       	eor	r23, r23
    518c:	0c 94 07 2a 	jmp	0x540e	;  0x540e
    5190:	1f 93       	push	r17
    5192:	fc 01       	movw	r30, r24
    5194:	99 27       	eor	r25, r25
    5196:	88 27       	eor	r24, r24
    5198:	bc 01       	movw	r22, r24
    519a:	e8 94       	clt
    519c:	11 91       	ld	r17, Z+
    519e:	10 32       	cpi	r17, 0x20	; 32
    51a0:	e9 f3       	breq	.-6      	;  0x519c
    51a2:	19 30       	cpi	r17, 0x09	; 9
    51a4:	10 f0       	brcs	.+4      	;  0x51aa
    51a6:	1e 30       	cpi	r17, 0x0E	; 14
    51a8:	c8 f3       	brcs	.-14     	;  0x519c
    51aa:	1b 32       	cpi	r17, 0x2B	; 43
    51ac:	51 f0       	breq	.+20     	;  0x51c2
    51ae:	1d 32       	cpi	r17, 0x2D	; 45
    51b0:	49 f4       	brne	.+18     	;  0x51c4
    51b2:	68 94       	set
    51b4:	06 c0       	rjmp	.+12     	;  0x51c2
    51b6:	0e 94 cd 29 	call	0x539a	;  0x539a
    51ba:	61 0f       	add	r22, r17
    51bc:	71 1d       	adc	r23, r1
    51be:	81 1d       	adc	r24, r1
    51c0:	91 1d       	adc	r25, r1
    51c2:	11 91       	ld	r17, Z+
    51c4:	10 53       	subi	r17, 0x30	; 48
    51c6:	1a 30       	cpi	r17, 0x0A	; 10
    51c8:	b0 f3       	brcs	.-20     	;  0x51b6
    51ca:	3e f4       	brtc	.+14     	;  0x51da
    51cc:	90 95       	com	r25
    51ce:	80 95       	com	r24
    51d0:	70 95       	com	r23
    51d2:	61 95       	neg	r22
    51d4:	7f 4f       	sbci	r23, 0xFF	; 255
    51d6:	8f 4f       	sbci	r24, 0xFF	; 255
    51d8:	9f 4f       	sbci	r25, 0xFF	; 255
    51da:	1f 91       	pop	r17
    51dc:	08 95       	ret
    51de:	91 11       	cpse	r25, r1
    51e0:	76 c2       	rjmp	.+1260   	;  0x56ce
    51e2:	80 32       	cpi	r24, 0x20	; 32
    51e4:	19 f0       	breq	.+6      	;  0x51ec
    51e6:	89 50       	subi	r24, 0x09	; 9
    51e8:	85 50       	subi	r24, 0x05	; 5
    51ea:	d0 f7       	brcc	.-12     	;  0x51e0
    51ec:	08 95       	ret
    51ee:	91 11       	cpse	r25, r1
    51f0:	08 95       	ret
    51f2:	81 54       	subi	r24, 0x41	; 65
    51f4:	8a 51       	subi	r24, 0x1A	; 26
    51f6:	08 f4       	brcc	.+2      	;  0x51fa
    51f8:	80 5e       	subi	r24, 0xE0	; 224
    51fa:	85 5a       	subi	r24, 0xA5	; 165
    51fc:	08 95       	ret
    51fe:	91 11       	cpse	r25, r1
    5200:	08 95       	ret
    5202:	81 56       	subi	r24, 0x61	; 97
    5204:	8a 51       	subi	r24, 0x1A	; 26
    5206:	08 f4       	brcc	.+2      	;  0x520a
    5208:	80 52       	subi	r24, 0x20	; 32
    520a:	85 58       	subi	r24, 0x85	; 133
    520c:	08 95       	ret
    520e:	fb 01       	movw	r30, r22
    5210:	dc 01       	movw	r26, r24
    5212:	02 c0       	rjmp	.+4      	;  0x5218
    5214:	01 90       	ld	r0, Z+
    5216:	0d 92       	st	X+, r0
    5218:	41 50       	subi	r20, 0x01	; 1
    521a:	50 40       	sbci	r21, 0x00	; 0
    521c:	d8 f7       	brcc	.-10     	;  0x5214
    521e:	08 95       	ret
    5220:	fb 01       	movw	r30, r22
    5222:	dc 01       	movw	r26, r24
    5224:	0d 90       	ld	r0, X+
    5226:	00 20       	and	r0, r0
    5228:	e9 f7       	brne	.-6      	;  0x5224
    522a:	11 97       	sbiw	r26, 0x01	; 1
    522c:	01 90       	ld	r0, Z+
    522e:	0d 92       	st	X+, r0
    5230:	00 20       	and	r0, r0
    5232:	e1 f7       	brne	.-8      	;  0x522c
    5234:	08 95       	ret
    5236:	fc 01       	movw	r30, r24
    5238:	81 91       	ld	r24, Z+
    523a:	86 17       	cp	r24, r22
    523c:	21 f0       	breq	.+8      	;  0x5246
    523e:	88 23       	and	r24, r24
    5240:	d9 f7       	brne	.-10     	;  0x5238
    5242:	99 27       	eor	r25, r25
    5244:	08 95       	ret
    5246:	31 97       	sbiw	r30, 0x01	; 1
    5248:	cf 01       	movw	r24, r30
    524a:	08 95       	ret
    524c:	fb 01       	movw	r30, r22
    524e:	dc 01       	movw	r26, r24
    5250:	8d 91       	ld	r24, X+
    5252:	01 90       	ld	r0, Z+
    5254:	80 19       	sub	r24, r0
    5256:	01 10       	cpse	r0, r1
    5258:	d9 f3       	breq	.-10     	;  0x5250
    525a:	99 0b       	sbc	r25, r25
    525c:	08 95       	ret
    525e:	fb 01       	movw	r30, r22
    5260:	dc 01       	movw	r26, r24
    5262:	01 90       	ld	r0, Z+
    5264:	0d 92       	st	X+, r0
    5266:	00 20       	and	r0, r0
    5268:	e1 f7       	brne	.-8      	;  0x5262
    526a:	08 95       	ret
    526c:	fb 01       	movw	r30, r22
    526e:	dc 01       	movw	r26, r24
    5270:	41 50       	subi	r20, 0x01	; 1
    5272:	50 40       	sbci	r21, 0x00	; 0
    5274:	30 f0       	brcs	.+12     	;  0x5282
    5276:	8d 91       	ld	r24, X+
    5278:	01 90       	ld	r0, Z+
    527a:	80 19       	sub	r24, r0
    527c:	19 f4       	brne	.+6      	;  0x5284
    527e:	00 20       	and	r0, r0
    5280:	b9 f7       	brne	.-18     	;  0x5270
    5282:	88 1b       	sub	r24, r24
    5284:	99 0b       	sbc	r25, r25
    5286:	08 95       	ret
    5288:	fb 01       	movw	r30, r22
    528a:	dc 01       	movw	r26, r24
    528c:	41 50       	subi	r20, 0x01	; 1
    528e:	50 40       	sbci	r21, 0x00	; 0
    5290:	48 f0       	brcs	.+18     	;  0x52a4
    5292:	01 90       	ld	r0, Z+
    5294:	0d 92       	st	X+, r0
    5296:	00 20       	and	r0, r0
    5298:	c9 f7       	brne	.-14     	;  0x528c
    529a:	01 c0       	rjmp	.+2      	;  0x529e
    529c:	1d 92       	st	X+, r1
    529e:	41 50       	subi	r20, 0x01	; 1
    52a0:	50 40       	sbci	r21, 0x00	; 0
    52a2:	e0 f7       	brcc	.-8      	;  0x529c
    52a4:	08 95       	ret
    52a6:	fc 01       	movw	r30, r24
    52a8:	81 e0       	ldi	r24, 0x01	; 1
    52aa:	90 e0       	ldi	r25, 0x00	; 0
    52ac:	01 90       	ld	r0, Z+
    52ae:	06 16       	cp	r0, r22
    52b0:	09 f4       	brne	.+2      	;  0x52b4
    52b2:	cf 01       	movw	r24, r30
    52b4:	00 20       	and	r0, r0
    52b6:	d1 f7       	brne	.-12     	;  0x52ac
    52b8:	01 97       	sbiw	r24, 0x01	; 1
    52ba:	08 95       	ret
    52bc:	fb 01       	movw	r30, r22
    52be:	51 91       	ld	r21, Z+
    52c0:	55 23       	and	r21, r21
    52c2:	a9 f0       	breq	.+42     	;  0x52ee
    52c4:	bf 01       	movw	r22, r30
    52c6:	dc 01       	movw	r26, r24
    52c8:	4d 91       	ld	r20, X+
    52ca:	45 17       	cp	r20, r21
    52cc:	41 11       	cpse	r20, r1
    52ce:	e1 f7       	brne	.-8      	;  0x52c8
    52d0:	59 f4       	brne	.+22     	;  0x52e8
    52d2:	cd 01       	movw	r24, r26
    52d4:	01 90       	ld	r0, Z+
    52d6:	00 20       	and	r0, r0
    52d8:	49 f0       	breq	.+18     	;  0x52ec
    52da:	4d 91       	ld	r20, X+
    52dc:	40 15       	cp	r20, r0
    52de:	41 11       	cpse	r20, r1
    52e0:	c9 f3       	breq	.-14     	;  0x52d4
    52e2:	fb 01       	movw	r30, r22
    52e4:	41 11       	cpse	r20, r1
    52e6:	ef cf       	rjmp	.-34     	;  0x52c6
    52e8:	81 e0       	ldi	r24, 0x01	; 1
    52ea:	90 e0       	ldi	r25, 0x00	; 0
    52ec:	01 97       	sbiw	r24, 0x01	; 1
    52ee:	08 95       	ret
    52f0:	fb 01       	movw	r30, r22
    52f2:	9f 01       	movw	r18, r30
    52f4:	e8 94       	clt
    52f6:	42 30       	cpi	r20, 0x02	; 2
    52f8:	c4 f0       	brlt	.+48     	;  0x532a
    52fa:	45 32       	cpi	r20, 0x25	; 37
    52fc:	b4 f4       	brge	.+44     	;  0x532a
    52fe:	4a 30       	cpi	r20, 0x0A	; 10
    5300:	29 f4       	brne	.+10     	;  0x530c
    5302:	97 fb       	bst	r25, 7
    5304:	1e f4       	brtc	.+6      	;  0x530c
    5306:	90 95       	com	r25
    5308:	81 95       	neg	r24
    530a:	9f 4f       	sbci	r25, 0xFF	; 255
    530c:	64 2f       	mov	r22, r20
    530e:	77 27       	eor	r23, r23
    5310:	0e 94 d7 26 	call	0x4dae	;  0x4dae
    5314:	80 5d       	subi	r24, 0xD0	; 208
    5316:	8a 33       	cpi	r24, 0x3A	; 58
    5318:	0c f0       	brlt	.+2      	;  0x531c
    531a:	89 5d       	subi	r24, 0xD9	; 217
    531c:	81 93       	st	Z+, r24
    531e:	cb 01       	movw	r24, r22
    5320:	00 97       	sbiw	r24, 0x00	; 0
    5322:	a1 f7       	brne	.-24     	;  0x530c
    5324:	16 f4       	brtc	.+4      	;  0x532a
    5326:	5d e2       	ldi	r21, 0x2D	; 45
    5328:	51 93       	st	Z+, r21
    532a:	10 82       	st	Z, r1
    532c:	c9 01       	movw	r24, r18
    532e:	0c 94 82 2b 	jmp	0x5704	;  0x5704
    5332:	fa 01       	movw	r30, r20
    5334:	cf 93       	push	r28
    5336:	ff 93       	push	r31
    5338:	ef 93       	push	r30
    533a:	22 30       	cpi	r18, 0x02	; 2
    533c:	44 f1       	brlt	.+80     	;  0x538e
    533e:	25 32       	cpi	r18, 0x25	; 37
    5340:	34 f5       	brge	.+76     	;  0x538e
    5342:	c2 2f       	mov	r28, r18
    5344:	e8 94       	clt
    5346:	ca 30       	cpi	r28, 0x0A	; 10
    5348:	49 f4       	brne	.+18     	;  0x535c
    534a:	97 fb       	bst	r25, 7
    534c:	3e f4       	brtc	.+14     	;  0x535c
    534e:	90 95       	com	r25
    5350:	80 95       	com	r24
    5352:	70 95       	com	r23
    5354:	61 95       	neg	r22
    5356:	7f 4f       	sbci	r23, 0xFF	; 255
    5358:	8f 4f       	sbci	r24, 0xFF	; 255
    535a:	9f 4f       	sbci	r25, 0xFF	; 255
    535c:	2c 2f       	mov	r18, r28
    535e:	33 27       	eor	r19, r19
    5360:	44 27       	eor	r20, r20
    5362:	55 27       	eor	r21, r21
    5364:	ff 93       	push	r31
    5366:	ef 93       	push	r30
    5368:	0e 94 b5 26 	call	0x4d6a	;  0x4d6a
    536c:	ef 91       	pop	r30
    536e:	ff 91       	pop	r31
    5370:	60 5d       	subi	r22, 0xD0	; 208
    5372:	6a 33       	cpi	r22, 0x3A	; 58
    5374:	0c f0       	brlt	.+2      	;  0x5378
    5376:	69 5d       	subi	r22, 0xD9	; 217
    5378:	61 93       	st	Z+, r22
    537a:	b9 01       	movw	r22, r18
    537c:	ca 01       	movw	r24, r20
    537e:	60 50       	subi	r22, 0x00	; 0
    5380:	70 40       	sbci	r23, 0x00	; 0
    5382:	80 40       	sbci	r24, 0x00	; 0
    5384:	90 40       	sbci	r25, 0x00	; 0
    5386:	51 f7       	brne	.-44     	;  0x535c
    5388:	16 f4       	brtc	.+4      	;  0x538e
    538a:	cd e2       	ldi	r28, 0x2D	; 45
    538c:	c1 93       	st	Z+, r28
    538e:	10 82       	st	Z, r1
    5390:	8f 91       	pop	r24
    5392:	9f 91       	pop	r25
    5394:	cf 91       	pop	r28
    5396:	0c 94 82 2b 	jmp	0x5704	;  0x5704
    539a:	59 2f       	mov	r21, r25
    539c:	48 2f       	mov	r20, r24
    539e:	37 2f       	mov	r19, r23
    53a0:	26 2f       	mov	r18, r22
    53a2:	66 0f       	add	r22, r22
    53a4:	77 1f       	adc	r23, r23
    53a6:	88 1f       	adc	r24, r24
    53a8:	99 1f       	adc	r25, r25
    53aa:	66 0f       	add	r22, r22
    53ac:	77 1f       	adc	r23, r23
    53ae:	88 1f       	adc	r24, r24
    53b0:	99 1f       	adc	r25, r25
    53b2:	62 0f       	add	r22, r18
    53b4:	73 1f       	adc	r23, r19
    53b6:	84 1f       	adc	r24, r20
    53b8:	95 1f       	adc	r25, r21
    53ba:	66 0f       	add	r22, r22
    53bc:	77 1f       	adc	r23, r23
    53be:	88 1f       	adc	r24, r24
    53c0:	99 1f       	adc	r25, r25
    53c2:	08 95       	ret
    53c4:	fa 01       	movw	r30, r20
    53c6:	cf 93       	push	r28
    53c8:	ff 93       	push	r31
    53ca:	ef 93       	push	r30
    53cc:	22 30       	cpi	r18, 0x02	; 2
    53ce:	cc f0       	brlt	.+50     	;  0x5402
    53d0:	25 32       	cpi	r18, 0x25	; 37
    53d2:	bc f4       	brge	.+46     	;  0x5402
    53d4:	c2 2f       	mov	r28, r18
    53d6:	2c 2f       	mov	r18, r28
    53d8:	33 27       	eor	r19, r19
    53da:	44 27       	eor	r20, r20
    53dc:	55 27       	eor	r21, r21
    53de:	ff 93       	push	r31
    53e0:	ef 93       	push	r30
    53e2:	0e 94 b5 26 	call	0x4d6a	;  0x4d6a
    53e6:	ef 91       	pop	r30
    53e8:	ff 91       	pop	r31
    53ea:	60 5d       	subi	r22, 0xD0	; 208
    53ec:	6a 33       	cpi	r22, 0x3A	; 58
    53ee:	0c f0       	brlt	.+2      	;  0x53f2
    53f0:	69 5d       	subi	r22, 0xD9	; 217
    53f2:	61 93       	st	Z+, r22
    53f4:	b9 01       	movw	r22, r18
    53f6:	ca 01       	movw	r24, r20
    53f8:	60 50       	subi	r22, 0x00	; 0
    53fa:	70 40       	sbci	r23, 0x00	; 0
    53fc:	80 40       	sbci	r24, 0x00	; 0
    53fe:	90 40       	sbci	r25, 0x00	; 0
    5400:	51 f7       	brne	.-44     	;  0x53d6
    5402:	10 82       	st	Z, r1
    5404:	8f 91       	pop	r24
    5406:	9f 91       	pop	r25
    5408:	cf 91       	pop	r28
    540a:	0c 94 82 2b 	jmp	0x5704	;  0x5704
    540e:	a0 e0       	ldi	r26, 0x00	; 0
    5410:	b0 e0       	ldi	r27, 0x00	; 0
    5412:	ed e0       	ldi	r30, 0x0D	; 13
    5414:	fa e2       	ldi	r31, 0x2A	; 42
    5416:	0c 94 98 2b 	jmp	0x5730	;  0x5730
    541a:	ec 01       	movw	r28, r24
    541c:	5b 01       	movw	r10, r22
    541e:	61 15       	cp	r22, r1
    5420:	71 05       	cpc	r23, r1
    5422:	19 f0       	breq	.+6      	;  0x542a
    5424:	fb 01       	movw	r30, r22
    5426:	91 83       	std	Z+1, r25	; 0x01
    5428:	80 83       	st	Z, r24
    542a:	f9 90       	ld	r15, Y+
    542c:	8f 2d       	mov	r24, r15
    542e:	90 e0       	ldi	r25, 0x00	; 0
    5430:	0e 94 ef 28 	call	0x51de	;  0x51de
    5434:	89 2b       	or	r24, r25
    5436:	c9 f7       	brne	.-14     	;  0x542a
    5438:	fd e2       	ldi	r31, 0x2D	; 45
    543a:	ff 16       	cp	r15, r31
    543c:	21 f4       	brne	.+8      	;  0x5446
    543e:	f9 90       	ld	r15, Y+
    5440:	ee 24       	eor	r14, r14
    5442:	e3 94       	inc	r14
    5444:	05 c0       	rjmp	.+10     	;  0x5450
    5446:	2b e2       	ldi	r18, 0x2B	; 43
    5448:	f2 16       	cp	r15, r18
    544a:	09 f4       	brne	.+2      	;  0x544e
    544c:	f9 90       	ld	r15, Y+
    544e:	ee 24       	eor	r14, r14
    5450:	8e 01       	movw	r16, r28
    5452:	01 50       	subi	r16, 0x01	; 1
    5454:	10 40       	sbci	r17, 0x00	; 0
    5456:	c8 01       	movw	r24, r16
    5458:	60 ed       	ldi	r22, 0xD0	; 208
    545a:	71 e0       	ldi	r23, 0x01	; 1
    545c:	43 e0       	ldi	r20, 0x03	; 3
    545e:	50 e0       	ldi	r21, 0x00	; 0
    5460:	0e 94 6a 2b 	call	0x56d4	;  0x56d4
    5464:	89 2b       	or	r24, r25
    5466:	01 f5       	brne	.+64     	;  0x54a8
    5468:	8e 01       	movw	r16, r28
    546a:	0e 5f       	subi	r16, 0xFE	; 254
    546c:	1f 4f       	sbci	r17, 0xFF	; 255
    546e:	c8 01       	movw	r24, r16
    5470:	63 ed       	ldi	r22, 0xD3	; 211
    5472:	71 e0       	ldi	r23, 0x01	; 1
    5474:	45 e0       	ldi	r20, 0x05	; 5
    5476:	50 e0       	ldi	r21, 0x00	; 0
    5478:	0e 94 6a 2b 	call	0x56d4	;  0x56d4
    547c:	89 2b       	or	r24, r25
    547e:	19 f4       	brne	.+6      	;  0x5486
    5480:	8e 01       	movw	r16, r28
    5482:	09 5f       	subi	r16, 0xF9	; 249
    5484:	1f 4f       	sbci	r17, 0xFF	; 255
    5486:	a1 14       	cp	r10, r1
    5488:	b1 04       	cpc	r11, r1
    548a:	19 f0       	breq	.+6      	;  0x5492
    548c:	f5 01       	movw	r30, r10
    548e:	11 83       	std	Z+1, r17	; 0x01
    5490:	00 83       	st	Z, r16
    5492:	e0 fc       	sbrc	r14, 0
    5494:	04 c0       	rjmp	.+8      	;  0x549e
    5496:	70 e0       	ldi	r23, 0x00	; 0
    5498:	90 e0       	ldi	r25, 0x00	; 0
    549a:	80 e8       	ldi	r24, 0x80	; 128
    549c:	14 c0       	rjmp	.+40     	;  0x54c6
    549e:	70 e0       	ldi	r23, 0x00	; 0
    54a0:	90 e0       	ldi	r25, 0x00	; 0
    54a2:	80 e8       	ldi	r24, 0x80	; 128
    54a4:	6f ef       	ldi	r22, 0xFF	; 255
    54a6:	08 c1       	rjmp	.+528    	;  0x56b8
    54a8:	c8 01       	movw	r24, r16
    54aa:	68 ed       	ldi	r22, 0xD8	; 216
    54ac:	71 e0       	ldi	r23, 0x01	; 1
    54ae:	43 e0       	ldi	r20, 0x03	; 3
    54b0:	50 e0       	ldi	r21, 0x00	; 0
    54b2:	0e 94 6a 2b 	call	0x56d4	;  0x56d4
    54b6:	89 2b       	or	r24, r25
    54b8:	69 f4       	brne	.+26     	;  0x54d4
    54ba:	a1 14       	cp	r10, r1
    54bc:	b1 04       	cpc	r11, r1
    54be:	29 f4       	brne	.+10     	;  0x54ca
    54c0:	70 e0       	ldi	r23, 0x00	; 0
    54c2:	90 e0       	ldi	r25, 0x00	; 0
    54c4:	80 ec       	ldi	r24, 0xC0	; 192
    54c6:	6f e7       	ldi	r22, 0x7F	; 127
    54c8:	f7 c0       	rjmp	.+494    	;  0x56b8
    54ca:	22 96       	adiw	r28, 0x02	; 2
    54cc:	f5 01       	movw	r30, r10
    54ce:	d1 83       	std	Z+1, r29	; 0x01
    54d0:	c0 83       	st	Z, r28
    54d2:	f6 cf       	rjmp	.-20     	;  0x54c0
    54d4:	88 24       	eor	r8, r8
    54d6:	99 24       	eor	r9, r9
    54d8:	40 e0       	ldi	r20, 0x00	; 0
    54da:	50 e0       	ldi	r21, 0x00	; 0
    54dc:	60 e0       	ldi	r22, 0x00	; 0
    54de:	70 e0       	ldi	r23, 0x00	; 0
    54e0:	ef 2d       	mov	r30, r15
    54e2:	e0 53       	subi	r30, 0x30	; 48
    54e4:	ea 30       	cpi	r30, 0x0A	; 10
    54e6:	a0 f5       	brcc	.+104    	;  0x5550
    54e8:	f2 e0       	ldi	r31, 0x02	; 2
    54ea:	ef 2a       	or	r14, r31
    54ec:	8e 2d       	mov	r24, r14
    54ee:	90 e0       	ldi	r25, 0x00	; 0
    54f0:	9c 01       	movw	r18, r24
    54f2:	28 70       	andi	r18, 0x08	; 8
    54f4:	30 70       	andi	r19, 0x00	; 0
    54f6:	e2 fe       	sbrs	r14, 2
    54f8:	06 c0       	rjmp	.+12     	;  0x5506
    54fa:	23 2b       	or	r18, r19
    54fc:	79 f5       	brne	.+94     	;  0x555c
    54fe:	08 94       	sec
    5500:	81 1c       	adc	r8, r1
    5502:	91 1c       	adc	r9, r1
    5504:	2b c0       	rjmp	.+86     	;  0x555c
    5506:	23 2b       	or	r18, r19
    5508:	19 f0       	breq	.+6      	;  0x5510
    550a:	08 94       	sec
    550c:	81 08       	sbc	r8, r1
    550e:	91 08       	sbc	r9, r1
    5510:	db 01       	movw	r26, r22
    5512:	ca 01       	movw	r24, r20
    5514:	12 e0       	ldi	r17, 0x02	; 2
    5516:	88 0f       	add	r24, r24
    5518:	99 1f       	adc	r25, r25
    551a:	aa 1f       	adc	r26, r26
    551c:	bb 1f       	adc	r27, r27
    551e:	1a 95       	dec	r17
    5520:	d1 f7       	brne	.-12     	;  0x5516
    5522:	48 0f       	add	r20, r24
    5524:	59 1f       	adc	r21, r25
    5526:	6a 1f       	adc	r22, r26
    5528:	7b 1f       	adc	r23, r27
    552a:	44 0f       	add	r20, r20
    552c:	55 1f       	adc	r21, r21
    552e:	66 1f       	adc	r22, r22
    5530:	77 1f       	adc	r23, r23
    5532:	4e 0f       	add	r20, r30
    5534:	51 1d       	adc	r21, r1
    5536:	61 1d       	adc	r22, r1
    5538:	71 1d       	adc	r23, r1
    553a:	48 39       	cpi	r20, 0x98	; 152
    553c:	29 e9       	ldi	r18, 0x99	; 153
    553e:	52 07       	cpc	r21, r18
    5540:	29 e9       	ldi	r18, 0x99	; 153
    5542:	62 07       	cpc	r22, r18
    5544:	29 e1       	ldi	r18, 0x19	; 25
    5546:	72 07       	cpc	r23, r18
    5548:	48 f0       	brcs	.+18     	;  0x555c
    554a:	84 e0       	ldi	r24, 0x04	; 4
    554c:	e8 2a       	or	r14, r24
    554e:	06 c0       	rjmp	.+12     	;  0x555c
    5550:	ee 3f       	cpi	r30, 0xFE	; 254
    5552:	31 f4       	brne	.+12     	;  0x5560
    5554:	e3 fc       	sbrc	r14, 3
    5556:	39 c0       	rjmp	.+114    	;  0x55ca
    5558:	98 e0       	ldi	r25, 0x08	; 8
    555a:	e9 2a       	or	r14, r25
    555c:	f9 90       	ld	r15, Y+
    555e:	c0 cf       	rjmp	.-128    	;  0x54e0
    5560:	e5 33       	cpi	r30, 0x35	; 53
    5562:	11 f0       	breq	.+4      	;  0x5568
    5564:	e5 31       	cpi	r30, 0x15	; 21
    5566:	89 f5       	brne	.+98     	;  0x55ca
    5568:	29 91       	ld	r18, Y+
    556a:	2d 32       	cpi	r18, 0x2D	; 45
    556c:	19 f4       	brne	.+6      	;  0x5574
    556e:	e0 e1       	ldi	r30, 0x10	; 16
    5570:	ee 2a       	or	r14, r30
    5572:	05 c0       	rjmp	.+10     	;  0x557e
    5574:	2b 32       	cpi	r18, 0x2B	; 43
    5576:	19 f0       	breq	.+6      	;  0x557e
    5578:	81 e0       	ldi	r24, 0x01	; 1
    557a:	90 e0       	ldi	r25, 0x00	; 0
    557c:	03 c0       	rjmp	.+6      	;  0x5584
    557e:	29 91       	ld	r18, Y+
    5580:	82 e0       	ldi	r24, 0x02	; 2
    5582:	90 e0       	ldi	r25, 0x00	; 0
    5584:	e2 2f       	mov	r30, r18
    5586:	e0 53       	subi	r30, 0x30	; 48
    5588:	ea 30       	cpi	r30, 0x0A	; 10
    558a:	18 f0       	brcs	.+6      	;  0x5592
    558c:	c8 1b       	sub	r28, r24
    558e:	d9 0b       	sbc	r29, r25
    5590:	1c c0       	rjmp	.+56     	;  0x55ca
    5592:	20 e0       	ldi	r18, 0x00	; 0
    5594:	30 e0       	ldi	r19, 0x00	; 0
    5596:	fc e0       	ldi	r31, 0x0C	; 12
    5598:	20 38       	cpi	r18, 0x80	; 128
    559a:	3f 07       	cpc	r19, r31
    559c:	5c f4       	brge	.+22     	;  0x55b4
    559e:	c9 01       	movw	r24, r18
    55a0:	88 0f       	add	r24, r24
    55a2:	99 1f       	adc	r25, r25
    55a4:	88 0f       	add	r24, r24
    55a6:	99 1f       	adc	r25, r25
    55a8:	28 0f       	add	r18, r24
    55aa:	39 1f       	adc	r19, r25
    55ac:	22 0f       	add	r18, r18
    55ae:	33 1f       	adc	r19, r19
    55b0:	2e 0f       	add	r18, r30
    55b2:	31 1d       	adc	r19, r1
    55b4:	e9 91       	ld	r30, Y+
    55b6:	e0 53       	subi	r30, 0x30	; 48
    55b8:	ea 30       	cpi	r30, 0x0A	; 10
    55ba:	68 f3       	brcs	.-38     	;  0x5596
    55bc:	e4 fe       	sbrs	r14, 4
    55be:	03 c0       	rjmp	.+6      	;  0x55c6
    55c0:	30 95       	com	r19
    55c2:	21 95       	neg	r18
    55c4:	3f 4f       	sbci	r19, 0xFF	; 255
    55c6:	82 0e       	add	r8, r18
    55c8:	93 1e       	adc	r9, r19
    55ca:	ce 2c       	mov	r12, r14
    55cc:	dd 24       	eor	r13, r13
    55ce:	e1 fe       	sbrs	r14, 1
    55d0:	07 c0       	rjmp	.+14     	;  0x55e0
    55d2:	a1 14       	cp	r10, r1
    55d4:	b1 04       	cpc	r11, r1
    55d6:	21 f0       	breq	.+8      	;  0x55e0
    55d8:	21 97       	sbiw	r28, 0x01	; 1
    55da:	f5 01       	movw	r30, r10
    55dc:	d1 83       	std	Z+1, r29	; 0x01
    55de:	c0 83       	st	Z, r28
    55e0:	cb 01       	movw	r24, r22
    55e2:	ba 01       	movw	r22, r20
    55e4:	0e 94 81 25 	call	0x4b02	;  0x4b02
    55e8:	7b 01       	movw	r14, r22
    55ea:	8c 01       	movw	r16, r24
    55ec:	f3 e0       	ldi	r31, 0x03	; 3
    55ee:	cf 22       	and	r12, r31
    55f0:	dd 24       	eor	r13, r13
    55f2:	23 e0       	ldi	r18, 0x03	; 3
    55f4:	c2 16       	cp	r12, r18
    55f6:	d1 04       	cpc	r13, r1
    55f8:	21 f4       	brne	.+8      	;  0x5602
    55fa:	17 fb       	bst	r17, 7
    55fc:	10 95       	com	r17
    55fe:	17 f9       	bld	r17, 7
    5600:	10 95       	com	r17
    5602:	57 01       	movw	r10, r14
    5604:	68 01       	movw	r12, r16
    5606:	c8 01       	movw	r24, r16
    5608:	b7 01       	movw	r22, r14
    560a:	20 e0       	ldi	r18, 0x00	; 0
    560c:	30 e0       	ldi	r19, 0x00	; 0
    560e:	40 e0       	ldi	r20, 0x00	; 0
    5610:	50 e0       	ldi	r21, 0x00	; 0
    5612:	0e 94 e4 24 	call	0x49c8	;  0x49c8
    5616:	88 23       	and	r24, r24
    5618:	09 f4       	brne	.+2      	;  0x561c
    561a:	4a c0       	rjmp	.+148    	;  0x56b0
    561c:	97 fe       	sbrs	r9, 7
    561e:	0d c0       	rjmp	.+26     	;  0x563a
    5620:	2f ee       	ldi	r18, 0xEF	; 239
    5622:	e2 2e       	mov	r14, r18
    5624:	21 e0       	ldi	r18, 0x01	; 1
    5626:	f2 2e       	mov	r15, r18
    5628:	90 94       	com	r9
    562a:	81 94       	neg	r8
    562c:	91 08       	sbc	r9, r1
    562e:	93 94       	inc	r9
    5630:	c0 e2       	ldi	r28, 0x20	; 32
    5632:	d0 e0       	ldi	r29, 0x00	; 0
    5634:	00 e0       	ldi	r16, 0x00	; 0
    5636:	10 e0       	ldi	r17, 0x00	; 0
    5638:	12 c0       	rjmp	.+36     	;  0x565e
    563a:	97 e0       	ldi	r25, 0x07	; 7
    563c:	e9 2e       	mov	r14, r25
    563e:	92 e0       	ldi	r25, 0x02	; 2
    5640:	f9 2e       	mov	r15, r25
    5642:	f6 cf       	rjmp	.-20     	;  0x5630
    5644:	f7 01       	movw	r30, r14
    5646:	25 91       	lpm	r18, Z+
    5648:	35 91       	lpm	r19, Z+
    564a:	45 91       	lpm	r20, Z+
    564c:	54 91       	lpm	r21, Z+
    564e:	c6 01       	movw	r24, r12
    5650:	b5 01       	movw	r22, r10
    5652:	0e 94 33 26 	call	0x4c66	;  0x4c66
    5656:	5b 01       	movw	r10, r22
    5658:	6c 01       	movw	r12, r24
    565a:	8c 1a       	sub	r8, r28
    565c:	9d 0a       	sbc	r9, r29
    565e:	8c 16       	cp	r8, r28
    5660:	9d 06       	cpc	r9, r29
    5662:	84 f7       	brge	.-32     	;  0x5644
    5664:	d5 95       	asr	r29
    5666:	c7 95       	ror	r28
    5668:	0f 5f       	subi	r16, 0xFF	; 255
    566a:	1f 4f       	sbci	r17, 0xFF	; 255
    566c:	06 30       	cpi	r16, 0x06	; 6
    566e:	11 05       	cpc	r17, r1
    5670:	29 f0       	breq	.+10     	;  0x567c
    5672:	8c ef       	ldi	r24, 0xFC	; 252
    5674:	9f ef       	ldi	r25, 0xFF	; 255
    5676:	e8 0e       	add	r14, r24
    5678:	f9 1e       	adc	r15, r25
    567a:	f1 cf       	rjmp	.-30     	;  0x565e
    567c:	c5 01       	movw	r24, r10
    567e:	d6 01       	movw	r26, r12
    5680:	7c 01       	movw	r14, r24
    5682:	8d 01       	movw	r16, r26
    5684:	8c 2d       	mov	r24, r12
    5686:	88 0f       	add	r24, r24
    5688:	8d 2d       	mov	r24, r13
    568a:	88 1f       	adc	r24, r24
    568c:	8f 3f       	cpi	r24, 0xFF	; 255
    568e:	51 f0       	breq	.+20     	;  0x56a4
    5690:	c6 01       	movw	r24, r12
    5692:	b5 01       	movw	r22, r10
    5694:	20 e0       	ldi	r18, 0x00	; 0
    5696:	30 e0       	ldi	r19, 0x00	; 0
    5698:	40 e0       	ldi	r20, 0x00	; 0
    569a:	50 e0       	ldi	r21, 0x00	; 0
    569c:	0e 94 e4 24 	call	0x49c8	;  0x49c8
    56a0:	88 23       	and	r24, r24
    56a2:	31 f4       	brne	.+12     	;  0x56b0
    56a4:	82 e2       	ldi	r24, 0x22	; 34
    56a6:	90 e0       	ldi	r25, 0x00	; 0
    56a8:	90 93 bc 07 	sts	0x07BC, r25
    56ac:	80 93 bb 07 	sts	0x07BB, r24
    56b0:	7e 2d       	mov	r23, r14
    56b2:	9f 2d       	mov	r25, r15
    56b4:	80 2f       	mov	r24, r16
    56b6:	61 2f       	mov	r22, r17
    56b8:	27 2f       	mov	r18, r23
    56ba:	39 2f       	mov	r19, r25
    56bc:	48 2f       	mov	r20, r24
    56be:	56 2f       	mov	r21, r22
    56c0:	b9 01       	movw	r22, r18
    56c2:	ca 01       	movw	r24, r20
    56c4:	cd b7       	in	r28, 0x3d	; 61
    56c6:	de b7       	in	r29, 0x3e	; 62
    56c8:	ec e0       	ldi	r30, 0x0C	; 12
    56ca:	0c 94 b4 2b 	jmp	0x5768	;  0x5768
    56ce:	99 27       	eor	r25, r25
    56d0:	88 27       	eor	r24, r24
    56d2:	08 95       	ret
    56d4:	fb 01       	movw	r30, r22
    56d6:	dc 01       	movw	r26, r24
    56d8:	41 50       	subi	r20, 0x01	; 1
    56da:	50 40       	sbci	r21, 0x00	; 0
    56dc:	88 f0       	brcs	.+34     	;  0x5700
    56de:	8d 91       	ld	r24, X+
    56e0:	81 34       	cpi	r24, 0x41	; 65
    56e2:	1c f0       	brlt	.+6      	;  0x56ea
    56e4:	8b 35       	cpi	r24, 0x5B	; 91
    56e6:	0c f4       	brge	.+2      	;  0x56ea
    56e8:	80 5e       	subi	r24, 0xE0	; 224
    56ea:	65 91       	lpm	r22, Z+
    56ec:	61 34       	cpi	r22, 0x41	; 65
    56ee:	1c f0       	brlt	.+6      	;  0x56f6
    56f0:	6b 35       	cpi	r22, 0x5B	; 91
    56f2:	0c f4       	brge	.+2      	;  0x56f6
    56f4:	60 5e       	subi	r22, 0xE0	; 224
    56f6:	86 1b       	sub	r24, r22
    56f8:	61 11       	cpse	r22, r1
    56fa:	71 f3       	breq	.-36     	;  0x56d8
    56fc:	99 0b       	sbc	r25, r25
    56fe:	08 95       	ret
    5700:	88 1b       	sub	r24, r24
    5702:	fc cf       	rjmp	.-8      	;  0x56fc
    5704:	dc 01       	movw	r26, r24
    5706:	fc 01       	movw	r30, r24
    5708:	67 2f       	mov	r22, r23
    570a:	71 91       	ld	r23, Z+
    570c:	77 23       	and	r23, r23
    570e:	e1 f7       	brne	.-8      	;  0x5708
    5710:	32 97       	sbiw	r30, 0x02	; 2
    5712:	04 c0       	rjmp	.+8      	;  0x571c
    5714:	7c 91       	ld	r23, X
    5716:	6d 93       	st	X+, r22
    5718:	70 83       	st	Z, r23
    571a:	62 91       	ld	r22, -Z
    571c:	ae 17       	cp	r26, r30
    571e:	bf 07       	cpc	r27, r31
    5720:	c8 f3       	brcs	.-14     	;  0x5714
    5722:	08 95       	ret
    5724:	2f 92       	push	r2
    5726:	3f 92       	push	r3
    5728:	4f 92       	push	r4
    572a:	5f 92       	push	r5
    572c:	6f 92       	push	r6
    572e:	7f 92       	push	r7
    5730:	8f 92       	push	r8
    5732:	9f 92       	push	r9
    5734:	af 92       	push	r10
    5736:	bf 92       	push	r11
    5738:	cf 92       	push	r12
    573a:	df 92       	push	r13
    573c:	ef 92       	push	r14
    573e:	ff 92       	push	r15
    5740:	0f 93       	push	r16
    5742:	1f 93       	push	r17
    5744:	cf 93       	push	r28
    5746:	df 93       	push	r29
    5748:	cd b7       	in	r28, 0x3d	; 61
    574a:	de b7       	in	r29, 0x3e	; 62
    574c:	ca 1b       	sub	r28, r26
    574e:	db 0b       	sbc	r29, r27
    5750:	0f b6       	in	r0, 0x3f	; 63
    5752:	f8 94       	cli
    5754:	de bf       	out	0x3e, r29	; 62
    5756:	0f be       	out	0x3f, r0	; 63
    5758:	cd bf       	out	0x3d, r28	; 61
    575a:	09 94       	ijmp
    575c:	2a 88       	ldd	r2, Y+18	; 0x12
    575e:	39 88       	ldd	r3, Y+17	; 0x11
    5760:	48 88       	ldd	r4, Y+16	; 0x10
    5762:	5f 84       	ldd	r5, Y+15	; 0x0f
    5764:	6e 84       	ldd	r6, Y+14	; 0x0e
    5766:	7d 84       	ldd	r7, Y+13	; 0x0d
    5768:	8c 84       	ldd	r8, Y+12	; 0x0c
    576a:	9b 84       	ldd	r9, Y+11	; 0x0b
    576c:	aa 84       	ldd	r10, Y+10	; 0x0a
    576e:	b9 84       	ldd	r11, Y+9	; 0x09
    5770:	c8 84       	ldd	r12, Y+8	; 0x08
    5772:	df 80       	ldd	r13, Y+7	; 0x07
    5774:	ee 80       	ldd	r14, Y+6	; 0x06
    5776:	fd 80       	ldd	r15, Y+5	; 0x05
    5778:	0c 81       	ldd	r16, Y+4	; 0x04
    577a:	1b 81       	ldd	r17, Y+3	; 0x03
    577c:	aa 81       	ldd	r26, Y+2	; 0x02
    577e:	b9 81       	ldd	r27, Y+1	; 0x01
    5780:	ce 0f       	add	r28, r30
    5782:	d1 1d       	adc	r29, r1
    5784:	0f b6       	in	r0, 0x3f	; 63
    5786:	f8 94       	cli
    5788:	de bf       	out	0x3e, r29	; 62
    578a:	0f be       	out	0x3f, r0	; 63
    578c:	cd bf       	out	0x3d, r28	; 61
    578e:	ed 01       	movw	r28, r26
    5790:	08 95       	ret
    5792:	12 e0       	ldi	r17, 0x02	; 2
    5794:	c8 e1       	ldi	r28, 0x18	; 24
    5796:	d2 e0       	ldi	r29, 0x02	; 2
    5798:	04 c0       	rjmp	.+8      	;  0x57a2
    579a:	fe 01       	movw	r30, r28
    579c:	0e 94 ed 26 	call	0x4dda	;  0x4dda
    57a0:	22 96       	adiw	r28, 0x02	; 2
    57a2:	cc 31       	cpi	r28, 0x1C	; 28
    57a4:	d1 07       	cpc	r29, r17
    57a6:	c9 f7       	brne	.-14     	;  0x579a
    57a8:	f8 94       	cli
    57aa:	ff cf       	rjmp	.-2      	;  0x57aa
