In archive libSoftwareSerialLib.a:

SoftwareSerial.o:     file format elf32-avr

Sections:
Idx Name          Size      VMA       LMA       File off  Algn
  0 .text         00000790  00000000  00000000  00000034  2**0
                  CONTENTS, ALLOC, LOAD, RELOC, READONLY, CODE
  1 .data         00000024  00000000  00000000  000007c4  2**0
                  CONTENTS, ALLOC, LOAD, RELOC, DATA
  2 .bss          00000044  00000000  00000000  000007e8  2**0
                  ALLOC
  3 .progmem.data 00000090  00000000  00000000  000007e8  2**0
                  CONTENTS, ALLOC, LOAD, READONLY, DATA

Disassembly of section .text:

00000000 <_ZN14SoftwareSerial6listenEv>:
   0:	fc 01       	movw	r30, r24
   2:	80 91 00 00 	lds	r24, 0x0000
   6:	90 91 00 00 	lds	r25, 0x0000
   a:	8e 17       	cp	r24, r30
   c:	9f 07       	cpc	r25, r31
   e:	01 f4       	brne	.+0      	; 0x10 <_ZN14SoftwareSerial6listenEv+0x10>
  10:	80 e0       	ldi	r24, 0x00	; 0
  12:	08 95       	ret
  14:	81 89       	ldd	r24, Z+17	; 0x11
  16:	8e 7f       	andi	r24, 0xFE	; 254
  18:	81 8b       	std	Z+17, r24	; 0x11
  1a:	9f b7       	in	r25, 0x3f	; 63
  1c:	f8 94       	cli
  1e:	10 92 00 00 	sts	0x0000, r1
  22:	80 91 00 00 	lds	r24, 0x0000
  26:	80 93 00 00 	sts	0x0000, r24
  2a:	f0 93 00 00 	sts	0x0000, r31
  2e:	e0 93 00 00 	sts	0x0000, r30
  32:	9f bf       	out	0x3f, r25	; 63
  34:	81 e0       	ldi	r24, 0x01	; 1
  36:	08 95       	ret

00000038 <_ZN14SoftwareSerial4recvEv>:
  38:	0f 93       	push	r16
  3a:	1f 93       	push	r17
  3c:	cf 93       	push	r28
  3e:	df 93       	push	r29
  40:	fc 01       	movw	r30, r24
  42:	81 89       	ldd	r24, Z+17	; 0x11
  44:	a4 81       	ldd	r26, Z+4	; 0x04
  46:	b5 81       	ldd	r27, Z+5	; 0x05
  48:	93 81       	ldd	r25, Z+3	; 0x03
  4a:	08 2f       	mov	r16, r24
  4c:	02 70       	andi	r16, 0x02	; 2
  4e:	81 ff       	sbrs	r24, 1
  50:	00 c0       	rjmp	.+0      	; 0x52 <_ZN14SoftwareSerial4recvEv+0x1a>
  52:	8c 91       	ld	r24, X
  54:	89 23       	and	r24, r25
  56:	01 f4       	brne	.+0      	; 0x58 <_ZN14SoftwareSerial4recvEv+0x20>
  58:	00 c0       	rjmp	.+0      	; 0x5a <_ZN14SoftwareSerial4recvEv+0x22>
  5a:	00 c0       	rjmp	.+0      	; 0x5c <_ZN14SoftwareSerial4recvEv+0x24>
  5c:	8c 91       	ld	r24, X
  5e:	89 23       	and	r24, r25
  60:	01 f0       	breq	.+0      	; 0x62 <_ZN14SoftwareSerial4recvEv+0x2a>
  62:	00 c0       	rjmp	.+0      	; 0x64 <_ZN14SoftwareSerial4recvEv+0x2c>
  64:	81 85       	ldd	r24, Z+9	; 0x09
  66:	92 85       	ldd	r25, Z+10	; 0x0a
  68:	20 e0       	ldi	r18, 0x00	; 0
  6a:	01 97       	sbiw	r24, 0x01	; 1
  6c:	2f ef       	ldi	r18, 0xFF	; 255
  6e:	8f 3f       	cpi	r24, 0xFF	; 255
  70:	92 07       	cpc	r25, r18
  72:	01 f4       	brne	.+0      	; 0x74 <_ZN14SoftwareSerial4recvEv+0x3c>
  74:	c3 85       	ldd	r28, Z+11	; 0x0b
  76:	d4 85       	ldd	r29, Z+12	; 0x0c
  78:	a4 81       	ldd	r26, Z+4	; 0x04
  7a:	b5 81       	ldd	r27, Z+5	; 0x05
  7c:	73 81       	ldd	r23, Z+3	; 0x03
  7e:	60 e0       	ldi	r22, 0x00	; 0
  80:	31 e0       	ldi	r19, 0x01	; 1
  82:	40 e0       	ldi	r20, 0x00	; 0
  84:	50 e0       	ldi	r21, 0x00	; 0
  86:	10 e0       	ldi	r17, 0x00	; 0
  88:	ce 01       	movw	r24, r28
  8a:	21 2f       	mov	r18, r17
  8c:	01 97       	sbiw	r24, 0x01	; 1
  8e:	2f ef       	ldi	r18, 0xFF	; 255
  90:	8f 3f       	cpi	r24, 0xFF	; 255
  92:	92 07       	cpc	r25, r18
  94:	01 f4       	brne	.+0      	; 0x96 <_ZN14SoftwareSerial4recvEv+0x5e>
  96:	8c 91       	ld	r24, X
  98:	87 23       	and	r24, r23
  9a:	01 f0       	breq	.+0      	; 0x9c <_ZN14SoftwareSerial4recvEv+0x64>
  9c:	63 2b       	or	r22, r19
  9e:	00 c0       	rjmp	.+0      	; 0xa0 <_ZN14SoftwareSerial4recvEv+0x68>
  a0:	83 2f       	mov	r24, r19
  a2:	80 95       	com	r24
  a4:	68 23       	and	r22, r24
  a6:	33 0f       	add	r19, r19
  a8:	4f 5f       	subi	r20, 0xFF	; 255
  aa:	5f 4f       	sbci	r21, 0xFF	; 255
  ac:	48 30       	cpi	r20, 0x08	; 8
  ae:	51 05       	cpc	r21, r1
  b0:	01 f4       	brne	.+0      	; 0xb2 <_ZN14SoftwareSerial4recvEv+0x7a>
  b2:	85 85       	ldd	r24, Z+13	; 0x0d
  b4:	96 85       	ldd	r25, Z+14	; 0x0e
  b6:	20 e0       	ldi	r18, 0x00	; 0
  b8:	01 97       	sbiw	r24, 0x01	; 1
  ba:	2f ef       	ldi	r18, 0xFF	; 255
  bc:	8f 3f       	cpi	r24, 0xFF	; 255
  be:	92 07       	cpc	r25, r18
  c0:	01 f4       	brne	.+0      	; 0xc2 <_ZN14SoftwareSerial4recvEv+0x8a>
  c2:	01 11       	cpse	r16, r1
  c4:	60 95       	com	r22
  c6:	80 91 00 00 	lds	r24, 0x0000
  ca:	20 91 00 00 	lds	r18, 0x0000
  ce:	90 e0       	ldi	r25, 0x00	; 0
  d0:	01 96       	adiw	r24, 0x01	; 1
  d2:	8f 73       	andi	r24, 0x3F	; 63
  d4:	90 70       	andi	r25, 0x00	; 0
  d6:	30 e0       	ldi	r19, 0x00	; 0
  d8:	82 17       	cp	r24, r18
  da:	93 07       	cpc	r25, r19
  dc:	01 f0       	breq	.+0      	; 0xde <_ZN14SoftwareSerial4recvEv+0xa6>
  de:	e0 91 00 00 	lds	r30, 0x0000
  e2:	f0 e0       	ldi	r31, 0x00	; 0
  e4:	e0 50       	subi	r30, 0x00	; 0
  e6:	f0 40       	sbci	r31, 0x00	; 0
  e8:	60 83       	st	Z, r22
  ea:	80 91 00 00 	lds	r24, 0x0000
  ee:	90 e0       	ldi	r25, 0x00	; 0
  f0:	01 96       	adiw	r24, 0x01	; 1
  f2:	8f 73       	andi	r24, 0x3F	; 63
  f4:	90 70       	andi	r25, 0x00	; 0
  f6:	80 93 00 00 	sts	0x0000, r24
  fa:	00 c0       	rjmp	.+0      	; 0xfc <_ZN14SoftwareSerial4recvEv+0xc4>
  fc:	81 89       	ldd	r24, Z+17	; 0x11
  fe:	81 60       	ori	r24, 0x01	; 1
 100:	81 8b       	std	Z+17, r24	; 0x11
 102:	df 91       	pop	r29
 104:	cf 91       	pop	r28
 106:	1f 91       	pop	r17
 108:	0f 91       	pop	r16
 10a:	08 95       	ret

0000010c <_ZN14SoftwareSerial12tx_pin_writeEh>:
 10c:	fc 01       	movw	r30, r24
 10e:	a7 81       	ldd	r26, Z+7	; 0x07
 110:	b0 85       	ldd	r27, Z+8	; 0x08
 112:	96 81       	ldd	r25, Z+6	; 0x06
 114:	66 23       	and	r22, r22
 116:	01 f4       	brne	.+0      	; 0x118 <_ZN14SoftwareSerial12tx_pin_writeEh+0xc>
 118:	8c 91       	ld	r24, X
 11a:	90 95       	com	r25
 11c:	98 23       	and	r25, r24
 11e:	9c 93       	st	X, r25
 120:	08 95       	ret
 122:	8c 91       	ld	r24, X
 124:	89 2b       	or	r24, r25
 126:	8c 93       	st	X, r24
 128:	08 95       	ret

0000012a <_ZN14SoftwareSerial11rx_pin_readEv>:
 12a:	dc 01       	movw	r26, r24
 12c:	14 96       	adiw	r26, 0x04	; 4
 12e:	ed 91       	ld	r30, X+
 130:	fc 91       	ld	r31, X
 132:	15 97       	sbiw	r26, 0x05	; 5
 134:	80 81       	ld	r24, Z
 136:	13 96       	adiw	r26, 0x03	; 3
 138:	9c 91       	ld	r25, X
 13a:	89 23       	and	r24, r25
 13c:	08 95       	ret

0000013e <_ZN14SoftwareSerial16handle_interruptEv>:
 13e:	80 91 00 00 	lds	r24, 0x0000
 142:	90 91 00 00 	lds	r25, 0x0000
 146:	00 97       	sbiw	r24, 0x00	; 0
 148:	01 f0       	breq	.+0      	; 0x14a <_ZN14SoftwareSerial16handle_interruptEv+0xc>
 14a:	0e 94 00 00 	call	0	; 0x0 <_ZN14SoftwareSerial6listenEv>
 14e:	08 95       	ret

00000150 <__vector_3>:
 150:	1f 92       	push	r1
 152:	0f 92       	push	r0
 154:	0f b6       	in	r0, 0x3f	; 63
 156:	0f 92       	push	r0
 158:	11 24       	eor	r1, r1
 15a:	2f 93       	push	r18
 15c:	3f 93       	push	r19
 15e:	4f 93       	push	r20
 160:	5f 93       	push	r21
 162:	6f 93       	push	r22
 164:	7f 93       	push	r23
 166:	8f 93       	push	r24
 168:	9f 93       	push	r25
 16a:	af 93       	push	r26
 16c:	bf 93       	push	r27
 16e:	ef 93       	push	r30
 170:	ff 93       	push	r31
 172:	0e 94 00 00 	call	0	; 0x0 <_ZN14SoftwareSerial6listenEv>
 176:	ff 91       	pop	r31
 178:	ef 91       	pop	r30
 17a:	bf 91       	pop	r27
 17c:	af 91       	pop	r26
 17e:	9f 91       	pop	r25
 180:	8f 91       	pop	r24
 182:	7f 91       	pop	r23
 184:	6f 91       	pop	r22
 186:	5f 91       	pop	r21
 188:	4f 91       	pop	r20
 18a:	3f 91       	pop	r19
 18c:	2f 91       	pop	r18
 18e:	0f 90       	pop	r0
 190:	0f be       	out	0x3f, r0	; 63
 192:	0f 90       	pop	r0
 194:	1f 90       	pop	r1
 196:	18 95       	reti

00000198 <__vector_4>:
 198:	1f 92       	push	r1
 19a:	0f 92       	push	r0
 19c:	0f b6       	in	r0, 0x3f	; 63
 19e:	0f 92       	push	r0
 1a0:	11 24       	eor	r1, r1
 1a2:	2f 93       	push	r18
 1a4:	3f 93       	push	r19
 1a6:	4f 93       	push	r20
 1a8:	5f 93       	push	r21
 1aa:	6f 93       	push	r22
 1ac:	7f 93       	push	r23
 1ae:	8f 93       	push	r24
 1b0:	9f 93       	push	r25
 1b2:	af 93       	push	r26
 1b4:	bf 93       	push	r27
 1b6:	ef 93       	push	r30
 1b8:	ff 93       	push	r31
 1ba:	0e 94 00 00 	call	0	; 0x0 <_ZN14SoftwareSerial6listenEv>
 1be:	ff 91       	pop	r31
 1c0:	ef 91       	pop	r30
 1c2:	bf 91       	pop	r27
 1c4:	af 91       	pop	r26
 1c6:	9f 91       	pop	r25
 1c8:	8f 91       	pop	r24
 1ca:	7f 91       	pop	r23
 1cc:	6f 91       	pop	r22
 1ce:	5f 91       	pop	r21
 1d0:	4f 91       	pop	r20
 1d2:	3f 91       	pop	r19
 1d4:	2f 91       	pop	r18
 1d6:	0f 90       	pop	r0
 1d8:	0f be       	out	0x3f, r0	; 63
 1da:	0f 90       	pop	r0
 1dc:	1f 90       	pop	r1
 1de:	18 95       	reti

000001e0 <__vector_5>:
 1e0:	1f 92       	push	r1
 1e2:	0f 92       	push	r0
 1e4:	0f b6       	in	r0, 0x3f	; 63
 1e6:	0f 92       	push	r0
 1e8:	11 24       	eor	r1, r1
 1ea:	2f 93       	push	r18
 1ec:	3f 93       	push	r19
 1ee:	4f 93       	push	r20
 1f0:	5f 93       	push	r21
 1f2:	6f 93       	push	r22
 1f4:	7f 93       	push	r23
 1f6:	8f 93       	push	r24
 1f8:	9f 93       	push	r25
 1fa:	af 93       	push	r26
 1fc:	bf 93       	push	r27
 1fe:	ef 93       	push	r30
 200:	ff 93       	push	r31
 202:	0e 94 00 00 	call	0	; 0x0 <_ZN14SoftwareSerial6listenEv>
 206:	ff 91       	pop	r31
 208:	ef 91       	pop	r30
 20a:	bf 91       	pop	r27
 20c:	af 91       	pop	r26
 20e:	9f 91       	pop	r25
 210:	8f 91       	pop	r24
 212:	7f 91       	pop	r23
 214:	6f 91       	pop	r22
 216:	5f 91       	pop	r21
 218:	4f 91       	pop	r20
 21a:	3f 91       	pop	r19
 21c:	2f 91       	pop	r18
 21e:	0f 90       	pop	r0
 220:	0f be       	out	0x3f, r0	; 63
 222:	0f 90       	pop	r0
 224:	1f 90       	pop	r1
 226:	18 95       	reti

00000228 <_ZN14SoftwareSerialC2Ev>:
 228:	fc 01       	movw	r30, r24
 22a:	80 e0       	ldi	r24, 0x00	; 0
 22c:	90 e0       	ldi	r25, 0x00	; 0
 22e:	91 83       	std	Z+1, r25	; 0x01
 230:	80 83       	st	Z, r24
 232:	08 95       	ret

00000234 <_ZN14SoftwareSerialC1Ev>:
 234:	fc 01       	movw	r30, r24
 236:	80 e0       	ldi	r24, 0x00	; 0
 238:	90 e0       	ldi	r25, 0x00	; 0
 23a:	91 83       	std	Z+1, r25	; 0x01
 23c:	80 83       	st	Z, r24
 23e:	08 95       	ret

00000240 <_ZN14SoftwareSerial5beginEl>:
 240:	cf 92       	push	r12
 242:	df 92       	push	r13
 244:	ef 92       	push	r14
 246:	ff 92       	push	r15
 248:	0f 93       	push	r16
 24a:	1f 93       	push	r17
 24c:	cf 93       	push	r28
 24e:	df 93       	push	r29
 250:	ec 01       	movw	r28, r24
 252:	7a 01       	movw	r14, r20
 254:	8b 01       	movw	r16, r22
 256:	18 8a       	std	Y+16, r1	; 0x10
 258:	1f 86       	std	Y+15, r1	; 0x0f
 25a:	1e 86       	std	Y+14, r1	; 0x0e
 25c:	1d 86       	std	Y+13, r1	; 0x0d
 25e:	1c 86       	std	Y+12, r1	; 0x0c
 260:	1b 86       	std	Y+11, r1	; 0x0b
 262:	1a 86       	std	Y+10, r1	; 0x0a
 264:	19 86       	std	Y+9, r1	; 0x09
 266:	20 e0       	ldi	r18, 0x00	; 0
 268:	30 e0       	ldi	r19, 0x00	; 0
 26a:	69 01       	movw	r12, r18
 26c:	cc 0c       	add	r12, r12
 26e:	dd 1c       	adc	r13, r13
 270:	c2 0e       	add	r12, r18
 272:	d3 1e       	adc	r13, r19
 274:	b6 01       	movw	r22, r12
 276:	66 0f       	add	r22, r22
 278:	77 1f       	adc	r23, r23
 27a:	66 0f       	add	r22, r22
 27c:	77 1f       	adc	r23, r23
 27e:	ab 01       	movw	r20, r22
 280:	40 50       	subi	r20, 0x00	; 0
 282:	50 40       	sbci	r21, 0x00	; 0
 284:	fa 01       	movw	r30, r20
 286:	85 91       	lpm	r24, Z+
 288:	95 91       	lpm	r25, Z+
 28a:	a5 91       	lpm	r26, Z+
 28c:	b4 91       	lpm	r27, Z+
 28e:	8e 15       	cp	r24, r14
 290:	9f 05       	cpc	r25, r15
 292:	a0 07       	cpc	r26, r16
 294:	b1 07       	cpc	r27, r17
 296:	01 f4       	brne	.+0      	; 0x298 <_ZN14SoftwareSerial5beginEl+0x58>
 298:	fb 01       	movw	r30, r22
 29a:	e0 50       	subi	r30, 0x00	; 0
 29c:	f0 40       	sbci	r31, 0x00	; 0
 29e:	85 91       	lpm	r24, Z+
 2a0:	94 91       	lpm	r25, Z+
 2a2:	9a 87       	std	Y+10, r25	; 0x0a
 2a4:	89 87       	std	Y+9, r24	; 0x09
 2a6:	fb 01       	movw	r30, r22
 2a8:	e0 50       	subi	r30, 0x00	; 0
 2aa:	f0 40       	sbci	r31, 0x00	; 0
 2ac:	85 91       	lpm	r24, Z+
 2ae:	94 91       	lpm	r25, Z+
 2b0:	9c 87       	std	Y+12, r25	; 0x0c
 2b2:	8b 87       	std	Y+11, r24	; 0x0b
 2b4:	fb 01       	movw	r30, r22
 2b6:	e0 50       	subi	r30, 0x00	; 0
 2b8:	f0 40       	sbci	r31, 0x00	; 0
 2ba:	85 91       	lpm	r24, Z+
 2bc:	94 91       	lpm	r25, Z+
 2be:	9e 87       	std	Y+14, r25	; 0x0e
 2c0:	8d 87       	std	Y+13, r24	; 0x0d
 2c2:	fb 01       	movw	r30, r22
 2c4:	e0 50       	subi	r30, 0x00	; 0
 2c6:	f0 40       	sbci	r31, 0x00	; 0
 2c8:	85 91       	lpm	r24, Z+
 2ca:	94 91       	lpm	r25, Z+
 2cc:	98 8b       	std	Y+16, r25	; 0x10
 2ce:	8f 87       	std	Y+15, r24	; 0x0f
 2d0:	00 c0       	rjmp	.+0      	; 0x2d2 <_ZN14SoftwareSerial5beginEl+0x92>
 2d2:	2f 5f       	subi	r18, 0xFF	; 255
 2d4:	3f 4f       	sbci	r19, 0xFF	; 255
 2d6:	2c 30       	cpi	r18, 0x0C	; 12
 2d8:	31 05       	cpc	r19, r1
 2da:	01 f0       	breq	.+0      	; 0x2dc <_ZN14SoftwareSerial5beginEl+0x9c>
 2dc:	00 c0       	rjmp	.+0      	; 0x2de <_ZN14SoftwareSerial5beginEl+0x9e>
 2de:	8d 85       	ldd	r24, Y+13	; 0x0d
 2e0:	9e 85       	ldd	r25, Y+14	; 0x0e
 2e2:	89 2b       	or	r24, r25
 2e4:	01 f4       	brne	.+0      	; 0x2e6 <_ZN14SoftwareSerial5beginEl+0xa6>
 2e6:	00 c0       	rjmp	.+0      	; 0x2e8 <_ZN14SoftwareSerial5beginEl+0xa8>
 2e8:	4a 81       	ldd	r20, Y+2	; 0x02
 2ea:	46 31       	cpi	r20, 0x16	; 22
 2ec:	00 f0       	brcs	.+0      	; 0x2ee <_ZN14SoftwareSerial5beginEl+0xae>
 2ee:	00 c0       	rjmp	.+0      	; 0x2f0 <_ZN14SoftwareSerial5beginEl+0xb0>
 2f0:	90 91 68 00 	lds	r25, 0x0068
 2f4:	48 30       	cpi	r20, 0x08	; 8
 2f6:	00 f4       	brcc	.+0      	; 0x2f8 <_ZN14SoftwareSerial5beginEl+0xb8>
 2f8:	84 e0       	ldi	r24, 0x04	; 4
 2fa:	00 c0       	rjmp	.+0      	; 0x2fc <_ZN14SoftwareSerial5beginEl+0xbc>
 2fc:	4e 30       	cpi	r20, 0x0E	; 14
 2fe:	00 f0       	brcs	.+0      	; 0x300 <_ZN14SoftwareSerial5beginEl+0xc0>
 300:	82 e0       	ldi	r24, 0x02	; 2
 302:	00 c0       	rjmp	.+0      	; 0x304 <_ZN14SoftwareSerial5beginEl+0xc4>
 304:	81 e0       	ldi	r24, 0x01	; 1
 306:	89 2b       	or	r24, r25
 308:	80 93 68 00 	sts	0x0068, r24
 30c:	48 30       	cpi	r20, 0x08	; 8
 30e:	00 f4       	brcc	.+0      	; 0x310 <_ZN14SoftwareSerial5beginEl+0xd0>
 310:	ed e6       	ldi	r30, 0x6D	; 109
 312:	f0 e0       	ldi	r31, 0x00	; 0
 314:	ad e6       	ldi	r26, 0x6D	; 109
 316:	b0 e0       	ldi	r27, 0x00	; 0
 318:	00 c0       	rjmp	.+0      	; 0x31a <_ZN14SoftwareSerial5beginEl+0xda>
 31a:	4e 30       	cpi	r20, 0x0E	; 14
 31c:	00 f0       	brcs	.+0      	; 0x31e <_ZN14SoftwareSerial5beginEl+0xde>
 31e:	ec e6       	ldi	r30, 0x6C	; 108
 320:	f0 e0       	ldi	r31, 0x00	; 0
 322:	ac e6       	ldi	r26, 0x6C	; 108
 324:	b0 e0       	ldi	r27, 0x00	; 0
 326:	00 c0       	rjmp	.+0      	; 0x328 <_ZN14SoftwareSerial5beginEl+0xe8>
 328:	eb e6       	ldi	r30, 0x6B	; 107
 32a:	f0 e0       	ldi	r31, 0x00	; 0
 32c:	ab e6       	ldi	r26, 0x6B	; 107
 32e:	b0 e0       	ldi	r27, 0x00	; 0
 330:	50 81       	ld	r21, Z
 332:	48 30       	cpi	r20, 0x08	; 8
 334:	00 f4       	brcc	.+0      	; 0x336 <_ZN14SoftwareSerial5beginEl+0xf6>
 336:	81 e0       	ldi	r24, 0x01	; 1
 338:	90 e0       	ldi	r25, 0x00	; 0
 33a:	00 c0       	rjmp	.+0      	; 0x33c <_ZN14SoftwareSerial5beginEl+0xfc>
 33c:	88 0f       	add	r24, r24
 33e:	99 1f       	adc	r25, r25
 340:	4a 95       	dec	r20
 342:	02 f4       	brpl	.+0      	; 0x344 <_ZN14SoftwareSerial5beginEl+0x104>
 344:	00 c0       	rjmp	.+0      	; 0x346 <_ZN14SoftwareSerial5beginEl+0x106>
 346:	24 2f       	mov	r18, r20
 348:	30 e0       	ldi	r19, 0x00	; 0
 34a:	4e 30       	cpi	r20, 0x0E	; 14
 34c:	00 f4       	brcc	.+0      	; 0x34e <_ZN14SoftwareSerial5beginEl+0x10e>
 34e:	28 50       	subi	r18, 0x08	; 8
 350:	30 40       	sbci	r19, 0x00	; 0
 352:	00 c0       	rjmp	.+0      	; 0x354 <_ZN14SoftwareSerial5beginEl+0x114>
 354:	2e 50       	subi	r18, 0x0E	; 14
 356:	30 40       	sbci	r19, 0x00	; 0
 358:	81 e0       	ldi	r24, 0x01	; 1
 35a:	90 e0       	ldi	r25, 0x00	; 0
 35c:	00 c0       	rjmp	.+0      	; 0x35e <_ZN14SoftwareSerial5beginEl+0x11e>
 35e:	88 0f       	add	r24, r24
 360:	99 1f       	adc	r25, r25
 362:	2a 95       	dec	r18
 364:	02 f4       	brpl	.+0      	; 0x366 <_ZN14SoftwareSerial5beginEl+0x126>
 366:	85 2b       	or	r24, r21
 368:	8c 93       	st	X, r24
 36a:	8f 85       	ldd	r24, Y+15	; 0x0f
 36c:	98 89       	ldd	r25, Y+16	; 0x10
 36e:	20 e0       	ldi	r18, 0x00	; 0
 370:	01 97       	sbiw	r24, 0x01	; 1
 372:	2f ef       	ldi	r18, 0xFF	; 255
 374:	8f 3f       	cpi	r24, 0xFF	; 255
 376:	92 07       	cpc	r25, r18
 378:	01 f4       	brne	.+0      	; 0x37a <_ZN14SoftwareSerial5beginEl+0x13a>
 37a:	ce 01       	movw	r24, r28
 37c:	0e 94 00 00 	call	0	; 0x0 <_ZN14SoftwareSerial6listenEv>
 380:	df 91       	pop	r29
 382:	cf 91       	pop	r28
 384:	1f 91       	pop	r17
 386:	0f 91       	pop	r16
 388:	ff 90       	pop	r15
 38a:	ef 90       	pop	r14
 38c:	df 90       	pop	r13
 38e:	cf 90       	pop	r12
 390:	08 95       	ret

00000392 <_ZN14SoftwareSerial3endEv>:
 392:	fc 01       	movw	r30, r24
 394:	42 81       	ldd	r20, Z+2	; 0x02
 396:	46 31       	cpi	r20, 0x16	; 22
 398:	00 f4       	brcc	.+0      	; 0x39a <_ZN14SoftwareSerial3endEv+0x8>
 39a:	48 30       	cpi	r20, 0x08	; 8
 39c:	00 f4       	brcc	.+0      	; 0x39e <_ZN14SoftwareSerial3endEv+0xc>
 39e:	ed e6       	ldi	r30, 0x6D	; 109
 3a0:	f0 e0       	ldi	r31, 0x00	; 0
 3a2:	ad e6       	ldi	r26, 0x6D	; 109
 3a4:	b0 e0       	ldi	r27, 0x00	; 0
 3a6:	00 c0       	rjmp	.+0      	; 0x3a8 <_ZN14SoftwareSerial3endEv+0x16>
 3a8:	4e 30       	cpi	r20, 0x0E	; 14
 3aa:	00 f4       	brcc	.+0      	; 0x3ac <_ZN14SoftwareSerial3endEv+0x1a>
 3ac:	eb e6       	ldi	r30, 0x6B	; 107
 3ae:	f0 e0       	ldi	r31, 0x00	; 0
 3b0:	ab e6       	ldi	r26, 0x6B	; 107
 3b2:	b0 e0       	ldi	r27, 0x00	; 0
 3b4:	00 c0       	rjmp	.+0      	; 0x3b6 <_ZN14SoftwareSerial3endEv+0x24>
 3b6:	ec e6       	ldi	r30, 0x6C	; 108
 3b8:	f0 e0       	ldi	r31, 0x00	; 0
 3ba:	ac e6       	ldi	r26, 0x6C	; 108
 3bc:	b0 e0       	ldi	r27, 0x00	; 0
 3be:	50 81       	ld	r21, Z
 3c0:	48 30       	cpi	r20, 0x08	; 8
 3c2:	00 f4       	brcc	.+0      	; 0x3c4 <_ZN14SoftwareSerial3endEv+0x32>
 3c4:	81 e0       	ldi	r24, 0x01	; 1
 3c6:	90 e0       	ldi	r25, 0x00	; 0
 3c8:	00 c0       	rjmp	.+0      	; 0x3ca <_ZN14SoftwareSerial3endEv+0x38>
 3ca:	88 0f       	add	r24, r24
 3cc:	99 1f       	adc	r25, r25
 3ce:	4a 95       	dec	r20
 3d0:	02 f4       	brpl	.+0      	; 0x3d2 <_ZN14SoftwareSerial3endEv+0x40>
 3d2:	00 c0       	rjmp	.+0      	; 0x3d4 <_ZN14SoftwareSerial3endEv+0x42>
 3d4:	24 2f       	mov	r18, r20
 3d6:	30 e0       	ldi	r19, 0x00	; 0
 3d8:	4e 30       	cpi	r20, 0x0E	; 14
 3da:	00 f4       	brcc	.+0      	; 0x3dc <_ZN14SoftwareSerial3endEv+0x4a>
 3dc:	28 50       	subi	r18, 0x08	; 8
 3de:	30 40       	sbci	r19, 0x00	; 0
 3e0:	00 c0       	rjmp	.+0      	; 0x3e2 <_ZN14SoftwareSerial3endEv+0x50>
 3e2:	2e 50       	subi	r18, 0x0E	; 14
 3e4:	30 40       	sbci	r19, 0x00	; 0
 3e6:	81 e0       	ldi	r24, 0x01	; 1
 3e8:	90 e0       	ldi	r25, 0x00	; 0
 3ea:	00 c0       	rjmp	.+0      	; 0x3ec <_ZN14SoftwareSerial3endEv+0x5a>
 3ec:	88 0f       	add	r24, r24
 3ee:	99 1f       	adc	r25, r25
 3f0:	2a 95       	dec	r18
 3f2:	02 f4       	brpl	.+0      	; 0x3f4 <_ZN14SoftwareSerial3endEv+0x62>
 3f4:	80 95       	com	r24
 3f6:	85 23       	and	r24, r21
 3f8:	8c 93       	st	X, r24
 3fa:	08 95       	ret

000003fc <_ZN14SoftwareSerialD1Ev>:
 3fc:	fc 01       	movw	r30, r24
 3fe:	80 e0       	ldi	r24, 0x00	; 0
 400:	90 e0       	ldi	r25, 0x00	; 0
 402:	91 83       	std	Z+1, r25	; 0x01
 404:	80 83       	st	Z, r24
 406:	cf 01       	movw	r24, r30
 408:	0e 94 00 00 	call	0	; 0x0 <_ZN14SoftwareSerial6listenEv>
 40c:	08 95       	ret

0000040e <_ZN14SoftwareSerialD2Ev>:
 40e:	fc 01       	movw	r30, r24
 410:	80 e0       	ldi	r24, 0x00	; 0
 412:	90 e0       	ldi	r25, 0x00	; 0
 414:	91 83       	std	Z+1, r25	; 0x01
 416:	80 83       	st	Z, r24
 418:	cf 01       	movw	r24, r30
 41a:	0e 94 00 00 	call	0	; 0x0 <_ZN14SoftwareSerial6listenEv>
 41e:	08 95       	ret

00000420 <_ZN14SoftwareSerial4readEv>:
 420:	20 91 00 00 	lds	r18, 0x0000
 424:	30 91 00 00 	lds	r19, 0x0000
 428:	28 17       	cp	r18, r24
 42a:	39 07       	cpc	r19, r25
 42c:	01 f4       	brne	.+0      	; 0x42e <_ZN14SoftwareSerial4readEv+0xe>
 42e:	90 91 00 00 	lds	r25, 0x0000
 432:	80 91 00 00 	lds	r24, 0x0000
 436:	98 17       	cp	r25, r24
 438:	01 f4       	brne	.+0      	; 0x43a <_ZN14SoftwareSerial4readEv+0x1a>
 43a:	2f ef       	ldi	r18, 0xFF	; 255
 43c:	3f ef       	ldi	r19, 0xFF	; 255
 43e:	00 c0       	rjmp	.+0      	; 0x440 <_ZN14SoftwareSerial4readEv+0x20>
 440:	e0 91 00 00 	lds	r30, 0x0000
 444:	f0 e0       	ldi	r31, 0x00	; 0
 446:	e0 50       	subi	r30, 0x00	; 0
 448:	f0 40       	sbci	r31, 0x00	; 0
 44a:	20 81       	ld	r18, Z
 44c:	80 91 00 00 	lds	r24, 0x0000
 450:	90 e0       	ldi	r25, 0x00	; 0
 452:	01 96       	adiw	r24, 0x01	; 1
 454:	8f 73       	andi	r24, 0x3F	; 63
 456:	90 70       	andi	r25, 0x00	; 0
 458:	80 93 00 00 	sts	0x0000, r24
 45c:	30 e0       	ldi	r19, 0x00	; 0
 45e:	c9 01       	movw	r24, r18
 460:	08 95       	ret

00000462 <_ZN14SoftwareSerial9availableEv>:
 462:	20 91 00 00 	lds	r18, 0x0000
 466:	30 91 00 00 	lds	r19, 0x0000
 46a:	28 17       	cp	r18, r24
 46c:	39 07       	cpc	r19, r25
 46e:	01 f0       	breq	.+0      	; 0x470 <_ZN14SoftwareSerial9availableEv+0xe>
 470:	20 e0       	ldi	r18, 0x00	; 0
 472:	30 e0       	ldi	r19, 0x00	; 0
 474:	00 c0       	rjmp	.+0      	; 0x476 <_ZN14SoftwareSerial9availableEv+0x14>
 476:	80 91 00 00 	lds	r24, 0x0000
 47a:	20 91 00 00 	lds	r18, 0x0000
 47e:	90 e0       	ldi	r25, 0x00	; 0
 480:	80 5c       	subi	r24, 0xC0	; 192
 482:	9f 4f       	sbci	r25, 0xFF	; 255
 484:	82 1b       	sub	r24, r18
 486:	91 09       	sbc	r25, r1
 488:	60 e4       	ldi	r22, 0x40	; 64
 48a:	70 e0       	ldi	r23, 0x00	; 0
 48c:	0e 94 00 00 	call	0	; 0x0 <_ZN14SoftwareSerial6listenEv>
 490:	9c 01       	movw	r18, r24
 492:	c9 01       	movw	r24, r18
 494:	08 95       	ret

00000496 <_ZN14SoftwareSerial5writeEh>:
 496:	0f 93       	push	r16
 498:	1f 93       	push	r17
 49a:	dc 01       	movw	r26, r24
 49c:	1f 96       	adiw	r26, 0x0f	; 15
 49e:	8d 91       	ld	r24, X+
 4a0:	9c 91       	ld	r25, X
 4a2:	50 97       	sbiw	r26, 0x10	; 16
 4a4:	89 2b       	or	r24, r25
 4a6:	01 f4       	brne	.+0      	; 0x4a8 <_ZN14SoftwareSerial5writeEh+0x12>
 4a8:	00 c0       	rjmp	.+0      	; 0x4aa <_ZN14SoftwareSerial5writeEh+0x14>
 4aa:	0f b7       	in	r16, 0x3f	; 63
 4ac:	f8 94       	cli
 4ae:	51 96       	adiw	r26, 0x11	; 17
 4b0:	8c 91       	ld	r24, X
 4b2:	51 97       	sbiw	r26, 0x11	; 17
 4b4:	17 96       	adiw	r26, 0x07	; 7
 4b6:	ed 91       	ld	r30, X+
 4b8:	fc 91       	ld	r31, X
 4ba:	18 97       	sbiw	r26, 0x08	; 8
 4bc:	16 96       	adiw	r26, 0x06	; 6
 4be:	2c 91       	ld	r18, X
 4c0:	16 97       	sbiw	r26, 0x06	; 6
 4c2:	81 ff       	sbrs	r24, 1
 4c4:	00 c0       	rjmp	.+0      	; 0x4c6 <_ZN14SoftwareSerial5writeEh+0x30>
 4c6:	80 81       	ld	r24, Z
 4c8:	82 2b       	or	r24, r18
 4ca:	80 83       	st	Z, r24
 4cc:	1f 96       	adiw	r26, 0x0f	; 15
 4ce:	8d 91       	ld	r24, X+
 4d0:	9c 91       	ld	r25, X
 4d2:	50 97       	sbiw	r26, 0x10	; 16
 4d4:	05 96       	adiw	r24, 0x05	; 5
 4d6:	20 e0       	ldi	r18, 0x00	; 0
 4d8:	01 97       	sbiw	r24, 0x01	; 1
 4da:	2f ef       	ldi	r18, 0xFF	; 255
 4dc:	8f 3f       	cpi	r24, 0xFF	; 255
 4de:	92 07       	cpc	r25, r18
 4e0:	01 f4       	brne	.+0      	; 0x4e2 <_ZN14SoftwareSerial5writeEh+0x4c>
 4e2:	51 96       	adiw	r26, 0x11	; 17
 4e4:	8c 91       	ld	r24, X
 4e6:	51 97       	sbiw	r26, 0x11	; 17
 4e8:	81 ff       	sbrs	r24, 1
 4ea:	00 c0       	rjmp	.+0      	; 0x4ec <_ZN14SoftwareSerial5writeEh+0x56>
 4ec:	31 e0       	ldi	r19, 0x01	; 1
 4ee:	40 e0       	ldi	r20, 0x00	; 0
 4f0:	50 e0       	ldi	r21, 0x00	; 0
 4f2:	70 e0       	ldi	r23, 0x00	; 0
 4f4:	10 e0       	ldi	r17, 0x00	; 0
 4f6:	83 2f       	mov	r24, r19
 4f8:	90 e0       	ldi	r25, 0x00	; 0
 4fa:	86 23       	and	r24, r22
 4fc:	97 23       	and	r25, r23
 4fe:	17 96       	adiw	r26, 0x07	; 7
 500:	ed 91       	ld	r30, X+
 502:	fc 91       	ld	r31, X
 504:	18 97       	sbiw	r26, 0x08	; 8
 506:	16 96       	adiw	r26, 0x06	; 6
 508:	2c 91       	ld	r18, X
 50a:	16 97       	sbiw	r26, 0x06	; 6
 50c:	89 2b       	or	r24, r25
 50e:	01 f0       	breq	.+0      	; 0x510 <_ZN14SoftwareSerial5writeEh+0x7a>
 510:	80 81       	ld	r24, Z
 512:	20 95       	com	r18
 514:	28 23       	and	r18, r24
 516:	20 83       	st	Z, r18
 518:	00 c0       	rjmp	.+0      	; 0x51a <_ZN14SoftwareSerial5writeEh+0x84>
 51a:	80 81       	ld	r24, Z
 51c:	82 2b       	or	r24, r18
 51e:	80 83       	st	Z, r24
 520:	1f 96       	adiw	r26, 0x0f	; 15
 522:	8d 91       	ld	r24, X+
 524:	9c 91       	ld	r25, X
 526:	50 97       	sbiw	r26, 0x10	; 16
 528:	21 2f       	mov	r18, r17
 52a:	01 97       	sbiw	r24, 0x01	; 1
 52c:	2f ef       	ldi	r18, 0xFF	; 255
 52e:	8f 3f       	cpi	r24, 0xFF	; 255
 530:	92 07       	cpc	r25, r18
 532:	01 f4       	brne	.+0      	; 0x534 <_ZN14SoftwareSerial5writeEh+0x9e>
 534:	33 0f       	add	r19, r19
 536:	4f 5f       	subi	r20, 0xFF	; 255
 538:	5f 4f       	sbci	r21, 0xFF	; 255
 53a:	48 30       	cpi	r20, 0x08	; 8
 53c:	51 05       	cpc	r21, r1
 53e:	01 f4       	brne	.+0      	; 0x540 <_ZN14SoftwareSerial5writeEh+0xaa>
 540:	17 96       	adiw	r26, 0x07	; 7
 542:	ed 91       	ld	r30, X+
 544:	fc 91       	ld	r31, X
 546:	18 97       	sbiw	r26, 0x08	; 8
 548:	90 81       	ld	r25, Z
 54a:	16 96       	adiw	r26, 0x06	; 6
 54c:	8c 91       	ld	r24, X
 54e:	16 97       	sbiw	r26, 0x06	; 6
 550:	80 95       	com	r24
 552:	89 23       	and	r24, r25
 554:	00 c0       	rjmp	.+0      	; 0x556 <_ZN14SoftwareSerial5writeEh+0xc0>
 556:	31 e0       	ldi	r19, 0x01	; 1
 558:	40 e0       	ldi	r20, 0x00	; 0
 55a:	50 e0       	ldi	r21, 0x00	; 0
 55c:	70 e0       	ldi	r23, 0x00	; 0
 55e:	10 e0       	ldi	r17, 0x00	; 0
 560:	83 2f       	mov	r24, r19
 562:	90 e0       	ldi	r25, 0x00	; 0
 564:	86 23       	and	r24, r22
 566:	97 23       	and	r25, r23
 568:	17 96       	adiw	r26, 0x07	; 7
 56a:	ed 91       	ld	r30, X+
 56c:	fc 91       	ld	r31, X
 56e:	18 97       	sbiw	r26, 0x08	; 8
 570:	16 96       	adiw	r26, 0x06	; 6
 572:	2c 91       	ld	r18, X
 574:	16 97       	sbiw	r26, 0x06	; 6
 576:	89 2b       	or	r24, r25
 578:	01 f0       	breq	.+0      	; 0x57a <_ZN14SoftwareSerial5writeEh+0xe4>
 57a:	80 81       	ld	r24, Z
 57c:	82 2b       	or	r24, r18
 57e:	80 83       	st	Z, r24
 580:	00 c0       	rjmp	.+0      	; 0x582 <_ZN14SoftwareSerial5writeEh+0xec>
 582:	80 81       	ld	r24, Z
 584:	20 95       	com	r18
 586:	28 23       	and	r18, r24
 588:	20 83       	st	Z, r18
 58a:	1f 96       	adiw	r26, 0x0f	; 15
 58c:	8d 91       	ld	r24, X+
 58e:	9c 91       	ld	r25, X
 590:	50 97       	sbiw	r26, 0x10	; 16
 592:	21 2f       	mov	r18, r17
 594:	01 97       	sbiw	r24, 0x01	; 1
 596:	2f ef       	ldi	r18, 0xFF	; 255
 598:	8f 3f       	cpi	r24, 0xFF	; 255
 59a:	92 07       	cpc	r25, r18
 59c:	01 f4       	brne	.+0      	; 0x59e <_ZN14SoftwareSerial5writeEh+0x108>
 59e:	33 0f       	add	r19, r19
 5a0:	4f 5f       	subi	r20, 0xFF	; 255
 5a2:	5f 4f       	sbci	r21, 0xFF	; 255
 5a4:	48 30       	cpi	r20, 0x08	; 8
 5a6:	51 05       	cpc	r21, r1
 5a8:	01 f4       	brne	.+0      	; 0x5aa <_ZN14SoftwareSerial5writeEh+0x114>
 5aa:	17 96       	adiw	r26, 0x07	; 7
 5ac:	ed 91       	ld	r30, X+
 5ae:	fc 91       	ld	r31, X
 5b0:	18 97       	sbiw	r26, 0x08	; 8
 5b2:	80 81       	ld	r24, Z
 5b4:	16 96       	adiw	r26, 0x06	; 6
 5b6:	9c 91       	ld	r25, X
 5b8:	16 97       	sbiw	r26, 0x06	; 6
 5ba:	89 2b       	or	r24, r25
 5bc:	80 83       	st	Z, r24
 5be:	0f bf       	out	0x3f, r16	; 63
 5c0:	1f 96       	adiw	r26, 0x0f	; 15
 5c2:	8d 91       	ld	r24, X+
 5c4:	9c 91       	ld	r25, X
 5c6:	50 97       	sbiw	r26, 0x10	; 16
 5c8:	20 e0       	ldi	r18, 0x00	; 0
 5ca:	01 97       	sbiw	r24, 0x01	; 1
 5cc:	2f ef       	ldi	r18, 0xFF	; 255
 5ce:	8f 3f       	cpi	r24, 0xFF	; 255
 5d0:	92 07       	cpc	r25, r18
 5d2:	01 f4       	brne	.+0      	; 0x5d4 <_ZN14SoftwareSerial5writeEh+0x13e>
 5d4:	00 c0       	rjmp	.+0      	; 0x5d6 <_ZN14SoftwareSerial5writeEh+0x140>
 5d6:	80 81       	ld	r24, Z
 5d8:	20 95       	com	r18
 5da:	28 23       	and	r18, r24
 5dc:	20 83       	st	Z, r18
 5de:	00 c0       	rjmp	.+0      	; 0x5e0 <_ZN14SoftwareSerial5writeEh+0x14a>
 5e0:	1f 91       	pop	r17
 5e2:	0f 91       	pop	r16
 5e4:	08 95       	ret

000005e6 <_ZN14SoftwareSerial13enable_timer0Eb>:
 5e6:	88 23       	and	r24, r24
 5e8:	01 f0       	breq	.+0      	; 0x5ea <_ZN14SoftwareSerial13enable_timer0Eb+0x4>
 5ea:	80 91 6e 00 	lds	r24, 0x006E
 5ee:	81 60       	ori	r24, 0x01	; 1
 5f0:	00 c0       	rjmp	.+0      	; 0x5f2 <_ZN14SoftwareSerial13enable_timer0Eb+0xc>
 5f2:	80 91 6e 00 	lds	r24, 0x006E
 5f6:	8e 7f       	andi	r24, 0xFE	; 254
 5f8:	80 93 6e 00 	sts	0x006E, r24
 5fc:	08 95       	ret

000005fe <_ZN14SoftwareSerial5flushEv>:
 5fe:	20 91 00 00 	lds	r18, 0x0000
 602:	30 91 00 00 	lds	r19, 0x0000
 606:	28 17       	cp	r18, r24
 608:	39 07       	cpc	r19, r25
 60a:	01 f4       	brne	.+0      	; 0x60c <_ZN14SoftwareSerial5flushEv+0xe>
 60c:	9f b7       	in	r25, 0x3f	; 63
 60e:	f8 94       	cli
 610:	10 92 00 00 	sts	0x0000, r1
 614:	80 91 00 00 	lds	r24, 0x0000
 618:	80 93 00 00 	sts	0x0000, r24
 61c:	9f bf       	out	0x3f, r25	; 63
 61e:	08 95       	ret

00000620 <_ZN14SoftwareSerial4peekEv>:
 620:	20 91 00 00 	lds	r18, 0x0000
 624:	30 91 00 00 	lds	r19, 0x0000
 628:	28 17       	cp	r18, r24
 62a:	39 07       	cpc	r19, r25
 62c:	01 f4       	brne	.+0      	; 0x62e <_ZN14SoftwareSerial4peekEv+0xe>
 62e:	90 91 00 00 	lds	r25, 0x0000
 632:	80 91 00 00 	lds	r24, 0x0000
 636:	98 17       	cp	r25, r24
 638:	01 f4       	brne	.+0      	; 0x63a <_ZN14SoftwareSerial4peekEv+0x1a>
 63a:	2f ef       	ldi	r18, 0xFF	; 255
 63c:	3f ef       	ldi	r19, 0xFF	; 255
 63e:	00 c0       	rjmp	.+0      	; 0x640 <_ZN14SoftwareSerial4peekEv+0x20>
 640:	e0 91 00 00 	lds	r30, 0x0000
 644:	f0 e0       	ldi	r31, 0x00	; 0
 646:	e0 50       	subi	r30, 0x00	; 0
 648:	f0 40       	sbci	r31, 0x00	; 0
 64a:	80 81       	ld	r24, Z
 64c:	28 2f       	mov	r18, r24
 64e:	30 e0       	ldi	r19, 0x00	; 0
 650:	c9 01       	movw	r24, r18
 652:	08 95       	ret

00000654 <_ZN14SoftwareSerial5setRXEh>:
 654:	1f 93       	push	r17
 656:	cf 93       	push	r28
 658:	df 93       	push	r29
 65a:	ec 01       	movw	r28, r24
 65c:	16 2f       	mov	r17, r22
 65e:	86 2f       	mov	r24, r22
 660:	60 e0       	ldi	r22, 0x00	; 0
 662:	0e 94 00 00 	call	0	; 0x0 <_ZN14SoftwareSerial6listenEv>
 666:	89 89       	ldd	r24, Y+17	; 0x11
 668:	81 fd       	sbrc	r24, 1
 66a:	00 c0       	rjmp	.+0      	; 0x66c <_ZN14SoftwareSerial5setRXEh+0x18>
 66c:	81 2f       	mov	r24, r17
 66e:	61 e0       	ldi	r22, 0x01	; 1
 670:	0e 94 00 00 	call	0	; 0x0 <_ZN14SoftwareSerial6listenEv>
 674:	1a 83       	std	Y+2, r17	; 0x02
 676:	21 2f       	mov	r18, r17
 678:	30 e0       	ldi	r19, 0x00	; 0
 67a:	c9 01       	movw	r24, r18
 67c:	80 50       	subi	r24, 0x00	; 0
 67e:	90 40       	sbci	r25, 0x00	; 0
 680:	fc 01       	movw	r30, r24
 682:	84 91       	lpm	r24, Z+
 684:	8b 83       	std	Y+3, r24	; 0x03
 686:	20 50       	subi	r18, 0x00	; 0
 688:	30 40       	sbci	r19, 0x00	; 0
 68a:	f9 01       	movw	r30, r18
 68c:	64 91       	lpm	r22, Z+
 68e:	e6 2f       	mov	r30, r22
 690:	f0 e0       	ldi	r31, 0x00	; 0
 692:	ee 0f       	add	r30, r30
 694:	ff 1f       	adc	r31, r31
 696:	e0 50       	subi	r30, 0x00	; 0
 698:	f0 40       	sbci	r31, 0x00	; 0
 69a:	85 91       	lpm	r24, Z+
 69c:	94 91       	lpm	r25, Z+
 69e:	9d 83       	std	Y+5, r25	; 0x05
 6a0:	8c 83       	std	Y+4, r24	; 0x04
 6a2:	df 91       	pop	r29
 6a4:	cf 91       	pop	r28
 6a6:	1f 91       	pop	r17
 6a8:	08 95       	ret

000006aa <_ZN14SoftwareSerial5setTXEh>:
 6aa:	ff 92       	push	r15
 6ac:	0f 93       	push	r16
 6ae:	1f 93       	push	r17
 6b0:	8c 01       	movw	r16, r24
 6b2:	f6 2e       	mov	r15, r22
 6b4:	86 2f       	mov	r24, r22
 6b6:	61 e0       	ldi	r22, 0x01	; 1
 6b8:	0e 94 00 00 	call	0	; 0x0 <_ZN14SoftwareSerial6listenEv>
 6bc:	8f 2d       	mov	r24, r15
 6be:	61 e0       	ldi	r22, 0x01	; 1
 6c0:	0e 94 00 00 	call	0	; 0x0 <_ZN14SoftwareSerial6listenEv>
 6c4:	8f 2d       	mov	r24, r15
 6c6:	90 e0       	ldi	r25, 0x00	; 0
 6c8:	fc 01       	movw	r30, r24
 6ca:	e0 50       	subi	r30, 0x00	; 0
 6cc:	f0 40       	sbci	r31, 0x00	; 0
 6ce:	e4 91       	lpm	r30, Z+
 6d0:	d8 01       	movw	r26, r16
 6d2:	16 96       	adiw	r26, 0x06	; 6
 6d4:	ec 93       	st	X, r30
 6d6:	16 97       	sbiw	r26, 0x06	; 6
 6d8:	80 50       	subi	r24, 0x00	; 0
 6da:	90 40       	sbci	r25, 0x00	; 0
 6dc:	fc 01       	movw	r30, r24
 6de:	64 91       	lpm	r22, Z+
 6e0:	e6 2f       	mov	r30, r22
 6e2:	f0 e0       	ldi	r31, 0x00	; 0
 6e4:	ee 0f       	add	r30, r30
 6e6:	ff 1f       	adc	r31, r31
 6e8:	e0 50       	subi	r30, 0x00	; 0
 6ea:	f0 40       	sbci	r31, 0x00	; 0
 6ec:	85 91       	lpm	r24, Z+
 6ee:	94 91       	lpm	r25, Z+
 6f0:	18 96       	adiw	r26, 0x08	; 8
 6f2:	9c 93       	st	X, r25
 6f4:	8e 93       	st	-X, r24
 6f6:	17 97       	sbiw	r26, 0x07	; 7
 6f8:	1f 91       	pop	r17
 6fa:	0f 91       	pop	r16
 6fc:	ff 90       	pop	r15
 6fe:	08 95       	ret

00000700 <_ZN14SoftwareSerialC1Ehhb>:
 700:	ff 92       	push	r15
 702:	0f 93       	push	r16
 704:	1f 93       	push	r17
 706:	8c 01       	movw	r16, r24
 708:	f6 2e       	mov	r15, r22
 70a:	80 e0       	ldi	r24, 0x00	; 0
 70c:	90 e0       	ldi	r25, 0x00	; 0
 70e:	f8 01       	movw	r30, r16
 710:	91 83       	std	Z+1, r25	; 0x01
 712:	80 83       	st	Z, r24
 714:	12 86       	std	Z+10, r1	; 0x0a
 716:	11 86       	std	Z+9, r1	; 0x09
 718:	14 86       	std	Z+12, r1	; 0x0c
 71a:	13 86       	std	Z+11, r1	; 0x0b
 71c:	16 86       	std	Z+14, r1	; 0x0e
 71e:	15 86       	std	Z+13, r1	; 0x0d
 720:	10 8a       	std	Z+16, r1	; 0x10
 722:	17 86       	std	Z+15, r1	; 0x0f
 724:	81 89       	ldd	r24, Z+17	; 0x11
 726:	21 70       	andi	r18, 0x01	; 1
 728:	22 0f       	add	r18, r18
 72a:	8c 7f       	andi	r24, 0xFC	; 252
 72c:	82 2b       	or	r24, r18
 72e:	81 8b       	std	Z+17, r24	; 0x11
 730:	c8 01       	movw	r24, r16
 732:	64 2f       	mov	r22, r20
 734:	0e 94 00 00 	call	0	; 0x0 <_ZN14SoftwareSerial6listenEv>
 738:	c8 01       	movw	r24, r16
 73a:	6f 2d       	mov	r22, r15
 73c:	0e 94 00 00 	call	0	; 0x0 <_ZN14SoftwareSerial6listenEv>
 740:	1f 91       	pop	r17
 742:	0f 91       	pop	r16
 744:	ff 90       	pop	r15
 746:	08 95       	ret

00000748 <_ZN14SoftwareSerialC2Ehhb>:
 748:	ff 92       	push	r15
 74a:	0f 93       	push	r16
 74c:	1f 93       	push	r17
 74e:	8c 01       	movw	r16, r24
 750:	f6 2e       	mov	r15, r22
 752:	80 e0       	ldi	r24, 0x00	; 0
 754:	90 e0       	ldi	r25, 0x00	; 0
 756:	f8 01       	movw	r30, r16
 758:	91 83       	std	Z+1, r25	; 0x01
 75a:	80 83       	st	Z, r24
 75c:	12 86       	std	Z+10, r1	; 0x0a
 75e:	11 86       	std	Z+9, r1	; 0x09
 760:	14 86       	std	Z+12, r1	; 0x0c
 762:	13 86       	std	Z+11, r1	; 0x0b
 764:	16 86       	std	Z+14, r1	; 0x0e
 766:	15 86       	std	Z+13, r1	; 0x0d
 768:	10 8a       	std	Z+16, r1	; 0x10
 76a:	17 86       	std	Z+15, r1	; 0x0f
 76c:	81 89       	ldd	r24, Z+17	; 0x11
 76e:	21 70       	andi	r18, 0x01	; 1
 770:	22 0f       	add	r18, r18
 772:	8c 7f       	andi	r24, 0xFC	; 252
 774:	82 2b       	or	r24, r18
 776:	81 8b       	std	Z+17, r24	; 0x11
 778:	c8 01       	movw	r24, r16
 77a:	64 2f       	mov	r22, r20
 77c:	0e 94 00 00 	call	0	; 0x0 <_ZN14SoftwareSerial6listenEv>
 780:	c8 01       	movw	r24, r16
 782:	6f 2d       	mov	r22, r15
 784:	0e 94 00 00 	call	0	; 0x0 <_ZN14SoftwareSerial6listenEv>
 788:	1f 91       	pop	r17
 78a:	0f 91       	pop	r16
 78c:	ff 90       	pop	r15
 78e:	08 95       	ret
